

Microchip MPLAB XC8 Assembler V2.46 build 20240104201356 
                                                                                               Sun Dec 15 21:54:19 2024

Microchip MPLAB XC8 C Compiler v2.46 (Free license) build 20240104201356 Og1 
     1                           	processor	16F1827
     2                           	pagewidth 120
     3                           	opt	flic
     4                           	psect	idataBANK0,global,class=CODE,delta=2,noexec
     5                           	psect	nvBANK0,global,class=BANK0,space=1,delta=1,noexec
     6                           	psect	cinit,global,class=CODE,merge=1,delta=2
     7                           	psect	bssCOMMON,global,class=COMMON,space=1,delta=1,noexec
     8                           	psect	bssBANK0,global,class=BANK0,space=1,delta=1,noexec
     9                           	psect	dataBANK0,global,class=BANK0,space=1,delta=1,noexec
    10                           	psect	cstackCOMMON,global,class=COMMON,space=1,delta=1,noexec
    11                           	psect	cstackBANK0,global,class=BANK0,space=1,delta=1,noexec
    12                           	psect	maintext,global,class=CODE,merge=1,split=1,delta=2
    13                           	psect	text1,local,class=CODE,merge=1,delta=2,group=1
    14                           	psect	text2,local,class=CODE,merge=1,delta=2,group=1
    15                           	psect	text3,local,class=CODE,merge=1,delta=2,group=1
    16                           	psect	text4,local,class=CODE,merge=1,delta=2,group=1
    17                           	psect	text5,local,class=CODE,merge=1,delta=2,group=1
    18                           	psect	text6,local,class=CODE,merge=1,delta=2
    19                           	psect	text7,local,class=CODE,merge=1,delta=2
    20                           	psect	text8,local,class=CODE,merge=1,delta=2
    21                           	psect	text9,local,class=CODE,merge=1,delta=2
    22                           	psect	text10,local,class=CODE,merge=1,delta=2
    23                           	psect	text11,local,class=CODE,merge=1,delta=2
    24                           	psect	text12,local,class=CODE,merge=1,delta=2
    25                           	psect	text13,local,class=CODE,merge=1,delta=2
    26                           	psect	text14,local,class=CODE,merge=1,delta=2
    27                           	psect	text15,local,class=CODE,merge=1,delta=2
    28                           	psect	text16,local,class=CODE,merge=1,delta=2
    29                           	psect	intentry,global,class=CODE,delta=2
    30                           	psect	text18,local,class=CODE,merge=1,delta=2
    31                           	psect	text19,local,class=CODE,merge=1,delta=2
    32                           	psect	text20,local,class=CODE,merge=1,delta=2
    33                           	psect	text21,local,class=CODE,merge=1,delta=2
    34                           	psect	config,global,abs,ovrld,class=CONFIG,space=4,delta=2,noexec
    35                           	dabs	1,0x7E,2
    36     0000                     
    37                           ; Generated 07/09/2023 GMT
    38                           ; 
    39                           ; Copyright © 2023, Microchip Technology Inc. and its subsidiaries ("Microchip")
    40                           ; All rights reserved.
    41                           ; 
    42                           ; This software is developed by Microchip Technology Inc. and its subsidiaries ("Microch
      +                          ip").
    43                           ; 
    44                           ; Redistribution and use in source and binary forms, with or without modification, are
    45                           ; permitted provided that the following conditions are met:
    46                           ; 
    47                           ;     1. Redistributions of source code must retain the above copyright notice, this lis
      +                          t of
    48                           ;        conditions and the following disclaimer.
    49                           ; 
    50                           ;     2. Redistributions in binary form must reproduce the above copyright notice, this 
      +                          list
    51                           ;        of conditions and the following disclaimer in the documentation and/or other
    52                           ;        materials provided with the distribution. Publication is not required when
    53                           ;        this file is used in an embedded application.
    54                           ; 
    55                           ;     3. Microchip's name may not be used to endorse or promote products derived from th
      +                          is
    56                           ;        software without specific prior written permission.
    57                           ; 
    58                           ; THIS SOFTWARE IS PROVIDED BY MICROCHIP "AS IS" AND ANY EXPRESS OR IMPLIED WARRANTIES,
    59                           ; INCLUDING, BUT NOT LIMITED TO, THE IMPLIED WARRANTIES OF MERCHANTABILITY AND FITNESS F
      +                          OR
    60                           ; PURPOSE ARE DISCLAIMED.  IN NO EVENT SHALL MICROCHIP BE LIABLE FOR ANY DIRECT, INDIREC
      +                          T,
    61                           ; INCIDENTAL, SPECIAL, EXEMPLARY, OR CONSEQUENTIAL DAMAGES (INCLUDING BUT NOT LIMITED TO
    62                           ; PROCUREMENT OF SUBSTITUTE GOODS OR SERVICES; LOSS OF USE, DATA OR PROFITS; OR BUSINESS
    63                           ; INTERRUPTION) HOWSOEVER CAUSED AND ON ANY THEORY OF LIABILITY, WHETHER IN CONTRACT, ST
      +                          RICT
    64                           ; LIABILITY, OR TORT (INCLUDING NEGLIGENCE OR OTHERWISE) ARISING IN ANY WAY OUT OF THE U
      +                          SE OF
    65                           ; THIS SOFTWARE, EVEN IF ADVISED OF THE POSSIBILITY OF SUCH DAMAGE.
    66                           ; 
    67                           ; 
    68                           ; Code-generator required, PIC16F1827 Definitions
    69                           ; 
    70                           ; SFR Addresses
    71     0000                     	;# 
    72     0001                     	;# 
    73     0002                     	;# 
    74     0003                     	;# 
    75     0004                     	;# 
    76     0005                     	;# 
    77     0006                     	;# 
    78     0007                     	;# 
    79     0008                     	;# 
    80     0009                     	;# 
    81     000A                     	;# 
    82     000B                     	;# 
    83     000C                     	;# 
    84     000D                     	;# 
    85     0011                     	;# 
    86     0012                     	;# 
    87     0013                     	;# 
    88     0014                     	;# 
    89     0015                     	;# 
    90     0016                     	;# 
    91     0016                     	;# 
    92     0017                     	;# 
    93     0018                     	;# 
    94     0019                     	;# 
    95     001A                     	;# 
    96     001B                     	;# 
    97     001C                     	;# 
    98     001E                     	;# 
    99     001F                     	;# 
   100     008C                     	;# 
   101     008D                     	;# 
   102     0091                     	;# 
   103     0092                     	;# 
   104     0093                     	;# 
   105     0094                     	;# 
   106     0095                     	;# 
   107     0096                     	;# 
   108     0097                     	;# 
   109     0098                     	;# 
   110     0099                     	;# 
   111     009A                     	;# 
   112     009B                     	;# 
   113     009B                     	;# 
   114     009C                     	;# 
   115     009D                     	;# 
   116     009E                     	;# 
   117     010C                     	;# 
   118     010D                     	;# 
   119     0111                     	;# 
   120     0112                     	;# 
   121     0113                     	;# 
   122     0114                     	;# 
   123     0115                     	;# 
   124     0116                     	;# 
   125     0117                     	;# 
   126     0118                     	;# 
   127     0119                     	;# 
   128     011A                     	;# 
   129     011B                     	;# 
   130     011D                     	;# 
   131     011E                     	;# 
   132     018C                     	;# 
   133     018D                     	;# 
   134     0191                     	;# 
   135     0191                     	;# 
   136     0192                     	;# 
   137     0193                     	;# 
   138     0193                     	;# 
   139     0193                     	;# 
   140     0194                     	;# 
   141     0195                     	;# 
   142     0196                     	;# 
   143     0199                     	;# 
   144     019A                     	;# 
   145     019B                     	;# 
   146     019B                     	;# 
   147     019B                     	;# 
   148     019B                     	;# 
   149     019C                     	;# 
   150     019C                     	;# 
   151     019D                     	;# 
   152     019E                     	;# 
   153     019F                     	;# 
   154     020C                     	;# 
   155     020D                     	;# 
   156     0211                     	;# 
   157     0211                     	;# 
   158     0212                     	;# 
   159     0212                     	;# 
   160     0213                     	;# 
   161     0213                     	;# 
   162     0214                     	;# 
   163     0214                     	;# 
   164     0215                     	;# 
   165     0215                     	;# 
   166     0215                     	;# 
   167     0216                     	;# 
   168     0216                     	;# 
   169     0217                     	;# 
   170     0217                     	;# 
   171     0219                     	;# 
   172     021A                     	;# 
   173     021B                     	;# 
   174     021C                     	;# 
   175     021D                     	;# 
   176     021E                     	;# 
   177     021F                     	;# 
   178     0291                     	;# 
   179     0291                     	;# 
   180     0292                     	;# 
   181     0293                     	;# 
   182     0294                     	;# 
   183     0295                     	;# 
   184     0295                     	;# 
   185     0296                     	;# 
   186     0298                     	;# 
   187     0298                     	;# 
   188     0299                     	;# 
   189     029A                     	;# 
   190     029B                     	;# 
   191     029C                     	;# 
   192     029C                     	;# 
   193     029D                     	;# 
   194     029E                     	;# 
   195     029E                     	;# 
   196     0311                     	;# 
   197     0311                     	;# 
   198     0312                     	;# 
   199     0313                     	;# 
   200     0318                     	;# 
   201     0318                     	;# 
   202     0319                     	;# 
   203     031A                     	;# 
   204     0394                     	;# 
   205     0395                     	;# 
   206     0396                     	;# 
   207     039A                     	;# 
   208     039C                     	;# 
   209     039D                     	;# 
   210     039E                     	;# 
   211     039F                     	;# 
   212     0415                     	;# 
   213     0416                     	;# 
   214     0417                     	;# 
   215     041C                     	;# 
   216     041D                     	;# 
   217     041E                     	;# 
   218     0FE4                     	;# 
   219     0FE5                     	;# 
   220     0FE6                     	;# 
   221     0FE7                     	;# 
   222     0FE8                     	;# 
   223     0FE9                     	;# 
   224     0FEA                     	;# 
   225     0FEB                     	;# 
   226     0FED                     	;# 
   227     0FEE                     	;# 
   228     0FEF                     	;# 
   229     0000                     	;# 
   230     0001                     	;# 
   231     0002                     	;# 
   232     0003                     	;# 
   233     0004                     	;# 
   234     0005                     	;# 
   235     0006                     	;# 
   236     0007                     	;# 
   237     0008                     	;# 
   238     0009                     	;# 
   239     000A                     	;# 
   240     000B                     	;# 
   241     000C                     	;# 
   242     000D                     	;# 
   243     0011                     	;# 
   244     0012                     	;# 
   245     0013                     	;# 
   246     0014                     	;# 
   247     0015                     	;# 
   248     0016                     	;# 
   249     0016                     	;# 
   250     0017                     	;# 
   251     0018                     	;# 
   252     0019                     	;# 
   253     001A                     	;# 
   254     001B                     	;# 
   255     001C                     	;# 
   256     001E                     	;# 
   257     001F                     	;# 
   258     008C                     	;# 
   259     008D                     	;# 
   260     0091                     	;# 
   261     0092                     	;# 
   262     0093                     	;# 
   263     0094                     	;# 
   264     0095                     	;# 
   265     0096                     	;# 
   266     0097                     	;# 
   267     0098                     	;# 
   268     0099                     	;# 
   269     009A                     	;# 
   270     009B                     	;# 
   271     009B                     	;# 
   272     009C                     	;# 
   273     009D                     	;# 
   274     009E                     	;# 
   275     010C                     	;# 
   276     010D                     	;# 
   277     0111                     	;# 
   278     0112                     	;# 
   279     0113                     	;# 
   280     0114                     	;# 
   281     0115                     	;# 
   282     0116                     	;# 
   283     0117                     	;# 
   284     0118                     	;# 
   285     0119                     	;# 
   286     011A                     	;# 
   287     011B                     	;# 
   288     011D                     	;# 
   289     011E                     	;# 
   290     018C                     	;# 
   291     018D                     	;# 
   292     0191                     	;# 
   293     0191                     	;# 
   294     0192                     	;# 
   295     0193                     	;# 
   296     0193                     	;# 
   297     0193                     	;# 
   298     0194                     	;# 
   299     0195                     	;# 
   300     0196                     	;# 
   301     0199                     	;# 
   302     019A                     	;# 
   303     019B                     	;# 
   304     019B                     	;# 
   305     019B                     	;# 
   306     019B                     	;# 
   307     019C                     	;# 
   308     019C                     	;# 
   309     019D                     	;# 
   310     019E                     	;# 
   311     019F                     	;# 
   312     020C                     	;# 
   313     020D                     	;# 
   314     0211                     	;# 
   315     0211                     	;# 
   316     0212                     	;# 
   317     0212                     	;# 
   318     0213                     	;# 
   319     0213                     	;# 
   320     0214                     	;# 
   321     0214                     	;# 
   322     0215                     	;# 
   323     0215                     	;# 
   324     0215                     	;# 
   325     0216                     	;# 
   326     0216                     	;# 
   327     0217                     	;# 
   328     0217                     	;# 
   329     0219                     	;# 
   330     021A                     	;# 
   331     021B                     	;# 
   332     021C                     	;# 
   333     021D                     	;# 
   334     021E                     	;# 
   335     021F                     	;# 
   336     0291                     	;# 
   337     0291                     	;# 
   338     0292                     	;# 
   339     0293                     	;# 
   340     0294                     	;# 
   341     0295                     	;# 
   342     0295                     	;# 
   343     0296                     	;# 
   344     0298                     	;# 
   345     0298                     	;# 
   346     0299                     	;# 
   347     029A                     	;# 
   348     029B                     	;# 
   349     029C                     	;# 
   350     029C                     	;# 
   351     029D                     	;# 
   352     029E                     	;# 
   353     029E                     	;# 
   354     0311                     	;# 
   355     0311                     	;# 
   356     0312                     	;# 
   357     0313                     	;# 
   358     0318                     	;# 
   359     0318                     	;# 
   360     0319                     	;# 
   361     031A                     	;# 
   362     0394                     	;# 
   363     0395                     	;# 
   364     0396                     	;# 
   365     039A                     	;# 
   366     039C                     	;# 
   367     039D                     	;# 
   368     039E                     	;# 
   369     039F                     	;# 
   370     0415                     	;# 
   371     0416                     	;# 
   372     0417                     	;# 
   373     041C                     	;# 
   374     041D                     	;# 
   375     041E                     	;# 
   376     0FE4                     	;# 
   377     0FE5                     	;# 
   378     0FE6                     	;# 
   379     0FE7                     	;# 
   380     0FE8                     	;# 
   381     0FE9                     	;# 
   382     0FEA                     	;# 
   383     0FEB                     	;# 
   384     0FED                     	;# 
   385     0FEE                     	;# 
   386     0FEF                     	;# 
   387     0000                     	;# 
   388     0001                     	;# 
   389     0002                     	;# 
   390     0003                     	;# 
   391     0004                     	;# 
   392     0005                     	;# 
   393     0006                     	;# 
   394     0007                     	;# 
   395     0008                     	;# 
   396     0009                     	;# 
   397     000A                     	;# 
   398     000B                     	;# 
   399     000C                     	;# 
   400     000D                     	;# 
   401     0011                     	;# 
   402     0012                     	;# 
   403     0013                     	;# 
   404     0014                     	;# 
   405     0015                     	;# 
   406     0016                     	;# 
   407     0016                     	;# 
   408     0017                     	;# 
   409     0018                     	;# 
   410     0019                     	;# 
   411     001A                     	;# 
   412     001B                     	;# 
   413     001C                     	;# 
   414     001E                     	;# 
   415     001F                     	;# 
   416     008C                     	;# 
   417     008D                     	;# 
   418     0091                     	;# 
   419     0092                     	;# 
   420     0093                     	;# 
   421     0094                     	;# 
   422     0095                     	;# 
   423     0096                     	;# 
   424     0097                     	;# 
   425     0098                     	;# 
   426     0099                     	;# 
   427     009A                     	;# 
   428     009B                     	;# 
   429     009B                     	;# 
   430     009C                     	;# 
   431     009D                     	;# 
   432     009E                     	;# 
   433     010C                     	;# 
   434     010D                     	;# 
   435     0111                     	;# 
   436     0112                     	;# 
   437     0113                     	;# 
   438     0114                     	;# 
   439     0115                     	;# 
   440     0116                     	;# 
   441     0117                     	;# 
   442     0118                     	;# 
   443     0119                     	;# 
   444     011A                     	;# 
   445     011B                     	;# 
   446     011D                     	;# 
   447     011E                     	;# 
   448     018C                     	;# 
   449     018D                     	;# 
   450     0191                     	;# 
   451     0191                     	;# 
   452     0192                     	;# 
   453     0193                     	;# 
   454     0193                     	;# 
   455     0193                     	;# 
   456     0194                     	;# 
   457     0195                     	;# 
   458     0196                     	;# 
   459     0199                     	;# 
   460     019A                     	;# 
   461     019B                     	;# 
   462     019B                     	;# 
   463     019B                     	;# 
   464     019B                     	;# 
   465     019C                     	;# 
   466     019C                     	;# 
   467     019D                     	;# 
   468     019E                     	;# 
   469     019F                     	;# 
   470     020C                     	;# 
   471     020D                     	;# 
   472     0211                     	;# 
   473     0211                     	;# 
   474     0212                     	;# 
   475     0212                     	;# 
   476     0213                     	;# 
   477     0213                     	;# 
   478     0214                     	;# 
   479     0214                     	;# 
   480     0215                     	;# 
   481     0215                     	;# 
   482     0215                     	;# 
   483     0216                     	;# 
   484     0216                     	;# 
   485     0217                     	;# 
   486     0217                     	;# 
   487     0219                     	;# 
   488     021A                     	;# 
   489     021B                     	;# 
   490     021C                     	;# 
   491     021D                     	;# 
   492     021E                     	;# 
   493     021F                     	;# 
   494     0291                     	;# 
   495     0291                     	;# 
   496     0292                     	;# 
   497     0293                     	;# 
   498     0294                     	;# 
   499     0295                     	;# 
   500     0295                     	;# 
   501     0296                     	;# 
   502     0298                     	;# 
   503     0298                     	;# 
   504     0299                     	;# 
   505     029A                     	;# 
   506     029B                     	;# 
   507     029C                     	;# 
   508     029C                     	;# 
   509     029D                     	;# 
   510     029E                     	;# 
   511     029E                     	;# 
   512     0311                     	;# 
   513     0311                     	;# 
   514     0312                     	;# 
   515     0313                     	;# 
   516     0318                     	;# 
   517     0318                     	;# 
   518     0319                     	;# 
   519     031A                     	;# 
   520     0394                     	;# 
   521     0395                     	;# 
   522     0396                     	;# 
   523     039A                     	;# 
   524     039C                     	;# 
   525     039D                     	;# 
   526     039E                     	;# 
   527     039F                     	;# 
   528     0415                     	;# 
   529     0416                     	;# 
   530     0417                     	;# 
   531     041C                     	;# 
   532     041D                     	;# 
   533     041E                     	;# 
   534     0FE4                     	;# 
   535     0FE5                     	;# 
   536     0FE6                     	;# 
   537     0FE7                     	;# 
   538     0FE8                     	;# 
   539     0FE9                     	;# 
   540     0FEA                     	;# 
   541     0FEB                     	;# 
   542     0FED                     	;# 
   543     0FEE                     	;# 
   544     0FEF                     	;# 
   545     0000                     	;# 
   546     0001                     	;# 
   547     0002                     	;# 
   548     0003                     	;# 
   549     0004                     	;# 
   550     0005                     	;# 
   551     0006                     	;# 
   552     0007                     	;# 
   553     0008                     	;# 
   554     0009                     	;# 
   555     000A                     	;# 
   556     000B                     	;# 
   557     000C                     	;# 
   558     000D                     	;# 
   559     0011                     	;# 
   560     0012                     	;# 
   561     0013                     	;# 
   562     0014                     	;# 
   563     0015                     	;# 
   564     0016                     	;# 
   565     0016                     	;# 
   566     0017                     	;# 
   567     0018                     	;# 
   568     0019                     	;# 
   569     001A                     	;# 
   570     001B                     	;# 
   571     001C                     	;# 
   572     001E                     	;# 
   573     001F                     	;# 
   574     008C                     	;# 
   575     008D                     	;# 
   576     0091                     	;# 
   577     0092                     	;# 
   578     0093                     	;# 
   579     0094                     	;# 
   580     0095                     	;# 
   581     0096                     	;# 
   582     0097                     	;# 
   583     0098                     	;# 
   584     0099                     	;# 
   585     009A                     	;# 
   586     009B                     	;# 
   587     009B                     	;# 
   588     009C                     	;# 
   589     009D                     	;# 
   590     009E                     	;# 
   591     010C                     	;# 
   592     010D                     	;# 
   593     0111                     	;# 
   594     0112                     	;# 
   595     0113                     	;# 
   596     0114                     	;# 
   597     0115                     	;# 
   598     0116                     	;# 
   599     0117                     	;# 
   600     0118                     	;# 
   601     0119                     	;# 
   602     011A                     	;# 
   603     011B                     	;# 
   604     011D                     	;# 
   605     011E                     	;# 
   606     018C                     	;# 
   607     018D                     	;# 
   608     0191                     	;# 
   609     0191                     	;# 
   610     0192                     	;# 
   611     0193                     	;# 
   612     0193                     	;# 
   613     0193                     	;# 
   614     0194                     	;# 
   615     0195                     	;# 
   616     0196                     	;# 
   617     0199                     	;# 
   618     019A                     	;# 
   619     019B                     	;# 
   620     019B                     	;# 
   621     019B                     	;# 
   622     019B                     	;# 
   623     019C                     	;# 
   624     019C                     	;# 
   625     019D                     	;# 
   626     019E                     	;# 
   627     019F                     	;# 
   628     020C                     	;# 
   629     020D                     	;# 
   630     0211                     	;# 
   631     0211                     	;# 
   632     0212                     	;# 
   633     0212                     	;# 
   634     0213                     	;# 
   635     0213                     	;# 
   636     0214                     	;# 
   637     0214                     	;# 
   638     0215                     	;# 
   639     0215                     	;# 
   640     0215                     	;# 
   641     0216                     	;# 
   642     0216                     	;# 
   643     0217                     	;# 
   644     0217                     	;# 
   645     0219                     	;# 
   646     021A                     	;# 
   647     021B                     	;# 
   648     021C                     	;# 
   649     021D                     	;# 
   650     021E                     	;# 
   651     021F                     	;# 
   652     0291                     	;# 
   653     0291                     	;# 
   654     0292                     	;# 
   655     0293                     	;# 
   656     0294                     	;# 
   657     0295                     	;# 
   658     0295                     	;# 
   659     0296                     	;# 
   660     0298                     	;# 
   661     0298                     	;# 
   662     0299                     	;# 
   663     029A                     	;# 
   664     029B                     	;# 
   665     029C                     	;# 
   666     029C                     	;# 
   667     029D                     	;# 
   668     029E                     	;# 
   669     029E                     	;# 
   670     0311                     	;# 
   671     0311                     	;# 
   672     0312                     	;# 
   673     0313                     	;# 
   674     0318                     	;# 
   675     0318                     	;# 
   676     0319                     	;# 
   677     031A                     	;# 
   678     0394                     	;# 
   679     0395                     	;# 
   680     0396                     	;# 
   681     039A                     	;# 
   682     039C                     	;# 
   683     039D                     	;# 
   684     039E                     	;# 
   685     039F                     	;# 
   686     0415                     	;# 
   687     0416                     	;# 
   688     0417                     	;# 
   689     041C                     	;# 
   690     041D                     	;# 
   691     041E                     	;# 
   692     0FE4                     	;# 
   693     0FE5                     	;# 
   694     0FE6                     	;# 
   695     0FE7                     	;# 
   696     0FE8                     	;# 
   697     0FE9                     	;# 
   698     0FEA                     	;# 
   699     0FEB                     	;# 
   700     0FED                     	;# 
   701     0FEE                     	;# 
   702     0FEF                     	;# 
   703     0000                     	;# 
   704     0001                     	;# 
   705     0002                     	;# 
   706     0003                     	;# 
   707     0004                     	;# 
   708     0005                     	;# 
   709     0006                     	;# 
   710     0007                     	;# 
   711     0008                     	;# 
   712     0009                     	;# 
   713     000A                     	;# 
   714     000B                     	;# 
   715     000C                     	;# 
   716     000D                     	;# 
   717     0011                     	;# 
   718     0012                     	;# 
   719     0013                     	;# 
   720     0014                     	;# 
   721     0015                     	;# 
   722     0016                     	;# 
   723     0016                     	;# 
   724     0017                     	;# 
   725     0018                     	;# 
   726     0019                     	;# 
   727     001A                     	;# 
   728     001B                     	;# 
   729     001C                     	;# 
   730     001E                     	;# 
   731     001F                     	;# 
   732     008C                     	;# 
   733     008D                     	;# 
   734     0091                     	;# 
   735     0092                     	;# 
   736     0093                     	;# 
   737     0094                     	;# 
   738     0095                     	;# 
   739     0096                     	;# 
   740     0097                     	;# 
   741     0098                     	;# 
   742     0099                     	;# 
   743     009A                     	;# 
   744     009B                     	;# 
   745     009B                     	;# 
   746     009C                     	;# 
   747     009D                     	;# 
   748     009E                     	;# 
   749     010C                     	;# 
   750     010D                     	;# 
   751     0111                     	;# 
   752     0112                     	;# 
   753     0113                     	;# 
   754     0114                     	;# 
   755     0115                     	;# 
   756     0116                     	;# 
   757     0117                     	;# 
   758     0118                     	;# 
   759     0119                     	;# 
   760     011A                     	;# 
   761     011B                     	;# 
   762     011D                     	;# 
   763     011E                     	;# 
   764     018C                     	;# 
   765     018D                     	;# 
   766     0191                     	;# 
   767     0191                     	;# 
   768     0192                     	;# 
   769     0193                     	;# 
   770     0193                     	;# 
   771     0193                     	;# 
   772     0194                     	;# 
   773     0195                     	;# 
   774     0196                     	;# 
   775     0199                     	;# 
   776     019A                     	;# 
   777     019B                     	;# 
   778     019B                     	;# 
   779     019B                     	;# 
   780     019B                     	;# 
   781     019C                     	;# 
   782     019C                     	;# 
   783     019D                     	;# 
   784     019E                     	;# 
   785     019F                     	;# 
   786     020C                     	;# 
   787     020D                     	;# 
   788     0211                     	;# 
   789     0211                     	;# 
   790     0212                     	;# 
   791     0212                     	;# 
   792     0213                     	;# 
   793     0213                     	;# 
   794     0214                     	;# 
   795     0214                     	;# 
   796     0215                     	;# 
   797     0215                     	;# 
   798     0215                     	;# 
   799     0216                     	;# 
   800     0216                     	;# 
   801     0217                     	;# 
   802     0217                     	;# 
   803     0219                     	;# 
   804     021A                     	;# 
   805     021B                     	;# 
   806     021C                     	;# 
   807     021D                     	;# 
   808     021E                     	;# 
   809     021F                     	;# 
   810     0291                     	;# 
   811     0291                     	;# 
   812     0292                     	;# 
   813     0293                     	;# 
   814     0294                     	;# 
   815     0295                     	;# 
   816     0295                     	;# 
   817     0296                     	;# 
   818     0298                     	;# 
   819     0298                     	;# 
   820     0299                     	;# 
   821     029A                     	;# 
   822     029B                     	;# 
   823     029C                     	;# 
   824     029C                     	;# 
   825     029D                     	;# 
   826     029E                     	;# 
   827     029E                     	;# 
   828     0311                     	;# 
   829     0311                     	;# 
   830     0312                     	;# 
   831     0313                     	;# 
   832     0318                     	;# 
   833     0318                     	;# 
   834     0319                     	;# 
   835     031A                     	;# 
   836     0394                     	;# 
   837     0395                     	;# 
   838     0396                     	;# 
   839     039A                     	;# 
   840     039C                     	;# 
   841     039D                     	;# 
   842     039E                     	;# 
   843     039F                     	;# 
   844     0415                     	;# 
   845     0416                     	;# 
   846     0417                     	;# 
   847     041C                     	;# 
   848     041D                     	;# 
   849     041E                     	;# 
   850     0FE4                     	;# 
   851     0FE5                     	;# 
   852     0FE6                     	;# 
   853     0FE7                     	;# 
   854     0FE8                     	;# 
   855     0FE9                     	;# 
   856     0FEA                     	;# 
   857     0FEB                     	;# 
   858     0FED                     	;# 
   859     0FEE                     	;# 
   860     0FEF                     	;# 
   861     0000                     	;# 
   862     0001                     	;# 
   863     0002                     	;# 
   864     0003                     	;# 
   865     0004                     	;# 
   866     0005                     	;# 
   867     0006                     	;# 
   868     0007                     	;# 
   869     0008                     	;# 
   870     0009                     	;# 
   871     000A                     	;# 
   872     000B                     	;# 
   873     000C                     	;# 
   874     000D                     	;# 
   875     0011                     	;# 
   876     0012                     	;# 
   877     0013                     	;# 
   878     0014                     	;# 
   879     0015                     	;# 
   880     0016                     	;# 
   881     0016                     	;# 
   882     0017                     	;# 
   883     0018                     	;# 
   884     0019                     	;# 
   885     001A                     	;# 
   886     001B                     	;# 
   887     001C                     	;# 
   888     001E                     	;# 
   889     001F                     	;# 
   890     008C                     	;# 
   891     008D                     	;# 
   892     0091                     	;# 
   893     0092                     	;# 
   894     0093                     	;# 
   895     0094                     	;# 
   896     0095                     	;# 
   897     0096                     	;# 
   898     0097                     	;# 
   899     0098                     	;# 
   900     0099                     	;# 
   901     009A                     	;# 
   902     009B                     	;# 
   903     009B                     	;# 
   904     009C                     	;# 
   905     009D                     	;# 
   906     009E                     	;# 
   907     010C                     	;# 
   908     010D                     	;# 
   909     0111                     	;# 
   910     0112                     	;# 
   911     0113                     	;# 
   912     0114                     	;# 
   913     0115                     	;# 
   914     0116                     	;# 
   915     0117                     	;# 
   916     0118                     	;# 
   917     0119                     	;# 
   918     011A                     	;# 
   919     011B                     	;# 
   920     011D                     	;# 
   921     011E                     	;# 
   922     018C                     	;# 
   923     018D                     	;# 
   924     0191                     	;# 
   925     0191                     	;# 
   926     0192                     	;# 
   927     0193                     	;# 
   928     0193                     	;# 
   929     0193                     	;# 
   930     0194                     	;# 
   931     0195                     	;# 
   932     0196                     	;# 
   933     0199                     	;# 
   934     019A                     	;# 
   935     019B                     	;# 
   936     019B                     	;# 
   937     019B                     	;# 
   938     019B                     	;# 
   939     019C                     	;# 
   940     019C                     	;# 
   941     019D                     	;# 
   942     019E                     	;# 
   943     019F                     	;# 
   944     020C                     	;# 
   945     020D                     	;# 
   946     0211                     	;# 
   947     0211                     	;# 
   948     0212                     	;# 
   949     0212                     	;# 
   950     0213                     	;# 
   951     0213                     	;# 
   952     0214                     	;# 
   953     0214                     	;# 
   954     0215                     	;# 
   955     0215                     	;# 
   956     0215                     	;# 
   957     0216                     	;# 
   958     0216                     	;# 
   959     0217                     	;# 
   960     0217                     	;# 
   961     0219                     	;# 
   962     021A                     	;# 
   963     021B                     	;# 
   964     021C                     	;# 
   965     021D                     	;# 
   966     021E                     	;# 
   967     021F                     	;# 
   968     0291                     	;# 
   969     0291                     	;# 
   970     0292                     	;# 
   971     0293                     	;# 
   972     0294                     	;# 
   973     0295                     	;# 
   974     0295                     	;# 
   975     0296                     	;# 
   976     0298                     	;# 
   977     0298                     	;# 
   978     0299                     	;# 
   979     029A                     	;# 
   980     029B                     	;# 
   981     029C                     	;# 
   982     029C                     	;# 
   983     029D                     	;# 
   984     029E                     	;# 
   985     029E                     	;# 
   986     0311                     	;# 
   987     0311                     	;# 
   988     0312                     	;# 
   989     0313                     	;# 
   990     0318                     	;# 
   991     0318                     	;# 
   992     0319                     	;# 
   993     031A                     	;# 
   994     0394                     	;# 
   995     0395                     	;# 
   996     0396                     	;# 
   997     039A                     	;# 
   998     039C                     	;# 
   999     039D                     	;# 
  1000     039E                     	;# 
  1001     039F                     	;# 
  1002     0415                     	;# 
  1003     0416                     	;# 
  1004     0417                     	;# 
  1005     041C                     	;# 
  1006     041D                     	;# 
  1007     041E                     	;# 
  1008     0FE4                     	;# 
  1009     0FE5                     	;# 
  1010     0FE6                     	;# 
  1011     0FE7                     	;# 
  1012     0FE8                     	;# 
  1013     0FE9                     	;# 
  1014     0FEA                     	;# 
  1015     0FEB                     	;# 
  1016     0FED                     	;# 
  1017     0FEE                     	;# 
  1018     0FEF                     	;# 
  1019     0000                     	;# 
  1020     0001                     	;# 
  1021     0002                     	;# 
  1022     0003                     	;# 
  1023     0004                     	;# 
  1024     0005                     	;# 
  1025     0006                     	;# 
  1026     0007                     	;# 
  1027     0008                     	;# 
  1028     0009                     	;# 
  1029     000A                     	;# 
  1030     000B                     	;# 
  1031     000C                     	;# 
  1032     000D                     	;# 
  1033     0011                     	;# 
  1034     0012                     	;# 
  1035     0013                     	;# 
  1036     0014                     	;# 
  1037     0015                     	;# 
  1038     0016                     	;# 
  1039     0016                     	;# 
  1040     0017                     	;# 
  1041     0018                     	;# 
  1042     0019                     	;# 
  1043     001A                     	;# 
  1044     001B                     	;# 
  1045     001C                     	;# 
  1046     001E                     	;# 
  1047     001F                     	;# 
  1048     008C                     	;# 
  1049     008D                     	;# 
  1050     0091                     	;# 
  1051     0092                     	;# 
  1052     0093                     	;# 
  1053     0094                     	;# 
  1054     0095                     	;# 
  1055     0096                     	;# 
  1056     0097                     	;# 
  1057     0098                     	;# 
  1058     0099                     	;# 
  1059     009A                     	;# 
  1060     009B                     	;# 
  1061     009B                     	;# 
  1062     009C                     	;# 
  1063     009D                     	;# 
  1064     009E                     	;# 
  1065     010C                     	;# 
  1066     010D                     	;# 
  1067     0111                     	;# 
  1068     0112                     	;# 
  1069     0113                     	;# 
  1070     0114                     	;# 
  1071     0115                     	;# 
  1072     0116                     	;# 
  1073     0117                     	;# 
  1074     0118                     	;# 
  1075     0119                     	;# 
  1076     011A                     	;# 
  1077     011B                     	;# 
  1078     011D                     	;# 
  1079     011E                     	;# 
  1080     018C                     	;# 
  1081     018D                     	;# 
  1082     0191                     	;# 
  1083     0191                     	;# 
  1084     0192                     	;# 
  1085     0193                     	;# 
  1086     0193                     	;# 
  1087     0193                     	;# 
  1088     0194                     	;# 
  1089     0195                     	;# 
  1090     0196                     	;# 
  1091     0199                     	;# 
  1092     019A                     	;# 
  1093     019B                     	;# 
  1094     019B                     	;# 
  1095     019B                     	;# 
  1096     019B                     	;# 
  1097     019C                     	;# 
  1098     019C                     	;# 
  1099     019D                     	;# 
  1100     019E                     	;# 
  1101     019F                     	;# 
  1102     020C                     	;# 
  1103     020D                     	;# 
  1104     0211                     	;# 
  1105     0211                     	;# 
  1106     0212                     	;# 
  1107     0212                     	;# 
  1108     0213                     	;# 
  1109     0213                     	;# 
  1110     0214                     	;# 
  1111     0214                     	;# 
  1112     0215                     	;# 
  1113     0215                     	;# 
  1114     0215                     	;# 
  1115     0216                     	;# 
  1116     0216                     	;# 
  1117     0217                     	;# 
  1118     0217                     	;# 
  1119     0219                     	;# 
  1120     021A                     	;# 
  1121     021B                     	;# 
  1122     021C                     	;# 
  1123     021D                     	;# 
  1124     021E                     	;# 
  1125     021F                     	;# 
  1126     0291                     	;# 
  1127     0291                     	;# 
  1128     0292                     	;# 
  1129     0293                     	;# 
  1130     0294                     	;# 
  1131     0295                     	;# 
  1132     0295                     	;# 
  1133     0296                     	;# 
  1134     0298                     	;# 
  1135     0298                     	;# 
  1136     0299                     	;# 
  1137     029A                     	;# 
  1138     029B                     	;# 
  1139     029C                     	;# 
  1140     029C                     	;# 
  1141     029D                     	;# 
  1142     029E                     	;# 
  1143     029E                     	;# 
  1144     0311                     	;# 
  1145     0311                     	;# 
  1146     0312                     	;# 
  1147     0313                     	;# 
  1148     0318                     	;# 
  1149     0318                     	;# 
  1150     0319                     	;# 
  1151     031A                     	;# 
  1152     0394                     	;# 
  1153     0395                     	;# 
  1154     0396                     	;# 
  1155     039A                     	;# 
  1156     039C                     	;# 
  1157     039D                     	;# 
  1158     039E                     	;# 
  1159     039F                     	;# 
  1160     0415                     	;# 
  1161     0416                     	;# 
  1162     0417                     	;# 
  1163     041C                     	;# 
  1164     041D                     	;# 
  1165     041E                     	;# 
  1166     0FE4                     	;# 
  1167     0FE5                     	;# 
  1168     0FE6                     	;# 
  1169     0FE7                     	;# 
  1170     0FE8                     	;# 
  1171     0FE9                     	;# 
  1172     0FEA                     	;# 
  1173     0FEB                     	;# 
  1174     0FED                     	;# 
  1175     0FEE                     	;# 
  1176     0FEF                     	;# 
  1177     0000                     	;# 
  1178     0001                     	;# 
  1179     0002                     	;# 
  1180     0003                     	;# 
  1181     0004                     	;# 
  1182     0005                     	;# 
  1183     0006                     	;# 
  1184     0007                     	;# 
  1185     0008                     	;# 
  1186     0009                     	;# 
  1187     000A                     	;# 
  1188     000B                     	;# 
  1189     000C                     	;# 
  1190     000D                     	;# 
  1191     0011                     	;# 
  1192     0012                     	;# 
  1193     0013                     	;# 
  1194     0014                     	;# 
  1195     0015                     	;# 
  1196     0016                     	;# 
  1197     0016                     	;# 
  1198     0017                     	;# 
  1199     0018                     	;# 
  1200     0019                     	;# 
  1201     001A                     	;# 
  1202     001B                     	;# 
  1203     001C                     	;# 
  1204     001E                     	;# 
  1205     001F                     	;# 
  1206     008C                     	;# 
  1207     008D                     	;# 
  1208     0091                     	;# 
  1209     0092                     	;# 
  1210     0093                     	;# 
  1211     0094                     	;# 
  1212     0095                     	;# 
  1213     0096                     	;# 
  1214     0097                     	;# 
  1215     0098                     	;# 
  1216     0099                     	;# 
  1217     009A                     	;# 
  1218     009B                     	;# 
  1219     009B                     	;# 
  1220     009C                     	;# 
  1221     009D                     	;# 
  1222     009E                     	;# 
  1223     010C                     	;# 
  1224     010D                     	;# 
  1225     0111                     	;# 
  1226     0112                     	;# 
  1227     0113                     	;# 
  1228     0114                     	;# 
  1229     0115                     	;# 
  1230     0116                     	;# 
  1231     0117                     	;# 
  1232     0118                     	;# 
  1233     0119                     	;# 
  1234     011A                     	;# 
  1235     011B                     	;# 
  1236     011D                     	;# 
  1237     011E                     	;# 
  1238     018C                     	;# 
  1239     018D                     	;# 
  1240     0191                     	;# 
  1241     0191                     	;# 
  1242     0192                     	;# 
  1243     0193                     	;# 
  1244     0193                     	;# 
  1245     0193                     	;# 
  1246     0194                     	;# 
  1247     0195                     	;# 
  1248     0196                     	;# 
  1249     0199                     	;# 
  1250     019A                     	;# 
  1251     019B                     	;# 
  1252     019B                     	;# 
  1253     019B                     	;# 
  1254     019B                     	;# 
  1255     019C                     	;# 
  1256     019C                     	;# 
  1257     019D                     	;# 
  1258     019E                     	;# 
  1259     019F                     	;# 
  1260     020C                     	;# 
  1261     020D                     	;# 
  1262     0211                     	;# 
  1263     0211                     	;# 
  1264     0212                     	;# 
  1265     0212                     	;# 
  1266     0213                     	;# 
  1267     0213                     	;# 
  1268     0214                     	;# 
  1269     0214                     	;# 
  1270     0215                     	;# 
  1271     0215                     	;# 
  1272     0215                     	;# 
  1273     0216                     	;# 
  1274     0216                     	;# 
  1275     0217                     	;# 
  1276     0217                     	;# 
  1277     0219                     	;# 
  1278     021A                     	;# 
  1279     021B                     	;# 
  1280     021C                     	;# 
  1281     021D                     	;# 
  1282     021E                     	;# 
  1283     021F                     	;# 
  1284     0291                     	;# 
  1285     0291                     	;# 
  1286     0292                     	;# 
  1287     0293                     	;# 
  1288     0294                     	;# 
  1289     0295                     	;# 
  1290     0295                     	;# 
  1291     0296                     	;# 
  1292     0298                     	;# 
  1293     0298                     	;# 
  1294     0299                     	;# 
  1295     029A                     	;# 
  1296     029B                     	;# 
  1297     029C                     	;# 
  1298     029C                     	;# 
  1299     029D                     	;# 
  1300     029E                     	;# 
  1301     029E                     	;# 
  1302     0311                     	;# 
  1303     0311                     	;# 
  1304     0312                     	;# 
  1305     0313                     	;# 
  1306     0318                     	;# 
  1307     0318                     	;# 
  1308     0319                     	;# 
  1309     031A                     	;# 
  1310     0394                     	;# 
  1311     0395                     	;# 
  1312     0396                     	;# 
  1313     039A                     	;# 
  1314     039C                     	;# 
  1315     039D                     	;# 
  1316     039E                     	;# 
  1317     039F                     	;# 
  1318     0415                     	;# 
  1319     0416                     	;# 
  1320     0417                     	;# 
  1321     041C                     	;# 
  1322     041D                     	;# 
  1323     041E                     	;# 
  1324     0FE4                     	;# 
  1325     0FE5                     	;# 
  1326     0FE6                     	;# 
  1327     0FE7                     	;# 
  1328     0FE8                     	;# 
  1329     0FE9                     	;# 
  1330     0FEA                     	;# 
  1331     0FEB                     	;# 
  1332     0FED                     	;# 
  1333     0FEE                     	;# 
  1334     0FEF                     	;# 
  1335     0000                     	;# 
  1336     0001                     	;# 
  1337     0002                     	;# 
  1338     0003                     	;# 
  1339     0004                     	;# 
  1340     0005                     	;# 
  1341     0006                     	;# 
  1342     0007                     	;# 
  1343     0008                     	;# 
  1344     0009                     	;# 
  1345     000A                     	;# 
  1346     000B                     	;# 
  1347     000C                     	;# 
  1348     000D                     	;# 
  1349     0011                     	;# 
  1350     0012                     	;# 
  1351     0013                     	;# 
  1352     0014                     	;# 
  1353     0015                     	;# 
  1354     0016                     	;# 
  1355     0016                     	;# 
  1356     0017                     	;# 
  1357     0018                     	;# 
  1358     0019                     	;# 
  1359     001A                     	;# 
  1360     001B                     	;# 
  1361     001C                     	;# 
  1362     001E                     	;# 
  1363     001F                     	;# 
  1364     008C                     	;# 
  1365     008D                     	;# 
  1366     0091                     	;# 
  1367     0092                     	;# 
  1368     0093                     	;# 
  1369     0094                     	;# 
  1370     0095                     	;# 
  1371     0096                     	;# 
  1372     0097                     	;# 
  1373     0098                     	;# 
  1374     0099                     	;# 
  1375     009A                     	;# 
  1376     009B                     	;# 
  1377     009B                     	;# 
  1378     009C                     	;# 
  1379     009D                     	;# 
  1380     009E                     	;# 
  1381     010C                     	;# 
  1382     010D                     	;# 
  1383     0111                     	;# 
  1384     0112                     	;# 
  1385     0113                     	;# 
  1386     0114                     	;# 
  1387     0115                     	;# 
  1388     0116                     	;# 
  1389     0117                     	;# 
  1390     0118                     	;# 
  1391     0119                     	;# 
  1392     011A                     	;# 
  1393     011B                     	;# 
  1394     011D                     	;# 
  1395     011E                     	;# 
  1396     018C                     	;# 
  1397     018D                     	;# 
  1398     0191                     	;# 
  1399     0191                     	;# 
  1400     0192                     	;# 
  1401     0193                     	;# 
  1402     0193                     	;# 
  1403     0193                     	;# 
  1404     0194                     	;# 
  1405     0195                     	;# 
  1406     0196                     	;# 
  1407     0199                     	;# 
  1408     019A                     	;# 
  1409     019B                     	;# 
  1410     019B                     	;# 
  1411     019B                     	;# 
  1412     019B                     	;# 
  1413     019C                     	;# 
  1414     019C                     	;# 
  1415     019D                     	;# 
  1416     019E                     	;# 
  1417     019F                     	;# 
  1418     020C                     	;# 
  1419     020D                     	;# 
  1420     0211                     	;# 
  1421     0211                     	;# 
  1422     0212                     	;# 
  1423     0212                     	;# 
  1424     0213                     	;# 
  1425     0213                     	;# 
  1426     0214                     	;# 
  1427     0214                     	;# 
  1428     0215                     	;# 
  1429     0215                     	;# 
  1430     0215                     	;# 
  1431     0216                     	;# 
  1432     0216                     	;# 
  1433     0217                     	;# 
  1434     0217                     	;# 
  1435     0219                     	;# 
  1436     021A                     	;# 
  1437     021B                     	;# 
  1438     021C                     	;# 
  1439     021D                     	;# 
  1440     021E                     	;# 
  1441     021F                     	;# 
  1442     0291                     	;# 
  1443     0291                     	;# 
  1444     0292                     	;# 
  1445     0293                     	;# 
  1446     0294                     	;# 
  1447     0295                     	;# 
  1448     0295                     	;# 
  1449     0296                     	;# 
  1450     0298                     	;# 
  1451     0298                     	;# 
  1452     0299                     	;# 
  1453     029A                     	;# 
  1454     029B                     	;# 
  1455     029C                     	;# 
  1456     029C                     	;# 
  1457     029D                     	;# 
  1458     029E                     	;# 
  1459     029E                     	;# 
  1460     0311                     	;# 
  1461     0311                     	;# 
  1462     0312                     	;# 
  1463     0313                     	;# 
  1464     0318                     	;# 
  1465     0318                     	;# 
  1466     0319                     	;# 
  1467     031A                     	;# 
  1468     0394                     	;# 
  1469     0395                     	;# 
  1470     0396                     	;# 
  1471     039A                     	;# 
  1472     039C                     	;# 
  1473     039D                     	;# 
  1474     039E                     	;# 
  1475     039F                     	;# 
  1476     0415                     	;# 
  1477     0416                     	;# 
  1478     0417                     	;# 
  1479     041C                     	;# 
  1480     041D                     	;# 
  1481     041E                     	;# 
  1482     0FE4                     	;# 
  1483     0FE5                     	;# 
  1484     0FE6                     	;# 
  1485     0FE7                     	;# 
  1486     0FE8                     	;# 
  1487     0FE9                     	;# 
  1488     0FEA                     	;# 
  1489     0FEB                     	;# 
  1490     0FED                     	;# 
  1491     0FEE                     	;# 
  1492     0FEF                     	;# 
  1493                           
  1494                           	psect	idataBANK0
  1495     0723                     __pidataBANK0:
  1496                           
  1497                           ;initializer for _vmed
  1498     0723  3400               	retlw	0
  1499     0724  3400               	retlw	0
  1500     0725  3480               	retlw	128
  1501     0726  343F               	retlw	63
  1502                           
  1503                           ;initializer for _vmax
  1504     0727  3401               	retlw	1
  1505     0728  3400               	retlw	0
  1506                           
  1507                           	psect	nvBANK0
  1508     0056                     __pnvBANK0:
  1509     0056                     _ADCv:
  1510     0056                     	ds	2
  1511     0058                     _TMR1_InterruptHandler:
  1512     0058                     	ds	2
  1513     000B                     _INTCONbits	set	11
  1514     0019                     _T1GCONbits	set	25
  1515     0018                     _T1CONbits	set	24
  1516     0018                     _T1CON	set	24
  1517     0016                     _TMR1L	set	22
  1518     0017                     _TMR1H	set	23
  1519     0019                     _T1GCON	set	25
  1520     001C                     _T2CONbits	set	28
  1521     001C                     _T2CON	set	28
  1522     0011                     _PIR1bits	set	17
  1523     001A                     _TMR2	set	26
  1524     001B                     _PR2	set	27
  1525     0091                     _PIE1bits	set	145
  1526     0097                     _WDTCON	set	151
  1527     0098                     _OSCTUNE	set	152
  1528     0099                     _OSCCON	set	153
  1529     0095                     _OPTION_REGbits	set	149
  1530     008D                     _TRISB	set	141
  1531     008C                     _TRISA	set	140
  1532     009D                     _ADCON0bits	set	157
  1533     009D                     _ADCON0	set	157
  1534     009C                     _ADRESH	set	156
  1535     009B                     _ADRESL	set	155
  1536     009E                     _ADCON1	set	158
  1537     0116                     _BORCON	set	278
  1538     011E                     _APFCON1	set	286
  1539     011D                     _APFCON0	set	285
  1540     010D                     _LATB	set	269
  1541     010C                     _LATA	set	268
  1542     018C                     _ANSELA	set	396
  1543     018D                     _ANSELB	set	397
  1544     020C                     _WPUA	set	524
  1545     020D                     _WPUB	set	525
  1546     029E                     _CCPTMRS0bits	set	670
  1547     0298                     _CCPR2L	set	664
  1548     0299                     _CCPR2H	set	665
  1549     029D                     _PSTR2CON	set	669
  1550     029B                     _PWM2CON	set	667
  1551     029C                     _ECCP2AS	set	668
  1552     029A                     _CCP2CON	set	666
  1553                           
  1554                           	psect	cinit
  1555     001B                     start_initialization:	
  1556                           ; #config settings
  1557                           
  1558     001B                     __initialization:
  1559                           
  1560                           ; Initialize objects allocated to BANK0
  1561     001B  3023               	movlw	low __pidataBANK0
  1562     001C  0084               	movwf	4
  1563     001D  3087               	movlw	(high __pidataBANK0)| (0+128)
  1564     001E  0085               	movwf	5
  1565     001F  0012               	moviw fsr0++
  1566     0020  00D0               	movwf	__pdataBANK0& (0+127)
  1567     0021  0012               	moviw fsr0++
  1568     0022  00D1               	movwf	(__pdataBANK0+1)& (0+127)
  1569     0023  0012               	moviw fsr0++
  1570     0024  00D2               	movwf	(__pdataBANK0+2)& (0+127)
  1571     0025  0012               	moviw fsr0++
  1572     0026  00D3               	movwf	(__pdataBANK0+3)& (0+127)
  1573     0027  0012               	moviw fsr0++
  1574     0028  00D4               	movwf	(__pdataBANK0+4)& (0+127)
  1575     0029  0012               	moviw fsr0++
  1576     002A  00D5               	movwf	(__pdataBANK0+5)& (0+127)
  1577                           
  1578                           ; Clear objects allocated to COMMON
  1579     002B  01FA               	clrf	__pbssCOMMON& (0+127)
  1580     002C  01FB               	clrf	(__pbssCOMMON+1)& (0+127)
  1581                           
  1582                           ; Clear objects allocated to BANK0
  1583     002D  01CA               	clrf	__pbssBANK0& (0+127)
  1584     002E  01CB               	clrf	(__pbssBANK0+1)& (0+127)
  1585     002F  01CC               	clrf	(__pbssBANK0+2)& (0+127)
  1586     0030  01CD               	clrf	(__pbssBANK0+3)& (0+127)
  1587     0031  01CE               	clrf	(__pbssBANK0+4)& (0+127)
  1588     0032  01CF               	clrf	(__pbssBANK0+5)& (0+127)
  1589     0033                     end_of_initialization:	
  1590                           ;End of C runtime variable initialization code
  1591                           
  1592     0033                     __end_of__initialization:
  1593     0033  107E               	bcf	int$flags,0	;clear compiler interrupt flag (level 1)
  1594     0034  0020               	movlb	0
  1595     0035  3184  2CC7         	ljmp	_main	;jump to C main() function
  1596                           
  1597                           	psect	bssCOMMON
  1598     007A                     __pbssCOMMON:
  1599     007A                     _ADCvp:
  1600     007A                     	ds	2
  1601                           
  1602                           	psect	bssBANK0
  1603     004A                     __pbssBANK0:
  1604     004A                     _PWMv:
  1605     004A                     	ds	2
  1606     004C                     _timer1ReloadVal:
  1607     004C                     	ds	2
  1608     004E                     _ADC_InterruptHandler:
  1609     004E                     	ds	2
  1610                           
  1611                           	psect	dataBANK0
  1612     0050                     __pdataBANK0:
  1613     0050                     _vmed:
  1614     0050                     	ds	4
  1615     0054                     _vmax:
  1616     0054                     	ds	2
  1617                           
  1618                           	psect	cstackCOMMON
  1619     0070                     __pcstackCOMMON:
  1620     0070                     ?_OSCILLATOR_Initialize:
  1621     0070                     ?_WDT_Initialize:	
  1622                           ; 1 bytes @ 0x0
  1623                           
  1624     0070                     ?_TMR1_Initialize:	
  1625                           ; 1 bytes @ 0x0
  1626                           
  1627     0070                     ?_TMR1_DefaultInterruptHandler:	
  1628                           ; 1 bytes @ 0x0
  1629                           
  1630     0070                     ??_TMR1_DefaultInterruptHandler:	
  1631                           ; 1 bytes @ 0x0
  1632                           
  1633     0070                     ?_EPWM2_Initialize:	
  1634                           ; 1 bytes @ 0x0
  1635                           
  1636     0070                     ?_ADC_Initialize:	
  1637                           ; 1 bytes @ 0x0
  1638                           
  1639     0070                     ?_PIN_MANAGER_Initialize:	
  1640                           ; 1 bytes @ 0x0
  1641                           
  1642     0070                     ?_TMR2_Initialize:	
  1643                           ; 1 bytes @ 0x0
  1644                           
  1645     0070                     ?_SYSTEM_Initialize:	
  1646                           ; 1 bytes @ 0x0
  1647                           
  1648     0070                     ?_TMR1_WriteTimer:	
  1649                           ; 1 bytes @ 0x0
  1650                           
  1651     0070                     ?_TMR1_ISR:	
  1652                           ; 1 bytes @ 0x0
  1653                           
  1654     0070                     ?_INTERRUPT_InterruptManager:	
  1655                           ; 1 bytes @ 0x0
  1656                           
  1657     0070                     ?_PWMs:	
  1658                           ; 1 bytes @ 0x0
  1659                           
  1660     0070                     ??_PWMs:	
  1661                           ; 1 bytes @ 0x0
  1662                           
  1663     0070                     ?_main:	
  1664                           ; 1 bytes @ 0x0
  1665                           
  1666     0070                     TMR1_WriteTimer@timerVal:	
  1667                           ; 1 bytes @ 0x0
  1668                           
  1669                           
  1670                           ; 2 bytes @ 0x0
  1671     0070                     	ds	2
  1672     0072                     ??_OSCILLATOR_Initialize:
  1673     0072                     ??_WDT_Initialize:	
  1674                           ; 1 bytes @ 0x2
  1675                           
  1676     0072                     ?_TMR1_SetInterruptHandler:	
  1677                           ; 1 bytes @ 0x2
  1678                           
  1679     0072                     ??_EPWM2_Initialize:	
  1680                           ; 1 bytes @ 0x2
  1681                           
  1682     0072                     ?_EPWM2_LoadDutyValue:	
  1683                           ; 1 bytes @ 0x2
  1684                           
  1685     0072                     ??_ADC_Initialize:	
  1686                           ; 1 bytes @ 0x2
  1687                           
  1688     0072                     ??_PIN_MANAGER_Initialize:	
  1689                           ; 1 bytes @ 0x2
  1690                           
  1691     0072                     ??_TMR2_Initialize:	
  1692                           ; 1 bytes @ 0x2
  1693                           
  1694     0072                     ??_TMR1_WriteTimer:	
  1695                           ; 1 bytes @ 0x2
  1696                           
  1697     0072                     ??_TMR1_ISR:	
  1698                           ; 1 bytes @ 0x2
  1699                           
  1700     0072                     ??_INTERRUPT_InterruptManager:	
  1701                           ; 1 bytes @ 0x2
  1702                           
  1703     0072                     ?__Umul8_16:	
  1704                           ; 1 bytes @ 0x2
  1705                           
  1706     0072                     ?_ADC_GetConversion:	
  1707                           ; 2 bytes @ 0x2
  1708                           
  1709     0072                     ?___xxtofl:	
  1710                           ; 2 bytes @ 0x2
  1711                           
  1712     0072                     __Umul8_16@multiplicand:	
  1713                           ; 4 bytes @ 0x2
  1714                           
  1715     0072                     EPWM2_LoadDutyValue@dutyValue:	
  1716                           ; 1 bytes @ 0x2
  1717                           
  1718     0072                     TMR1_SetInterruptHandler@InterruptHandler:	
  1719                           ; 2 bytes @ 0x2
  1720                           
  1721     0072                     ___xxtofl@val:	
  1722                           ; 2 bytes @ 0x2
  1723                           
  1724                           
  1725                           ; 4 bytes @ 0x2
  1726     0072                     	ds	2
  1727     0074                     ??_TMR1_Initialize:
  1728     0074                     ??_TMR1_SetInterruptHandler:	
  1729                           ; 1 bytes @ 0x4
  1730                           
  1731     0074                     ??__Umul8_16:	
  1732                           ; 1 bytes @ 0x4
  1733                           
  1734     0074                     ??_EPWM2_LoadDutyValue:	
  1735                           ; 1 bytes @ 0x4
  1736                           
  1737     0074                     ??_ADC_GetConversion:	
  1738                           ; 1 bytes @ 0x4
  1739                           
  1740     0074                     ??_SYSTEM_Initialize:	
  1741                           ; 1 bytes @ 0x4
  1742                           
  1743                           
  1744                           ; 1 bytes @ 0x4
  1745     0074                     	ds	1
  1746     0075                     ADC_GetConversion@channel:
  1747                           
  1748                           ; 1 bytes @ 0x5
  1749     0075                     	ds	1
  1750     0076                     ??___xxtofl:
  1751                           
  1752                           ; 1 bytes @ 0x6
  1753     0076                     	ds	4
  1754     007A                     ??_main:
  1755                           
  1756                           	psect	cstackBANK0
  1757     0020                     __pcstackBANK0:	
  1758                           ; 1 bytes @ 0xA
  1759                           
  1760     0020                     ___xxtofl@sign:
  1761     0020                     __Umul8_16@product:	
  1762                           ; 1 bytes @ 0x0
  1763                           
  1764                           
  1765                           ; 2 bytes @ 0x0
  1766     0020                     	ds	1
  1767     0021                     ___xxtofl@exp:
  1768                           
  1769                           ; 1 bytes @ 0x1
  1770     0021                     	ds	1
  1771     0022                     __Umul8_16@word_mpld:
  1772     0022                     ___xxtofl@arg:	
  1773                           ; 2 bytes @ 0x2
  1774                           
  1775                           
  1776                           ; 4 bytes @ 0x2
  1777     0022                     	ds	2
  1778     0024                     __Umul8_16@multiplier:
  1779                           
  1780                           ; 1 bytes @ 0x4
  1781     0024                     	ds	2
  1782     0026                     ?___fldiv:
  1783     0026                     ?___flmul:	
  1784                           ; 4 bytes @ 0x6
  1785                           
  1786     0026                     ___fldiv@a:	
  1787                           ; 4 bytes @ 0x6
  1788                           
  1789     0026                     ___flmul@b:	
  1790                           ; 4 bytes @ 0x6
  1791                           
  1792                           
  1793                           ; 4 bytes @ 0x6
  1794     0026                     	ds	4
  1795     002A                     ___fldiv@b:
  1796     002A                     ___flmul@a:	
  1797                           ; 4 bytes @ 0xA
  1798                           
  1799                           
  1800                           ; 4 bytes @ 0xA
  1801     002A                     	ds	4
  1802     002E                     ??___fldiv:
  1803     002E                     ??___flmul:	
  1804                           ; 1 bytes @ 0xE
  1805                           
  1806                           
  1807                           ; 1 bytes @ 0xE
  1808     002E                     	ds	5
  1809     0033                     ___flmul@sign:
  1810     0033                     ___fldiv@rem:	
  1811                           ; 1 bytes @ 0x13
  1812                           
  1813                           
  1814                           ; 4 bytes @ 0x13
  1815     0033                     	ds	1
  1816     0034                     ___flmul@aexp:
  1817                           
  1818                           ; 1 bytes @ 0x14
  1819     0034                     	ds	1
  1820     0035                     ___flmul@grs:
  1821                           
  1822                           ; 4 bytes @ 0x15
  1823     0035                     	ds	2
  1824     0037                     ___fldiv@sign:
  1825                           
  1826                           ; 1 bytes @ 0x17
  1827     0037                     	ds	1
  1828     0038                     ___fldiv@new_exp:
  1829                           
  1830                           ; 2 bytes @ 0x18
  1831     0038                     	ds	1
  1832     0039                     ___flmul@bexp:
  1833                           
  1834                           ; 1 bytes @ 0x19
  1835     0039                     	ds	1
  1836     003A                     ___fldiv@grs:
  1837     003A                     ___flmul@prod:	
  1838                           ; 4 bytes @ 0x1A
  1839                           
  1840                           
  1841                           ; 4 bytes @ 0x1A
  1842     003A                     	ds	4
  1843     003E                     ___fldiv@bexp:
  1844     003E                     ___flmul@temp:	
  1845                           ; 1 bytes @ 0x1E
  1846                           
  1847                           
  1848                           ; 2 bytes @ 0x1E
  1849     003E                     	ds	1
  1850     003F                     ___fldiv@aexp:
  1851                           
  1852                           ; 1 bytes @ 0x1F
  1853     003F                     	ds	1
  1854     0040                     ?___fltol:
  1855     0040                     ___fltol@f1:	
  1856                           ; 4 bytes @ 0x20
  1857                           
  1858                           
  1859                           ; 4 bytes @ 0x20
  1860     0040                     	ds	4
  1861     0044                     ??___fltol:
  1862                           
  1863                           ; 1 bytes @ 0x24
  1864     0044                     	ds	4
  1865     0048                     ___fltol@sign1:
  1866                           
  1867                           ; 1 bytes @ 0x28
  1868     0048                     	ds	1
  1869     0049                     ___fltol@exp1:
  1870                           
  1871                           ; 1 bytes @ 0x29
  1872     0049                     	ds	1
  1873                           
  1874                           	psect	maintext
  1875     04C7                     __pmaintext:	
  1876 ;;
  1877 ;;Main: autosize = 0, tempsize = 0, incstack = 0, save=0
  1878 ;;
  1879 ;; *************** function _main *****************
  1880 ;; Defined at:
  1881 ;;		line 34 in file "main.c"
  1882 ;; Parameters:    Size  Location     Type
  1883 ;;		None
  1884 ;; Auto vars:     Size  Location     Type
  1885 ;;		None
  1886 ;; Return value:  Size  Location     Type
  1887 ;;                  1    wreg      void 
  1888 ;; Registers used:
  1889 ;;		wreg, status,2, status,0, pclath, cstack
  1890 ;; Tracked objects:
  1891 ;;		On entry : B1F/0
  1892 ;;		On exit  : 0/0
  1893 ;;		Unchanged: 0/0
  1894 ;; Data sizes:     COMMON   BANK0   BANK1   BANK2   BANK3   BANK4
  1895 ;;      Params:         0       0       0       0       0       0
  1896 ;;      Locals:         0       0       0       0       0       0
  1897 ;;      Temps:          0       0       0       0       0       0
  1898 ;;      Totals:         0       0       0       0       0       0
  1899 ;;Total ram usage:        0 bytes
  1900 ;; Hardware stack levels required when called: 6
  1901 ;; This function calls:
  1902 ;;		_ADC_GetConversion
  1903 ;;		_EPWM2_LoadDutyValue
  1904 ;;		_SYSTEM_Initialize
  1905 ;;		_TMR1_SetInterruptHandler
  1906 ;;		___fldiv
  1907 ;;		___flmul
  1908 ;;		___fltol
  1909 ;;		___xxtofl
  1910 ;; This function is called by:
  1911 ;;		Startup code after reset
  1912 ;; This function uses a non-reentrant model
  1913 ;;
  1914                           
  1915     04C7                     _main:	
  1916                           ;psect for function _main
  1917                           
  1918     04C7                     l2139:	
  1919                           ;incstack = 0
  1920                           ; Regs used in _main: [wreg+status,2+status,0+pclath+cstack]
  1921                           
  1922                           
  1923                           ;main.c: 37:     SYSTEM_Initialize();
  1924     04C7  3186  26C1  3184   	fcall	_SYSTEM_Initialize
  1925     04CA                     l2141:
  1926                           
  1927                           ;main.c: 43:     (INTCONbits.GIE = 1);
  1928     04CA  178B               	bsf	11,7	;volatile
  1929     04CB                     l2143:
  1930                           
  1931                           ;main.c: 46:     (INTCONbits.PEIE = 1);
  1932     04CB  170B               	bsf	11,6	;volatile
  1933                           
  1934                           ;main.c: 54:     TMR1_SetInterruptHandler(PWMs);
  1935     04CC  304A               	movlw	low _PWMs
  1936     04CD  00F2               	movwf	TMR1_SetInterruptHandler@InterruptHandler
  1937     04CE  3005               	movlw	high _PWMs
  1938     04CF  00F3               	movwf	TMR1_SetInterruptHandler@InterruptHandler+1
  1939     04D0  3187  2729  3184   	fcall	_TMR1_SetInterruptHandler
  1940     04D3                     l265:	
  1941                           ;main.c: 55:     while (1)
  1942                           
  1943                           
  1944                           ;main.c: 56:     {;main.c: 57:         ADCv = ADC_GetConversion(1);
  1945     04D3  3001               	movlw	1
  1946     04D4  3186  2660  3184   	fcall	_ADC_GetConversion
  1947     04D7  0873               	movf	?_ADC_GetConversion+1,w
  1948     04D8  0020               	movlb	0	; select bank0
  1949     04D9  00D7               	movwf	_ADCv+1
  1950     04DA  0872               	movf	?_ADC_GetConversion,w
  1951     04DB  00D6               	movwf	_ADCv
  1952     04DC                     l2145:
  1953                           
  1954                           ;main.c: 59:         if(ADCv > vmax){
  1955     04DC  0857               	movf	_ADCv+1,w
  1956     04DD  0255               	subwf	_vmax+1,w
  1957     04DE  1D03               	skipz
  1958     04DF  2CE2               	goto	u2275
  1959     04E0  0856               	movf	_ADCv,w
  1960     04E1  0254               	subwf	_vmax,w
  1961     04E2                     u2275:
  1962     04E2  1803               	skipnc
  1963     04E3  2CE5               	goto	u2271
  1964     04E4  2CE6               	goto	u2270
  1965     04E5                     u2271:
  1966     04E5  2D11               	goto	l2151
  1967     04E6                     u2270:
  1968     04E6                     l2147:
  1969                           
  1970                           ;main.c: 60:             vmax = ADCv;
  1971     04E6  0857               	movf	_ADCv+1,w
  1972     04E7  00D5               	movwf	_vmax+1
  1973     04E8  0856               	movf	_ADCv,w
  1974     04E9  00D4               	movwf	_vmax
  1975     04EA                     l2149:
  1976                           
  1977                           ;main.c: 61:             vmed = (float) 1023/vmax;}
  1978     04EA  0854               	movf	_vmax,w
  1979     04EB  00F2               	movwf	___xxtofl@val
  1980     04EC  0855               	movf	_vmax+1,w
  1981     04ED  00F3               	movwf	___xxtofl@val+1
  1982     04EE  01F4               	clrf	___xxtofl@val+2
  1983     04EF  01F5               	clrf	___xxtofl@val+3
  1984     04F0  3000               	movlw	0
  1985     04F1  3184  241C  3184   	fcall	___xxtofl
  1986     04F4  0875               	movf	?___xxtofl+3,w
  1987     04F5  0020               	movlb	0	; select bank0
  1988     04F6  00A9               	movwf	___fldiv@a+3
  1989     04F7  0874               	movf	?___xxtofl+2,w
  1990     04F8  00A8               	movwf	___fldiv@a+2
  1991     04F9  0873               	movf	?___xxtofl+1,w
  1992     04FA  00A7               	movwf	___fldiv@a+1
  1993     04FB  0872               	movf	?___xxtofl,w
  1994     04FC  00A6               	movwf	___fldiv@a
  1995     04FD  3044               	movlw	68
  1996     04FE  00AD               	movwf	___fldiv@b+3
  1997     04FF  307F               	movlw	127
  1998     0500  00AC               	movwf	___fldiv@b+2
  1999     0501  30C0               	movlw	192
  2000     0502  00AB               	movwf	___fldiv@b+1
  2001     0503  3000               	movlw	0
  2002     0504  00AA               	movwf	___fldiv@b
  2003     0505  3182  2272  3184   	fcall	___fldiv
  2004     0508  0020               	movlb	0	; select bank0
  2005     0509  0829               	movf	?___fldiv+3,w
  2006     050A  00D3               	movwf	_vmed+3
  2007     050B  0828               	movf	?___fldiv+2,w
  2008     050C  00D2               	movwf	_vmed+2
  2009     050D  0827               	movf	?___fldiv+1,w
  2010     050E  00D1               	movwf	_vmed+1
  2011     050F  0826               	movf	?___fldiv,w
  2012     0510  00D0               	movwf	_vmed
  2013     0511                     l2151:
  2014                           
  2015                           ;main.c: 62:         ADCvp = (uint16_t) (vmed * ADCv);
  2016     0511  0856               	movf	_ADCv,w
  2017     0512  00F2               	movwf	___xxtofl@val
  2018     0513  0857               	movf	_ADCv+1,w
  2019     0514  00F3               	movwf	___xxtofl@val+1
  2020     0515  01F4               	clrf	___xxtofl@val+2
  2021     0516  01F5               	clrf	___xxtofl@val+3
  2022     0517  3000               	movlw	0
  2023     0518  3184  241C  3184   	fcall	___xxtofl
  2024     051B  0875               	movf	?___xxtofl+3,w
  2025     051C  0020               	movlb	0	; select bank0
  2026     051D  00AD               	movwf	___flmul@a+3
  2027     051E  0874               	movf	?___xxtofl+2,w
  2028     051F  00AC               	movwf	___flmul@a+2
  2029     0520  0873               	movf	?___xxtofl+1,w
  2030     0521  00AB               	movwf	___flmul@a+1
  2031     0522  0872               	movf	?___xxtofl,w
  2032     0523  00AA               	movwf	___flmul@a
  2033     0524  0853               	movf	_vmed+3,w
  2034     0525  00A9               	movwf	___flmul@b+3
  2035     0526  0852               	movf	_vmed+2,w
  2036     0527  00A8               	movwf	___flmul@b+2
  2037     0528  0851               	movf	_vmed+1,w
  2038     0529  00A7               	movwf	___flmul@b+1
  2039     052A  0850               	movf	_vmed,w
  2040     052B  00A6               	movwf	___flmul@b
  2041     052C  3180  2037  3184   	fcall	___flmul
  2042     052F  0020               	movlb	0	; select bank0
  2043     0530  0829               	movf	?___flmul+3,w
  2044     0531  00C3               	movwf	___fltol@f1+3
  2045     0532  0828               	movf	?___flmul+2,w
  2046     0533  00C2               	movwf	___fltol@f1+2
  2047     0534  0827               	movf	?___flmul+1,w
  2048     0535  00C1               	movwf	___fltol@f1+1
  2049     0536  0826               	movf	?___flmul,w
  2050     0537  00C0               	movwf	___fltol@f1
  2051     0538  3185  25CB  3184   	fcall	___fltol
  2052     053B  0020               	movlb	0	; select bank0
  2053     053C  0841               	movf	?___fltol+1,w
  2054     053D  00FB               	movwf	_ADCvp+1
  2055     053E  0840               	movf	?___fltol,w
  2056     053F  00FA               	movwf	_ADCvp
  2057     0540                     l2153:
  2058                           
  2059                           ;main.c: 63:         EPWM2_LoadDutyValue(PWMv);
  2060     0540  084B               	movf	_PWMv+1,w
  2061     0541  00F3               	movwf	EPWM2_LoadDutyValue@dutyValue+1
  2062     0542  084A               	movf	_PWMv,w
  2063     0543  00F2               	movwf	EPWM2_LoadDutyValue@dutyValue
  2064     0544  3186  26AA  3184   	fcall	_EPWM2_LoadDutyValue
  2065     0547  2CD3               	goto	l265
  2066     0548  3180  2819         	ljmp	start
  2067     054A                     __end_of_main:
  2068                           
  2069                           	psect	text1
  2070     041C                     __ptext1:	
  2071 ;; *************** function ___xxtofl *****************
  2072 ;; Defined at:
  2073 ;;		line 10 in file "C:\Program Files\Microchip\xc8\v2.46\pic\sources\c99\common\xxtofl.c"
  2074 ;; Parameters:    Size  Location     Type
  2075 ;;  sign            1    wreg     unsigned char 
  2076 ;;  val             4    2[COMMON] long 
  2077 ;; Auto vars:     Size  Location     Type
  2078 ;;  sign            1    0[BANK0 ] unsigned char 
  2079 ;;  arg             4    2[BANK0 ] unsigned long 
  2080 ;;  exp             1    1[BANK0 ] unsigned char 
  2081 ;; Return value:  Size  Location     Type
  2082 ;;                  4    2[COMMON] unsigned char 
  2083 ;; Registers used:
  2084 ;;		wreg, status,2, status,0
  2085 ;; Tracked objects:
  2086 ;;		On entry : 0/0
  2087 ;;		On exit  : 0/0
  2088 ;;		Unchanged: 0/0
  2089 ;; Data sizes:     COMMON   BANK0   BANK1   BANK2   BANK3   BANK4
  2090 ;;      Params:         4       0       0       0       0       0
  2091 ;;      Locals:         0       6       0       0       0       0
  2092 ;;      Temps:          4       0       0       0       0       0
  2093 ;;      Totals:         8       6       0       0       0       0
  2094 ;;Total ram usage:       14 bytes
  2095 ;; Hardware stack levels used: 1
  2096 ;; Hardware stack levels required when called: 3
  2097 ;; This function calls:
  2098 ;;		Nothing
  2099 ;; This function is called by:
  2100 ;;		_main
  2101 ;; This function uses a non-reentrant model
  2102 ;;
  2103                           
  2104     041C                     ___xxtofl:	
  2105                           ;psect for function ___xxtofl
  2106                           
  2107                           
  2108                           ;incstack = 0
  2109                           ; Regs used in ___xxtofl: [wreg+status,2+status,0]
  2110                           ;___xxtofl@sign stored from wreg
  2111     041C  0020               	movlb	0	; select bank0
  2112     041D  00A0               	movwf	___xxtofl@sign
  2113     041E                     l1915:
  2114     041E  0820               	movf	___xxtofl@sign,w
  2115     041F  1903               	btfsc	3,2
  2116     0420  2C22               	goto	u1801
  2117     0421  2C23               	goto	u1800
  2118     0422                     u1801:
  2119     0422  2C37               	goto	l1921
  2120     0423                     u1800:
  2121     0423                     l1917:
  2122     0423  1FF5               	btfss	___xxtofl@val+3,7
  2123     0424  2C26               	goto	u1811
  2124     0425  2C27               	goto	u1810
  2125     0426                     u1811:
  2126     0426  2C37               	goto	l1921
  2127     0427                     u1810:
  2128     0427                     l1919:
  2129     0427  0972               	comf	___xxtofl@val,w
  2130     0428  00A2               	movwf	___xxtofl@arg
  2131     0429  0973               	comf	___xxtofl@val+1,w
  2132     042A  00A3               	movwf	___xxtofl@arg+1
  2133     042B  0974               	comf	___xxtofl@val+2,w
  2134     042C  00A4               	movwf	___xxtofl@arg+2
  2135     042D  0975               	comf	___xxtofl@val+3,w
  2136     042E  00A5               	movwf	___xxtofl@arg+3
  2137     042F  0AA2               	incf	___xxtofl@arg,f
  2138     0430  1903               	skipnz
  2139     0431  0AA3               	incf	___xxtofl@arg+1,f
  2140     0432  1903               	skipnz
  2141     0433  0AA4               	incf	___xxtofl@arg+2,f
  2142     0434  1903               	skipnz
  2143     0435  0AA5               	incf	___xxtofl@arg+3,f
  2144     0436  2C3F               	goto	l860
  2145     0437                     l1921:
  2146     0437  0875               	movf	___xxtofl@val+3,w
  2147     0438  00A5               	movwf	___xxtofl@arg+3
  2148     0439  0874               	movf	___xxtofl@val+2,w
  2149     043A  00A4               	movwf	___xxtofl@arg+2
  2150     043B  0873               	movf	___xxtofl@val+1,w
  2151     043C  00A3               	movwf	___xxtofl@arg+1
  2152     043D  0872               	movf	___xxtofl@val,w
  2153     043E  00A2               	movwf	___xxtofl@arg
  2154     043F                     l860:
  2155     043F  0875               	movf	___xxtofl@val+3,w
  2156     0440  0474               	iorwf	___xxtofl@val+2,w
  2157     0441  0473               	iorwf	___xxtofl@val+1,w
  2158     0442  0472               	iorwf	___xxtofl@val,w
  2159     0443  1D03               	skipz
  2160     0444  2C46               	goto	u1821
  2161     0445  2C47               	goto	u1820
  2162     0446                     u1821:
  2163     0446  2C50               	goto	l1927
  2164     0447                     u1820:
  2165     0447                     l1923:
  2166     0447  3000               	movlw	0
  2167     0448  00F5               	movwf	?___xxtofl+3
  2168     0449  3000               	movlw	0
  2169     044A  00F4               	movwf	?___xxtofl+2
  2170     044B  3000               	movlw	0
  2171     044C  00F3               	movwf	?___xxtofl+1
  2172     044D  3000               	movlw	0
  2173     044E  00F2               	movwf	?___xxtofl
  2174     044F  2CC6               	goto	l862
  2175     0450                     l1927:
  2176     0450  3096               	movlw	150
  2177     0451  00A1               	movwf	___xxtofl@exp
  2178     0452  2C5E               	goto	l1931
  2179     0453                     l1929:
  2180     0453  3001               	movlw	1
  2181     0454  00F6               	movwf	??___xxtofl
  2182     0455  0876               	movf	??___xxtofl,w
  2183     0456  07A1               	addwf	___xxtofl@exp,f
  2184     0457  3001               	movlw	1
  2185     0458                     u1835:
  2186     0458  36A5               	lsrf	___xxtofl@arg+3,f
  2187     0459  0CA4               	rrf	___xxtofl@arg+2,f
  2188     045A  0CA3               	rrf	___xxtofl@arg+1,f
  2189     045B  0CA2               	rrf	___xxtofl@arg,f
  2190     045C  0B89               	decfsz	9,f
  2191     045D  2C58               	goto	u1835
  2192     045E                     l1931:
  2193     045E  30FE               	movlw	254
  2194     045F  0525               	andwf	___xxtofl@arg+3,w
  2195     0460  1D03               	btfss	3,2
  2196     0461  2C63               	goto	u1841
  2197     0462  2C64               	goto	u1840
  2198     0463                     u1841:
  2199     0463  2C53               	goto	l1929
  2200     0464                     u1840:
  2201     0464  2C78               	goto	l866
  2202     0465                     l1933:
  2203     0465  3001               	movlw	1
  2204     0466  00F6               	movwf	??___xxtofl
  2205     0467  0876               	movf	??___xxtofl,w
  2206     0468  07A1               	addwf	___xxtofl@exp,f
  2207     0469                     l1935:
  2208     0469  3001               	movlw	1
  2209     046A  07A2               	addwf	___xxtofl@arg,f
  2210     046B  3000               	movlw	0
  2211     046C  3DA3               	addwfc	___xxtofl@arg+1,f
  2212     046D  3000               	movlw	0
  2213     046E  3DA4               	addwfc	___xxtofl@arg+2,f
  2214     046F  3000               	movlw	0
  2215     0470  3DA5               	addwfc	___xxtofl@arg+3,f
  2216     0471                     l1937:
  2217     0471  3001               	movlw	1
  2218     0472                     u1855:
  2219     0472  36A5               	lsrf	___xxtofl@arg+3,f
  2220     0473  0CA4               	rrf	___xxtofl@arg+2,f
  2221     0474  0CA3               	rrf	___xxtofl@arg+1,f
  2222     0475  0CA2               	rrf	___xxtofl@arg,f
  2223     0476  0B89               	decfsz	9,f
  2224     0477  2C72               	goto	u1855
  2225     0478                     l866:
  2226     0478  30FF               	movlw	255
  2227     0479  0525               	andwf	___xxtofl@arg+3,w
  2228     047A  1D03               	btfss	3,2
  2229     047B  2C7D               	goto	u1861
  2230     047C  2C7E               	goto	u1860
  2231     047D                     u1861:
  2232     047D  2C65               	goto	l1933
  2233     047E                     u1860:
  2234     047E  2C88               	goto	l1941
  2235     047F                     l1939:
  2236     047F  3001               	movlw	1
  2237     0480  02A1               	subwf	___xxtofl@exp,f
  2238     0481  3001               	movlw	1
  2239     0482                     u1875:
  2240     0482  35A2               	lslf	___xxtofl@arg,f
  2241     0483  0DA3               	rlf	___xxtofl@arg+1,f
  2242     0484  0DA4               	rlf	___xxtofl@arg+2,f
  2243     0485  0DA5               	rlf	___xxtofl@arg+3,f
  2244     0486  0B89               	decfsz	9,f
  2245     0487  2C82               	goto	u1875
  2246     0488                     l1941:
  2247     0488  1BA4               	btfsc	___xxtofl@arg+2,7
  2248     0489  2C8B               	goto	u1881
  2249     048A  2C8C               	goto	u1880
  2250     048B                     u1881:
  2251     048B  2C92               	goto	l873
  2252     048C                     u1880:
  2253     048C                     l1943:
  2254     048C  3002               	movlw	2
  2255     048D  0221               	subwf	___xxtofl@exp,w
  2256     048E  1803               	skipnc
  2257     048F  2C91               	goto	u1891
  2258     0490  2C92               	goto	u1890
  2259     0491                     u1891:
  2260     0491  2C7F               	goto	l1939
  2261     0492                     u1890:
  2262     0492                     l873:
  2263     0492  1821               	btfsc	___xxtofl@exp,0
  2264     0493  2C95               	goto	u1901
  2265     0494  2C96               	goto	u1900
  2266     0495                     u1901:
  2267     0495  2C9E               	goto	l874
  2268     0496                     u1900:
  2269     0496                     l1945:
  2270     0496  30FF               	movlw	255
  2271     0497  05A2               	andwf	___xxtofl@arg,f
  2272     0498  30FF               	movlw	255
  2273     0499  05A3               	andwf	___xxtofl@arg+1,f
  2274     049A  307F               	movlw	127
  2275     049B  05A4               	andwf	___xxtofl@arg+2,f
  2276     049C  30FF               	movlw	255
  2277     049D  05A5               	andwf	___xxtofl@arg+3,f
  2278     049E                     l874:
  2279     049E  1003               	clrc
  2280     049F  0CA1               	rrf	___xxtofl@exp,f
  2281     04A0                     l1947:
  2282     04A0  0821               	movf	___xxtofl@exp,w
  2283     04A1  00F6               	movwf	??___xxtofl
  2284     04A2  01F7               	clrf	??___xxtofl+1
  2285     04A3  01F8               	clrf	??___xxtofl+2
  2286     04A4  01F9               	clrf	??___xxtofl+3
  2287     04A5  3018               	movlw	24
  2288     04A6                     u1915:
  2289     04A6  35F6               	lslf	??___xxtofl,f
  2290     04A7  0DF7               	rlf	??___xxtofl+1,f
  2291     04A8  0DF8               	rlf	??___xxtofl+2,f
  2292     04A9  0DF9               	rlf	??___xxtofl+3,f
  2293     04AA                     u1910:
  2294     04AA  0B89               	decfsz	9,f
  2295     04AB  2CA6               	goto	u1915
  2296     04AC  0876               	movf	??___xxtofl,w
  2297     04AD  04A2               	iorwf	___xxtofl@arg,f
  2298     04AE  0877               	movf	??___xxtofl+1,w
  2299     04AF  04A3               	iorwf	___xxtofl@arg+1,f
  2300     04B0  0878               	movf	??___xxtofl+2,w
  2301     04B1  04A4               	iorwf	___xxtofl@arg+2,f
  2302     04B2  0879               	movf	??___xxtofl+3,w
  2303     04B3  04A5               	iorwf	___xxtofl@arg+3,f
  2304     04B4                     l1949:
  2305     04B4  0820               	movf	___xxtofl@sign,w
  2306     04B5  1903               	btfsc	3,2
  2307     04B6  2CB8               	goto	u1921
  2308     04B7  2CB9               	goto	u1920
  2309     04B8                     u1921:
  2310     04B8  2CBE               	goto	l1955
  2311     04B9                     u1920:
  2312     04B9                     l1951:
  2313     04B9  1FF5               	btfss	___xxtofl@val+3,7
  2314     04BA  2CBC               	goto	u1931
  2315     04BB  2CBD               	goto	u1930
  2316     04BC                     u1931:
  2317     04BC  2CBE               	goto	l1955
  2318     04BD                     u1930:
  2319     04BD                     l1953:
  2320     04BD  17A5               	bsf	___xxtofl@arg+3,7
  2321     04BE                     l1955:
  2322     04BE  0825               	movf	___xxtofl@arg+3,w
  2323     04BF  00F5               	movwf	?___xxtofl+3
  2324     04C0  0824               	movf	___xxtofl@arg+2,w
  2325     04C1  00F4               	movwf	?___xxtofl+2
  2326     04C2  0823               	movf	___xxtofl@arg+1,w
  2327     04C3  00F3               	movwf	?___xxtofl+1
  2328     04C4  0822               	movf	___xxtofl@arg,w
  2329     04C5  00F2               	movwf	?___xxtofl
  2330     04C6                     l862:
  2331     04C6  0008               	return
  2332     04C7                     __end_of___xxtofl:
  2333                           
  2334                           	psect	text2
  2335     05CB                     __ptext2:	
  2336 ;; *************** function ___fltol *****************
  2337 ;; Defined at:
  2338 ;;		line 43 in file "C:\Program Files\Microchip\xc8\v2.46\pic\sources\c99\common\fltol.c"
  2339 ;; Parameters:    Size  Location     Type
  2340 ;;  f1              4   32[BANK0 ] unsigned char 
  2341 ;; Auto vars:     Size  Location     Type
  2342 ;;  exp1            1   41[BANK0 ] unsigned char 
  2343 ;;  sign1           1   40[BANK0 ] unsigned char 
  2344 ;; Return value:  Size  Location     Type
  2345 ;;                  4   32[BANK0 ] long 
  2346 ;; Registers used:
  2347 ;;		wreg, status,2, status,0
  2348 ;; Tracked objects:
  2349 ;;		On entry : 0/0
  2350 ;;		On exit  : 0/0
  2351 ;;		Unchanged: 0/0
  2352 ;; Data sizes:     COMMON   BANK0   BANK1   BANK2   BANK3   BANK4
  2353 ;;      Params:         0       4       0       0       0       0
  2354 ;;      Locals:         0       2       0       0       0       0
  2355 ;;      Temps:          0       4       0       0       0       0
  2356 ;;      Totals:         0      10       0       0       0       0
  2357 ;;Total ram usage:       10 bytes
  2358 ;; Hardware stack levels used: 1
  2359 ;; Hardware stack levels required when called: 3
  2360 ;; This function calls:
  2361 ;;		Nothing
  2362 ;; This function is called by:
  2363 ;;		_main
  2364 ;; This function uses a non-reentrant model
  2365 ;;
  2366                           
  2367     05CB                     ___fltol:	
  2368                           ;psect for function ___fltol
  2369                           
  2370     05CB                     l1599:	
  2371                           ;incstack = 0
  2372                           ; Regs used in ___fltol: [wreg+status,2+status,0]
  2373                           
  2374     05CB  1003               	clrc
  2375     05CC  0020               	movlb	0	; select bank0
  2376     05CD  0D42               	rlf	___fltol@f1+2,w
  2377     05CE  0D43               	rlf	___fltol@f1+3,w
  2378     05CF  00C9               	movwf	___fltol@exp1
  2379     05D0  0849               	movf	___fltol@exp1,w
  2380     05D1  1D03               	btfss	3,2
  2381     05D2  2DD4               	goto	u1151
  2382     05D3  2DD5               	goto	u1150
  2383     05D4                     u1151:
  2384     05D4  2DDE               	goto	l1605
  2385     05D5                     u1150:
  2386     05D5                     l1601:
  2387     05D5  3000               	movlw	0
  2388     05D6  00C3               	movwf	?___fltol+3
  2389     05D7  3000               	movlw	0
  2390     05D8  00C2               	movwf	?___fltol+2
  2391     05D9  3000               	movlw	0
  2392     05DA  00C1               	movwf	?___fltol+1
  2393     05DB  3000               	movlw	0
  2394     05DC  00C0               	movwf	?___fltol
  2395     05DD  2E3B               	goto	l613
  2396     05DE                     l1605:
  2397     05DE  0840               	movf	___fltol@f1,w
  2398     05DF  00C4               	movwf	??___fltol
  2399     05E0  0841               	movf	___fltol@f1+1,w
  2400     05E1  00C5               	movwf	??___fltol+1
  2401     05E2  0842               	movf	___fltol@f1+2,w
  2402     05E3  00C6               	movwf	??___fltol+2
  2403     05E4  0843               	movf	___fltol@f1+3,w
  2404     05E5  00C7               	movwf	??___fltol+3
  2405     05E6  301F               	movlw	31
  2406     05E7                     u1165:
  2407     05E7  36C7               	lsrf	??___fltol+3,f
  2408     05E8  0CC6               	rrf	??___fltol+2,f
  2409     05E9  0CC5               	rrf	??___fltol+1,f
  2410     05EA  0CC4               	rrf	??___fltol,f
  2411     05EB                     u1160:
  2412     05EB  0B89               	decfsz	9,f
  2413     05EC  2DE7               	goto	u1165
  2414     05ED  0844               	movf	??___fltol,w
  2415     05EE  00C8               	movwf	___fltol@sign1
  2416     05EF                     l1607:
  2417     05EF  17C2               	bsf	___fltol@f1+2,7
  2418     05F0                     l1609:
  2419     05F0  30FF               	movlw	255
  2420     05F1  05C0               	andwf	___fltol@f1,f
  2421     05F2  30FF               	movlw	255
  2422     05F3  05C1               	andwf	___fltol@f1+1,f
  2423     05F4  30FF               	movlw	255
  2424     05F5  05C2               	andwf	___fltol@f1+2,f
  2425     05F6  3000               	movlw	0
  2426     05F7  05C3               	andwf	___fltol@f1+3,f
  2427     05F8                     l1611:
  2428     05F8  3096               	movlw	150
  2429     05F9  02C9               	subwf	___fltol@exp1,f
  2430     05FA                     l1613:
  2431     05FA  1FC9               	btfss	___fltol@exp1,7
  2432     05FB  2DFD               	goto	u1171
  2433     05FC  2DFE               	goto	u1170
  2434     05FD                     u1171:
  2435     05FD  2E16               	goto	l1623
  2436     05FE                     u1170:
  2437     05FE                     l1615:
  2438     05FE  0849               	movf	___fltol@exp1,w
  2439     05FF  3A80               	xorlw	128
  2440     0600  3E97               	addlw	151
  2441     0601  1803               	skipnc
  2442     0602  2E04               	goto	u1181
  2443     0603  2E05               	goto	u1180
  2444     0604                     u1181:
  2445     0604  2E06               	goto	l1621
  2446     0605                     u1180:
  2447     0605  2DD5               	goto	l1601
  2448     0606                     l1621:
  2449     0606  3001               	movlw	1
  2450     0607                     u1195:
  2451     0607  36C3               	lsrf	___fltol@f1+3,f
  2452     0608  0CC2               	rrf	___fltol@f1+2,f
  2453     0609  0CC1               	rrf	___fltol@f1+1,f
  2454     060A  0CC0               	rrf	___fltol@f1,f
  2455     060B  0B89               	decfsz	9,f
  2456     060C  2E07               	goto	u1195
  2457     060D  3001               	movlw	1
  2458     060E  00C4               	movwf	??___fltol
  2459     060F  0844               	movf	??___fltol,w
  2460     0610  07C9               	addwf	___fltol@exp1,f
  2461     0611  1D03               	btfss	3,2
  2462     0612  2E14               	goto	u1201
  2463     0613  2E15               	goto	u1200
  2464     0614                     u1201:
  2465     0614  2E06               	goto	l1621
  2466     0615                     u1200:
  2467     0615  2E2B               	goto	l1631
  2468     0616                     l1623:
  2469     0616  3020               	movlw	32
  2470     0617  0249               	subwf	___fltol@exp1,w
  2471     0618  1C03               	skipc
  2472     0619  2E1B               	goto	u1211
  2473     061A  2E1C               	goto	u1210
  2474     061B                     u1211:
  2475     061B  2E26               	goto	l620
  2476     061C                     u1210:
  2477     061C  2DD5               	goto	l1601
  2478     061D                     l1629:
  2479     061D  3001               	movlw	1
  2480     061E                     u1225:
  2481     061E  35C0               	lslf	___fltol@f1,f
  2482     061F  0DC1               	rlf	___fltol@f1+1,f
  2483     0620  0DC2               	rlf	___fltol@f1+2,f
  2484     0621  0DC3               	rlf	___fltol@f1+3,f
  2485     0622  0B89               	decfsz	9,f
  2486     0623  2E1E               	goto	u1225
  2487     0624  3001               	movlw	1
  2488     0625  02C9               	subwf	___fltol@exp1,f
  2489     0626                     l620:
  2490     0626  0849               	movf	___fltol@exp1,w
  2491     0627  1D03               	btfss	3,2
  2492     0628  2E2A               	goto	u1231
  2493     0629  2E2B               	goto	u1230
  2494     062A                     u1231:
  2495     062A  2E1D               	goto	l1629
  2496     062B                     u1230:
  2497     062B                     l1631:
  2498     062B  0848               	movf	___fltol@sign1,w
  2499     062C  1903               	btfsc	3,2
  2500     062D  2E2F               	goto	u1241
  2501     062E  2E30               	goto	u1240
  2502     062F                     u1241:
  2503     062F  2E3B               	goto	l623
  2504     0630                     u1240:
  2505     0630                     l1633:
  2506     0630  09C0               	comf	___fltol@f1,f
  2507     0631  09C1               	comf	___fltol@f1+1,f
  2508     0632  09C2               	comf	___fltol@f1+2,f
  2509     0633  09C3               	comf	___fltol@f1+3,f
  2510     0634  0AC0               	incf	___fltol@f1,f
  2511     0635  1903               	skipnz
  2512     0636  0AC1               	incf	___fltol@f1+1,f
  2513     0637  1903               	skipnz
  2514     0638  0AC2               	incf	___fltol@f1+2,f
  2515     0639  1903               	skipnz
  2516     063A  0AC3               	incf	___fltol@f1+3,f
  2517     063B                     l623:
  2518     063B                     l613:
  2519     063B  0008               	return
  2520     063C                     __end_of___fltol:
  2521                           
  2522                           	psect	text3
  2523     0037                     __ptext3:	
  2524 ;; *************** function ___flmul *****************
  2525 ;; Defined at:
  2526 ;;		line 8 in file "C:\Program Files\Microchip\xc8\v2.46\pic\sources\c99\common\sprcmul.c"
  2527 ;; Parameters:    Size  Location     Type
  2528 ;;  b               4    6[BANK0 ] long 
  2529 ;;  a               4   10[BANK0 ] long 
  2530 ;; Auto vars:     Size  Location     Type
  2531 ;;  prod            4   26[BANK0 ] struct .
  2532 ;;  grs             4   21[BANK0 ] unsigned long 
  2533 ;;  temp            2   30[BANK0 ] struct .
  2534 ;;  bexp            1   25[BANK0 ] unsigned char 
  2535 ;;  aexp            1   20[BANK0 ] unsigned char 
  2536 ;;  sign            1   19[BANK0 ] unsigned char 
  2537 ;; Return value:  Size  Location     Type
  2538 ;;                  4    6[BANK0 ] unsigned char 
  2539 ;; Registers used:
  2540 ;;		wreg, status,2, status,0, pclath, cstack
  2541 ;; Tracked objects:
  2542 ;;		On entry : 0/0
  2543 ;;		On exit  : 0/0
  2544 ;;		Unchanged: 0/0
  2545 ;; Data sizes:     COMMON   BANK0   BANK1   BANK2   BANK3   BANK4
  2546 ;;      Params:         0       8       0       0       0       0
  2547 ;;      Locals:         0      13       0       0       0       0
  2548 ;;      Temps:          0       5       0       0       0       0
  2549 ;;      Totals:         0      26       0       0       0       0
  2550 ;;Total ram usage:       26 bytes
  2551 ;; Hardware stack levels used: 1
  2552 ;; Hardware stack levels required when called: 4
  2553 ;; This function calls:
  2554 ;;		__Umul8_16
  2555 ;; This function is called by:
  2556 ;;		_main
  2557 ;; This function uses a non-reentrant model
  2558 ;;
  2559                           
  2560     0037                     ___flmul:	
  2561                           ;psect for function ___flmul
  2562                           
  2563     0037                     l1999:	
  2564                           ;incstack = 0
  2565                           ; Regs used in ___flmul: [wreg+status,2+status,0+pclath+cstack]
  2566                           
  2567     0037  0020               	movlb	0	; select bank0
  2568     0038  0829               	movf	___flmul@b+3,w
  2569     0039  3980               	andlw	128
  2570     003A  00B3               	movwf	___flmul@sign
  2571     003B                     l2001:
  2572     003B  3529               	lslf	___flmul@b+3,w
  2573     003C  00B9               	movwf	___flmul@bexp
  2574     003D                     l2003:
  2575     003D  1FA8               	btfss	___flmul@b+2,7
  2576     003E  2840               	goto	u2011
  2577     003F  2841               	goto	u2010
  2578     0040                     u2011:
  2579     0040  2842               	goto	l2007
  2580     0041                     u2010:
  2581     0041                     l2005:
  2582     0041  1439               	bsf	___flmul@bexp,0
  2583     0042                     l2007:
  2584     0042  0839               	movf	___flmul@bexp,w
  2585     0043  1903               	btfsc	3,2
  2586     0044  2846               	goto	u2021
  2587     0045  2847               	goto	u2020
  2588     0046                     u2021:
  2589     0046  2856               	goto	l2015
  2590     0047                     u2020:
  2591     0047                     l2009:
  2592     0047  0A39               	incf	___flmul@bexp,w
  2593     0048  1D03               	btfss	3,2
  2594     0049  284B               	goto	u2031
  2595     004A  284C               	goto	u2030
  2596     004B                     u2031:
  2597     004B  2854               	goto	l2013
  2598     004C                     u2030:
  2599     004C                     l2011:
  2600     004C  3000               	movlw	0
  2601     004D  00A9               	movwf	___flmul@b+3
  2602     004E  3000               	movlw	0
  2603     004F  00A8               	movwf	___flmul@b+2
  2604     0050  3000               	movlw	0
  2605     0051  00A7               	movwf	___flmul@b+1
  2606     0052  3000               	movlw	0
  2607     0053  00A6               	movwf	___flmul@b
  2608     0054                     l2013:
  2609     0054  17A8               	bsf	___flmul@b+2,7
  2610     0055  285E               	goto	l2017
  2611     0056                     l2015:
  2612     0056  3000               	movlw	0
  2613     0057  00A9               	movwf	___flmul@b+3
  2614     0058  3000               	movlw	0
  2615     0059  00A8               	movwf	___flmul@b+2
  2616     005A  3000               	movlw	0
  2617     005B  00A7               	movwf	___flmul@b+1
  2618     005C  3000               	movlw	0
  2619     005D  00A6               	movwf	___flmul@b
  2620     005E                     l2017:
  2621     005E  082D               	movf	___flmul@a+3,w
  2622     005F  3980               	andlw	128
  2623     0060  00AE               	movwf	??___flmul
  2624     0061  082E               	movf	??___flmul,w
  2625     0062  06B3               	xorwf	___flmul@sign,f
  2626     0063                     l2019:
  2627     0063  352D               	lslf	___flmul@a+3,w
  2628     0064  00B4               	movwf	___flmul@aexp
  2629     0065                     l2021:
  2630     0065  1FAC               	btfss	___flmul@a+2,7
  2631     0066  2868               	goto	u2041
  2632     0067  2869               	goto	u2040
  2633     0068                     u2041:
  2634     0068  286A               	goto	l2025
  2635     0069                     u2040:
  2636     0069                     l2023:
  2637     0069  1434               	bsf	___flmul@aexp,0
  2638     006A                     l2025:
  2639     006A  0834               	movf	___flmul@aexp,w
  2640     006B  1903               	btfsc	3,2
  2641     006C  286E               	goto	u2051
  2642     006D  286F               	goto	u2050
  2643     006E                     u2051:
  2644     006E  287E               	goto	l2033
  2645     006F                     u2050:
  2646     006F                     l2027:
  2647     006F  0A34               	incf	___flmul@aexp,w
  2648     0070  1D03               	btfss	3,2
  2649     0071  2873               	goto	u2061
  2650     0072  2874               	goto	u2060
  2651     0073                     u2061:
  2652     0073  287C               	goto	l2031
  2653     0074                     u2060:
  2654     0074                     l2029:
  2655     0074  3000               	movlw	0
  2656     0075  00AD               	movwf	___flmul@a+3
  2657     0076  3000               	movlw	0
  2658     0077  00AC               	movwf	___flmul@a+2
  2659     0078  3000               	movlw	0
  2660     0079  00AB               	movwf	___flmul@a+1
  2661     007A  3000               	movlw	0
  2662     007B  00AA               	movwf	___flmul@a
  2663     007C                     l2031:
  2664     007C  17AC               	bsf	___flmul@a+2,7
  2665     007D  2886               	goto	l2035
  2666     007E                     l2033:
  2667     007E  3000               	movlw	0
  2668     007F  00AD               	movwf	___flmul@a+3
  2669     0080  3000               	movlw	0
  2670     0081  00AC               	movwf	___flmul@a+2
  2671     0082  3000               	movlw	0
  2672     0083  00AB               	movwf	___flmul@a+1
  2673     0084  3000               	movlw	0
  2674     0085  00AA               	movwf	___flmul@a
  2675     0086                     l2035:
  2676     0086  0834               	movf	___flmul@aexp,w
  2677     0087  1903               	btfsc	3,2
  2678     0088  288A               	goto	u2071
  2679     0089  288B               	goto	u2070
  2680     008A                     u2071:
  2681     008A  2890               	goto	l2039
  2682     008B                     u2070:
  2683     008B                     l2037:
  2684     008B  0839               	movf	___flmul@bexp,w
  2685     008C  1D03               	btfss	3,2
  2686     008D  288F               	goto	u2081
  2687     008E  2890               	goto	u2080
  2688     008F                     u2081:
  2689     008F  2899               	goto	l2043
  2690     0090                     u2080:
  2691     0090                     l2039:
  2692     0090  3000               	movlw	0
  2693     0091  00A9               	movwf	?___flmul+3
  2694     0092  3000               	movlw	0
  2695     0093  00A8               	movwf	?___flmul+2
  2696     0094  3000               	movlw	0
  2697     0095  00A7               	movwf	?___flmul+1
  2698     0096  3000               	movlw	0
  2699     0097  00A6               	movwf	?___flmul
  2700     0098  2A71               	goto	l816
  2701     0099                     l2043:
  2702     0099  0826               	movf	___flmul@b,w
  2703     009A  00F2               	movwf	__Umul8_16@multiplicand
  2704     009B  082C               	movf	___flmul@a+2,w
  2705     009C  3186  263C  3180   	fcall	__Umul8_16
  2706     009F  0873               	movf	?__Umul8_16+1,w
  2707     00A0  0020               	movlb	0	; select bank0
  2708     00A1  00BF               	movwf	___flmul@temp+1
  2709     00A2  0872               	movf	?__Umul8_16,w
  2710     00A3  00BE               	movwf	___flmul@temp
  2711     00A4                     l2045:
  2712     00A4  083E               	movf	___flmul@temp,w
  2713     00A5  00AE               	movwf	??___flmul
  2714     00A6  01AF               	clrf	??___flmul+1
  2715     00A7  01B0               	clrf	??___flmul+2
  2716     00A8  01B1               	clrf	??___flmul+3
  2717     00A9  0831               	movf	??___flmul+3,w
  2718     00AA  00B8               	movwf	___flmul@grs+3
  2719     00AB  0830               	movf	??___flmul+2,w
  2720     00AC  00B7               	movwf	___flmul@grs+2
  2721     00AD  082F               	movf	??___flmul+1,w
  2722     00AE  00B6               	movwf	___flmul@grs+1
  2723     00AF  082E               	movf	??___flmul,w
  2724     00B0  00B5               	movwf	___flmul@grs
  2725     00B1                     l2047:
  2726     00B1  083F               	movf	___flmul@temp+1,w
  2727     00B2  00AE               	movwf	??___flmul
  2728     00B3  01AF               	clrf	??___flmul+1
  2729     00B4  01B0               	clrf	??___flmul+2
  2730     00B5  01B1               	clrf	??___flmul+3
  2731     00B6  0831               	movf	??___flmul+3,w
  2732     00B7  00BD               	movwf	___flmul@prod+3
  2733     00B8  0830               	movf	??___flmul+2,w
  2734     00B9  00BC               	movwf	___flmul@prod+2
  2735     00BA  082F               	movf	??___flmul+1,w
  2736     00BB  00BB               	movwf	___flmul@prod+1
  2737     00BC  082E               	movf	??___flmul,w
  2738     00BD  00BA               	movwf	___flmul@prod
  2739     00BE  0827               	movf	___flmul@b+1,w
  2740     00BF  00F2               	movwf	__Umul8_16@multiplicand
  2741     00C0  082B               	movf	___flmul@a+1,w
  2742     00C1  3186  263C  3180   	fcall	__Umul8_16
  2743     00C4  0873               	movf	?__Umul8_16+1,w
  2744     00C5  0020               	movlb	0	; select bank0
  2745     00C6  00BF               	movwf	___flmul@temp+1
  2746     00C7  0872               	movf	?__Umul8_16,w
  2747     00C8  00BE               	movwf	___flmul@temp
  2748     00C9                     l2049:
  2749     00C9  083E               	movf	___flmul@temp,w
  2750     00CA  00AE               	movwf	??___flmul
  2751     00CB  01AF               	clrf	??___flmul+1
  2752     00CC  01B0               	clrf	??___flmul+2
  2753     00CD  01B1               	clrf	??___flmul+3
  2754     00CE  082E               	movf	??___flmul,w
  2755     00CF  07B5               	addwf	___flmul@grs,f
  2756     00D0  082F               	movf	??___flmul+1,w
  2757     00D1  3DB6               	addwfc	___flmul@grs+1,f
  2758     00D2  0830               	movf	??___flmul+2,w
  2759     00D3  3DB7               	addwfc	___flmul@grs+2,f
  2760     00D4  0831               	movf	??___flmul+3,w
  2761     00D5  3DB8               	addwfc	___flmul@grs+3,f
  2762     00D6                     l2051:
  2763     00D6  083F               	movf	___flmul@temp+1,w
  2764     00D7  00AE               	movwf	??___flmul
  2765     00D8  01AF               	clrf	??___flmul+1
  2766     00D9  01B0               	clrf	??___flmul+2
  2767     00DA  01B1               	clrf	??___flmul+3
  2768     00DB  082E               	movf	??___flmul,w
  2769     00DC  07BA               	addwf	___flmul@prod,f
  2770     00DD  082F               	movf	??___flmul+1,w
  2771     00DE  3DBB               	addwfc	___flmul@prod+1,f
  2772     00DF  0830               	movf	??___flmul+2,w
  2773     00E0  3DBC               	addwfc	___flmul@prod+2,f
  2774     00E1  0831               	movf	??___flmul+3,w
  2775     00E2  3DBD               	addwfc	___flmul@prod+3,f
  2776     00E3  0828               	movf	___flmul@b+2,w
  2777     00E4  00F2               	movwf	__Umul8_16@multiplicand
  2778     00E5  082A               	movf	___flmul@a,w
  2779     00E6  3186  263C  3180   	fcall	__Umul8_16
  2780     00E9  0873               	movf	?__Umul8_16+1,w
  2781     00EA  0020               	movlb	0	; select bank0
  2782     00EB  00BF               	movwf	___flmul@temp+1
  2783     00EC  0872               	movf	?__Umul8_16,w
  2784     00ED  00BE               	movwf	___flmul@temp
  2785     00EE                     l2053:
  2786     00EE  083E               	movf	___flmul@temp,w
  2787     00EF  00AE               	movwf	??___flmul
  2788     00F0  01AF               	clrf	??___flmul+1
  2789     00F1  01B0               	clrf	??___flmul+2
  2790     00F2  01B1               	clrf	??___flmul+3
  2791     00F3  082E               	movf	??___flmul,w
  2792     00F4  07B5               	addwf	___flmul@grs,f
  2793     00F5  082F               	movf	??___flmul+1,w
  2794     00F6  3DB6               	addwfc	___flmul@grs+1,f
  2795     00F7  0830               	movf	??___flmul+2,w
  2796     00F8  3DB7               	addwfc	___flmul@grs+2,f
  2797     00F9  0831               	movf	??___flmul+3,w
  2798     00FA  3DB8               	addwfc	___flmul@grs+3,f
  2799     00FB                     l2055:
  2800     00FB  083F               	movf	___flmul@temp+1,w
  2801     00FC  00AE               	movwf	??___flmul
  2802     00FD  01AF               	clrf	??___flmul+1
  2803     00FE  01B0               	clrf	??___flmul+2
  2804     00FF  01B1               	clrf	??___flmul+3
  2805     0100  082E               	movf	??___flmul,w
  2806     0101  07BA               	addwf	___flmul@prod,f
  2807     0102  082F               	movf	??___flmul+1,w
  2808     0103  3DBB               	addwfc	___flmul@prod+1,f
  2809     0104  0830               	movf	??___flmul+2,w
  2810     0105  3DBC               	addwfc	___flmul@prod+2,f
  2811     0106  0831               	movf	??___flmul+3,w
  2812     0107  3DBD               	addwfc	___flmul@prod+3,f
  2813     0108                     l2057:
  2814     0108  3008               	movlw	8
  2815     0109                     u2095:
  2816     0109  35B5               	lslf	___flmul@grs,f
  2817     010A  0DB6               	rlf	___flmul@grs+1,f
  2818     010B  0DB7               	rlf	___flmul@grs+2,f
  2819     010C  0DB8               	rlf	___flmul@grs+3,f
  2820     010D  0B89               	decfsz	9,f
  2821     010E  2909               	goto	u2095
  2822     010F                     l2059:
  2823     010F  0827               	movf	___flmul@b+1,w
  2824     0110  00F2               	movwf	__Umul8_16@multiplicand
  2825     0111  082A               	movf	___flmul@a,w
  2826     0112  3186  263C  3180   	fcall	__Umul8_16
  2827     0115  0873               	movf	?__Umul8_16+1,w
  2828     0116  0020               	movlb	0	; select bank0
  2829     0117  00BF               	movwf	___flmul@temp+1
  2830     0118  0872               	movf	?__Umul8_16,w
  2831     0119  00BE               	movwf	___flmul@temp
  2832     011A                     l2061:
  2833     011A  083E               	movf	___flmul@temp,w
  2834     011B  07B5               	addwf	___flmul@grs,f
  2835     011C  083F               	movf	___flmul@temp+1,w
  2836     011D  3DB6               	addwfc	___flmul@grs+1,f
  2837     011E  3000               	movlw	0
  2838     011F  3DB7               	addwfc	___flmul@grs+2,f
  2839     0120  3DB8               	addwfc	___flmul@grs+3,f
  2840     0121                     l2063:
  2841     0121  0826               	movf	___flmul@b,w
  2842     0122  00F2               	movwf	__Umul8_16@multiplicand
  2843     0123  082B               	movf	___flmul@a+1,w
  2844     0124  3186  263C  3180   	fcall	__Umul8_16
  2845     0127  0873               	movf	?__Umul8_16+1,w
  2846     0128  0020               	movlb	0	; select bank0
  2847     0129  00BF               	movwf	___flmul@temp+1
  2848     012A  0872               	movf	?__Umul8_16,w
  2849     012B  00BE               	movwf	___flmul@temp
  2850     012C                     l2065:
  2851     012C  083E               	movf	___flmul@temp,w
  2852     012D  07B5               	addwf	___flmul@grs,f
  2853     012E  083F               	movf	___flmul@temp+1,w
  2854     012F  3DB6               	addwfc	___flmul@grs+1,f
  2855     0130  3000               	movlw	0
  2856     0131  3DB7               	addwfc	___flmul@grs+2,f
  2857     0132  3DB8               	addwfc	___flmul@grs+3,f
  2858     0133                     l2067:
  2859     0133  3008               	movlw	8
  2860     0134                     u2105:
  2861     0134  35B5               	lslf	___flmul@grs,f
  2862     0135  0DB6               	rlf	___flmul@grs+1,f
  2863     0136  0DB7               	rlf	___flmul@grs+2,f
  2864     0137  0DB8               	rlf	___flmul@grs+3,f
  2865     0138  0B89               	decfsz	9,f
  2866     0139  2934               	goto	u2105
  2867     013A  0826               	movf	___flmul@b,w
  2868     013B  00F2               	movwf	__Umul8_16@multiplicand
  2869     013C  082A               	movf	___flmul@a,w
  2870     013D  3186  263C  3180   	fcall	__Umul8_16
  2871     0140  0873               	movf	?__Umul8_16+1,w
  2872     0141  0020               	movlb	0	; select bank0
  2873     0142  00BF               	movwf	___flmul@temp+1
  2874     0143  0872               	movf	?__Umul8_16,w
  2875     0144  00BE               	movwf	___flmul@temp
  2876     0145                     l2069:
  2877     0145  083E               	movf	___flmul@temp,w
  2878     0146  07B5               	addwf	___flmul@grs,f
  2879     0147  083F               	movf	___flmul@temp+1,w
  2880     0148  3DB6               	addwfc	___flmul@grs+1,f
  2881     0149  3000               	movlw	0
  2882     014A  3DB7               	addwfc	___flmul@grs+2,f
  2883     014B  3DB8               	addwfc	___flmul@grs+3,f
  2884     014C                     l2071:
  2885     014C  0827               	movf	___flmul@b+1,w
  2886     014D  00F2               	movwf	__Umul8_16@multiplicand
  2887     014E  082C               	movf	___flmul@a+2,w
  2888     014F  3186  263C  3180   	fcall	__Umul8_16
  2889     0152  0873               	movf	?__Umul8_16+1,w
  2890     0153  0020               	movlb	0	; select bank0
  2891     0154  00BF               	movwf	___flmul@temp+1
  2892     0155  0872               	movf	?__Umul8_16,w
  2893     0156  00BE               	movwf	___flmul@temp
  2894     0157  083E               	movf	___flmul@temp,w
  2895     0158  07BA               	addwf	___flmul@prod,f
  2896     0159  083F               	movf	___flmul@temp+1,w
  2897     015A  3DBB               	addwfc	___flmul@prod+1,f
  2898     015B  3000               	movlw	0
  2899     015C  3DBC               	addwfc	___flmul@prod+2,f
  2900     015D  3DBD               	addwfc	___flmul@prod+3,f
  2901     015E                     l2073:
  2902     015E  0828               	movf	___flmul@b+2,w
  2903     015F  00F2               	movwf	__Umul8_16@multiplicand
  2904     0160  082B               	movf	___flmul@a+1,w
  2905     0161  3186  263C  3180   	fcall	__Umul8_16
  2906     0164  0873               	movf	?__Umul8_16+1,w
  2907     0165  0020               	movlb	0	; select bank0
  2908     0166  00BF               	movwf	___flmul@temp+1
  2909     0167  0872               	movf	?__Umul8_16,w
  2910     0168  00BE               	movwf	___flmul@temp
  2911     0169                     l2075:
  2912     0169  083E               	movf	___flmul@temp,w
  2913     016A  07BA               	addwf	___flmul@prod,f
  2914     016B  083F               	movf	___flmul@temp+1,w
  2915     016C  3DBB               	addwfc	___flmul@prod+1,f
  2916     016D  3000               	movlw	0
  2917     016E  3DBC               	addwfc	___flmul@prod+2,f
  2918     016F  3DBD               	addwfc	___flmul@prod+3,f
  2919     0170  0828               	movf	___flmul@b+2,w
  2920     0171  00F2               	movwf	__Umul8_16@multiplicand
  2921     0172  082C               	movf	___flmul@a+2,w
  2922     0173  3186  263C  3180   	fcall	__Umul8_16
  2923     0176  0873               	movf	?__Umul8_16+1,w
  2924     0177  0020               	movlb	0	; select bank0
  2925     0178  00BF               	movwf	___flmul@temp+1
  2926     0179  0872               	movf	?__Umul8_16,w
  2927     017A  00BE               	movwf	___flmul@temp
  2928     017B                     l2077:
  2929     017B  083E               	movf	___flmul@temp,w
  2930     017C  00AE               	movwf	??___flmul
  2931     017D  083F               	movf	___flmul@temp+1,w
  2932     017E  00AF               	movwf	??___flmul+1
  2933     017F  01B0               	clrf	??___flmul+2
  2934     0180  01B1               	clrf	??___flmul+3
  2935     0181  3008               	movlw	8
  2936     0182                     u2115:
  2937     0182  35AE               	lslf	??___flmul,f
  2938     0183  0DAF               	rlf	??___flmul+1,f
  2939     0184  0DB0               	rlf	??___flmul+2,f
  2940     0185  0DB1               	rlf	??___flmul+3,f
  2941     0186                     u2110:
  2942     0186  0B89               	decfsz	9,f
  2943     0187  2982               	goto	u2115
  2944     0188  082E               	movf	??___flmul,w
  2945     0189  07BA               	addwf	___flmul@prod,f
  2946     018A  082F               	movf	??___flmul+1,w
  2947     018B  3DBB               	addwfc	___flmul@prod+1,f
  2948     018C  0830               	movf	??___flmul+2,w
  2949     018D  3DBC               	addwfc	___flmul@prod+2,f
  2950     018E  0831               	movf	??___flmul+3,w
  2951     018F  3DBD               	addwfc	___flmul@prod+3,f
  2952     0190                     l2079:
  2953     0190  0835               	movf	___flmul@grs,w
  2954     0191  00AE               	movwf	??___flmul
  2955     0192  0836               	movf	___flmul@grs+1,w
  2956     0193  00AF               	movwf	??___flmul+1
  2957     0194  0837               	movf	___flmul@grs+2,w
  2958     0195  00B0               	movwf	??___flmul+2
  2959     0196  0838               	movf	___flmul@grs+3,w
  2960     0197  00B1               	movwf	??___flmul+3
  2961     0198  3018               	movlw	24
  2962     0199                     u2125:
  2963     0199  36B1               	lsrf	??___flmul+3,f
  2964     019A  0CB0               	rrf	??___flmul+2,f
  2965     019B  0CAF               	rrf	??___flmul+1,f
  2966     019C  0CAE               	rrf	??___flmul,f
  2967     019D                     u2120:
  2968     019D  0B89               	decfsz	9,f
  2969     019E  2999               	goto	u2125
  2970     019F  082E               	movf	??___flmul,w
  2971     01A0  07BA               	addwf	___flmul@prod,f
  2972     01A1  082F               	movf	??___flmul+1,w
  2973     01A2  3DBB               	addwfc	___flmul@prod+1,f
  2974     01A3  0830               	movf	??___flmul+2,w
  2975     01A4  3DBC               	addwfc	___flmul@prod+2,f
  2976     01A5  0831               	movf	??___flmul+3,w
  2977     01A6  3DBD               	addwfc	___flmul@prod+3,f
  2978     01A7                     l2081:
  2979     01A7  3008               	movlw	8
  2980     01A8                     u2135:
  2981     01A8  35B5               	lslf	___flmul@grs,f
  2982     01A9  0DB6               	rlf	___flmul@grs+1,f
  2983     01AA  0DB7               	rlf	___flmul@grs+2,f
  2984     01AB  0DB8               	rlf	___flmul@grs+3,f
  2985     01AC  0B89               	decfsz	9,f
  2986     01AD  29A8               	goto	u2135
  2987     01AE                     l2083:
  2988     01AE  0839               	movf	___flmul@bexp,w
  2989     01AF  0734               	addwf	___flmul@aexp,w
  2990     01B0  00AE               	movwf	??___flmul
  2991     01B1  01AF               	clrf	??___flmul+1
  2992     01B2  0DAF               	rlf	??___flmul+1,f
  2993     01B3  082E               	movf	??___flmul,w
  2994     01B4  3E82               	addlw	130
  2995     01B5  00BE               	movwf	___flmul@temp
  2996     01B6  30FF               	movlw	255
  2997     01B7  3D2F               	addwfc	??___flmul+1,w
  2998     01B8  00BF               	movwf	___flmul@temp+1
  2999     01B9  29D1               	goto	l2095
  3000     01BA                     l2085:
  3001     01BA  3001               	movlw	1
  3002     01BB                     u2145:
  3003     01BB  35BA               	lslf	___flmul@prod,f
  3004     01BC  0DBB               	rlf	___flmul@prod+1,f
  3005     01BD  0DBC               	rlf	___flmul@prod+2,f
  3006     01BE  0DBD               	rlf	___flmul@prod+3,f
  3007     01BF  0B89               	decfsz	9,f
  3008     01C0  29BB               	goto	u2145
  3009     01C1                     l2087:
  3010     01C1  1FB8               	btfss	___flmul@grs+3,7
  3011     01C2  29C4               	goto	u2151
  3012     01C3  29C5               	goto	u2150
  3013     01C4                     u2151:
  3014     01C4  29C6               	goto	l2091
  3015     01C5                     u2150:
  3016     01C5                     l2089:
  3017     01C5  143A               	bsf	___flmul@prod,0
  3018     01C6                     l2091:
  3019     01C6  3001               	movlw	1
  3020     01C7                     u2165:
  3021     01C7  35B5               	lslf	___flmul@grs,f
  3022     01C8  0DB6               	rlf	___flmul@grs+1,f
  3023     01C9  0DB7               	rlf	___flmul@grs+2,f
  3024     01CA  0DB8               	rlf	___flmul@grs+3,f
  3025     01CB  0B89               	decfsz	9,f
  3026     01CC  29C7               	goto	u2165
  3027     01CD                     l2093:
  3028     01CD  30FF               	movlw	255
  3029     01CE  07BE               	addwf	___flmul@temp,f
  3030     01CF  30FF               	movlw	255
  3031     01D0  3DBF               	addwfc	___flmul@temp+1,f
  3032     01D1                     l2095:
  3033     01D1  1FBC               	btfss	___flmul@prod+2,7
  3034     01D2  29D4               	goto	u2171
  3035     01D3  29D5               	goto	u2170
  3036     01D4                     u2171:
  3037     01D4  29BA               	goto	l2085
  3038     01D5                     u2170:
  3039     01D5                     l2097:
  3040     01D5  01B4               	clrf	___flmul@aexp
  3041     01D6                     l2099:
  3042     01D6  1FB8               	btfss	___flmul@grs+3,7
  3043     01D7  29D9               	goto	u2181
  3044     01D8  29DA               	goto	u2180
  3045     01D9                     u2181:
  3046     01D9  29F6               	goto	l2107
  3047     01DA                     u2180:
  3048     01DA                     l2101:
  3049     01DA  30FF               	movlw	255
  3050     01DB  0535               	andwf	___flmul@grs,w
  3051     01DC  00AE               	movwf	??___flmul
  3052     01DD  30FF               	movlw	255
  3053     01DE  0536               	andwf	___flmul@grs+1,w
  3054     01DF  00AF               	movwf	??___flmul+1
  3055     01E0  30FF               	movlw	255
  3056     01E1  0537               	andwf	___flmul@grs+2,w
  3057     01E2  00B0               	movwf	??___flmul+2
  3058     01E3  307F               	movlw	127
  3059     01E4  0538               	andwf	___flmul@grs+3,w
  3060     01E5  00B1               	movwf	??___flmul+3
  3061     01E6  0831               	movf	??___flmul+3,w
  3062     01E7  0430               	iorwf	??___flmul+2,w
  3063     01E8  042F               	iorwf	??___flmul+1,w
  3064     01E9  042E               	iorwf	??___flmul,w
  3065     01EA  1903               	skipnz
  3066     01EB  29ED               	goto	u2191
  3067     01EC  29EE               	goto	u2190
  3068     01ED                     u2191:
  3069     01ED  29F1               	goto	l822
  3070     01EE                     u2190:
  3071     01EE                     l2103:
  3072     01EE  01B4               	clrf	___flmul@aexp
  3073     01EF  0AB4               	incf	___flmul@aexp,f
  3074     01F0  29F6               	goto	l2107
  3075     01F1                     l822:
  3076     01F1  1C3A               	btfss	___flmul@prod,0
  3077     01F2  29F4               	goto	u2201
  3078     01F3  29F5               	goto	u2200
  3079     01F4                     u2201:
  3080     01F4  29F6               	goto	l2107
  3081     01F5                     u2200:
  3082     01F5  29EE               	goto	l2103
  3083     01F6                     l2107:
  3084     01F6  0834               	movf	___flmul@aexp,w
  3085     01F7  1903               	btfsc	3,2
  3086     01F8  29FA               	goto	u2211
  3087     01F9  29FB               	goto	u2210
  3088     01FA                     u2211:
  3089     01FA  2A23               	goto	l2117
  3090     01FB                     u2210:
  3091     01FB                     l2109:
  3092     01FB  3001               	movlw	1
  3093     01FC  07BA               	addwf	___flmul@prod,f
  3094     01FD  3000               	movlw	0
  3095     01FE  3DBB               	addwfc	___flmul@prod+1,f
  3096     01FF  3000               	movlw	0
  3097     0200  3DBC               	addwfc	___flmul@prod+2,f
  3098     0201  3000               	movlw	0
  3099     0202  3DBD               	addwfc	___flmul@prod+3,f
  3100     0203                     l2111:
  3101     0203  1C3D               	btfss	___flmul@prod+3,0
  3102     0204  2A06               	goto	u2221
  3103     0205  2A07               	goto	u2220
  3104     0206                     u2221:
  3105     0206  2A23               	goto	l2117
  3106     0207                     u2220:
  3107     0207                     l2113:
  3108     0207  083A               	movf	___flmul@prod,w
  3109     0208  00AE               	movwf	??___flmul
  3110     0209  083B               	movf	___flmul@prod+1,w
  3111     020A  00AF               	movwf	??___flmul+1
  3112     020B  083C               	movf	___flmul@prod+2,w
  3113     020C  00B0               	movwf	??___flmul+2
  3114     020D  083D               	movf	___flmul@prod+3,w
  3115     020E  00B1               	movwf	??___flmul+3
  3116     020F  3001               	movlw	1
  3117     0210  00B2               	movwf	??___flmul+4
  3118     0211                     u2235:
  3119     0211  37B1               	asrf	??___flmul+3,f
  3120     0212  0CB0               	rrf	??___flmul+2,f
  3121     0213  0CAF               	rrf	??___flmul+1,f
  3122     0214  0CAE               	rrf	??___flmul,f
  3123     0215                     u2230:
  3124     0215  0BB2               	decfsz	??___flmul+4,f
  3125     0216  2A11               	goto	u2235
  3126     0217  0831               	movf	??___flmul+3,w
  3127     0218  00BD               	movwf	___flmul@prod+3
  3128     0219  0830               	movf	??___flmul+2,w
  3129     021A  00BC               	movwf	___flmul@prod+2
  3130     021B  082F               	movf	??___flmul+1,w
  3131     021C  00BB               	movwf	___flmul@prod+1
  3132     021D  082E               	movf	??___flmul,w
  3133     021E  00BA               	movwf	___flmul@prod
  3134     021F                     l2115:
  3135     021F  3001               	movlw	1
  3136     0220  07BE               	addwf	___flmul@temp,f
  3137     0221  3000               	movlw	0
  3138     0222  3DBF               	addwfc	___flmul@temp+1,f
  3139     0223                     l2117:
  3140     0223  083F               	movf	___flmul@temp+1,w
  3141     0224  3A80               	xorlw	128
  3142     0225  00AE               	movwf	??___flmul
  3143     0226  3080               	movlw	128
  3144     0227  022E               	subwf	??___flmul,w
  3145     0228  1D03               	skipz
  3146     0229  2A2C               	goto	u2245
  3147     022A  30FF               	movlw	255
  3148     022B  023E               	subwf	___flmul@temp,w
  3149     022C                     u2245:
  3150     022C  1C03               	skipc
  3151     022D  2A2F               	goto	u2241
  3152     022E  2A30               	goto	u2240
  3153     022F                     u2241:
  3154     022F  2A3A               	goto	l2121
  3155     0230                     u2240:
  3156     0230                     l2119:
  3157     0230  307F               	movlw	127
  3158     0231  0020               	movlb	0	; select bank0
  3159     0232  00BD               	movwf	___flmul@prod+3
  3160     0233  3080               	movlw	128
  3161     0234  00BC               	movwf	___flmul@prod+2
  3162     0235  3000               	movlw	0
  3163     0236  00BB               	movwf	___flmul@prod+1
  3164     0237  3000               	movlw	0
  3165     0238  00BA               	movwf	___flmul@prod
  3166     0239  2A65               	goto	l828
  3167     023A                     l2121:
  3168     023A  0020               	movlb	0	; select bank0
  3169     023B  083F               	movf	___flmul@temp+1,w
  3170     023C  3A80               	xorlw	128
  3171     023D  00AE               	movwf	??___flmul
  3172     023E  3080               	movlw	128
  3173     023F  022E               	subwf	??___flmul,w
  3174     0240  1D03               	skipz
  3175     0241  2A44               	goto	u2255
  3176     0242  3001               	movlw	1
  3177     0243  023E               	subwf	___flmul@temp,w
  3178     0244                     u2255:
  3179     0244  1803               	skipnc
  3180     0245  2A47               	goto	u2251
  3181     0246  2A48               	goto	u2250
  3182     0247                     u2251:
  3183     0247  2A53               	goto	l2127
  3184     0248                     u2250:
  3185     0248                     l2123:
  3186     0248  3000               	movlw	0
  3187     0249  0020               	movlb	0	; select bank0
  3188     024A  00BD               	movwf	___flmul@prod+3
  3189     024B  3000               	movlw	0
  3190     024C  00BC               	movwf	___flmul@prod+2
  3191     024D  3000               	movlw	0
  3192     024E  00BB               	movwf	___flmul@prod+1
  3193     024F  3000               	movlw	0
  3194     0250  00BA               	movwf	___flmul@prod
  3195     0251                     l2125:
  3196     0251  01B3               	clrf	___flmul@sign
  3197     0252  2A65               	goto	l828
  3198     0253                     l2127:
  3199     0253  0020               	movlb	0	; select bank0
  3200     0254  083E               	movf	___flmul@temp,w
  3201     0255  00B9               	movwf	___flmul@bexp
  3202     0256  30FF               	movlw	255
  3203     0257  05BA               	andwf	___flmul@prod,f
  3204     0258  30FF               	movlw	255
  3205     0259  05BB               	andwf	___flmul@prod+1,f
  3206     025A  307F               	movlw	127
  3207     025B  05BC               	andwf	___flmul@prod+2,f
  3208     025C  3000               	movlw	0
  3209     025D  05BD               	andwf	___flmul@prod+3,f
  3210     025E                     l2129:
  3211     025E  1C39               	btfss	___flmul@bexp,0
  3212     025F  2A61               	goto	u2261
  3213     0260  2A62               	goto	u2260
  3214     0261                     u2261:
  3215     0261  2A63               	goto	l2133
  3216     0262                     u2260:
  3217     0262                     l2131:
  3218     0262  17BC               	bsf	___flmul@prod+2,7
  3219     0263                     l2133:
  3220     0263  3639               	lsrf	___flmul@bexp,w
  3221     0264  00BD               	movwf	___flmul@prod+3
  3222     0265                     l828:
  3223     0265  0833               	movf	___flmul@sign,w
  3224     0266  00AE               	movwf	??___flmul
  3225     0267  082E               	movf	??___flmul,w
  3226     0268  04BD               	iorwf	___flmul@prod+3,f
  3227     0269                     l2135:
  3228     0269  083D               	movf	___flmul@prod+3,w
  3229     026A  00A9               	movwf	?___flmul+3
  3230     026B  083C               	movf	___flmul@prod+2,w
  3231     026C  00A8               	movwf	?___flmul+2
  3232     026D  083B               	movf	___flmul@prod+1,w
  3233     026E  00A7               	movwf	?___flmul+1
  3234     026F  083A               	movf	___flmul@prod,w
  3235     0270  00A6               	movwf	?___flmul
  3236     0271                     l816:
  3237     0271  0008               	return
  3238     0272                     __end_of___flmul:
  3239                           
  3240                           	psect	text4
  3241     063C                     __ptext4:	
  3242 ;; *************** function __Umul8_16 *****************
  3243 ;; Defined at:
  3244 ;;		line 4 in file "C:\Program Files\Microchip\xc8\v2.46\pic\sources\c99\common\Umul8_16.c"
  3245 ;; Parameters:    Size  Location     Type
  3246 ;;  multiplier      1    wreg     unsigned char 
  3247 ;;  multiplicand    1    2[COMMON] unsigned char 
  3248 ;; Auto vars:     Size  Location     Type
  3249 ;;  multiplier      1    4[BANK0 ] unsigned char 
  3250 ;;  word_mpld       2    2[BANK0 ] unsigned short 
  3251 ;;  product         2    0[BANK0 ] unsigned short 
  3252 ;; Return value:  Size  Location     Type
  3253 ;;                  2    2[COMMON] unsigned int 
  3254 ;; Registers used:
  3255 ;;		wreg, status,2, status,0
  3256 ;; Tracked objects:
  3257 ;;		On entry : 0/0
  3258 ;;		On exit  : 0/0
  3259 ;;		Unchanged: 0/0
  3260 ;; Data sizes:     COMMON   BANK0   BANK1   BANK2   BANK3   BANK4
  3261 ;;      Params:         2       0       0       0       0       0
  3262 ;;      Locals:         0       5       0       0       0       0
  3263 ;;      Temps:          2       0       0       0       0       0
  3264 ;;      Totals:         4       5       0       0       0       0
  3265 ;;Total ram usage:        9 bytes
  3266 ;; Hardware stack levels used: 1
  3267 ;; Hardware stack levels required when called: 3
  3268 ;; This function calls:
  3269 ;;		Nothing
  3270 ;; This function is called by:
  3271 ;;		___flmul
  3272 ;; This function uses a non-reentrant model
  3273 ;;
  3274                           
  3275     063C                     __Umul8_16:	
  3276                           ;psect for function __Umul8_16
  3277                           
  3278                           
  3279                           ;incstack = 0
  3280                           ; Regs used in __Umul8_16: [wreg+status,2+status,0]
  3281                           ;__Umul8_16@multiplier stored from wreg
  3282     063C  0020               	movlb	0	; select bank0
  3283     063D  00A4               	movwf	__Umul8_16@multiplier
  3284     063E                     l1985:
  3285     063E  01A0               	clrf	__Umul8_16@product
  3286     063F  01A1               	clrf	__Umul8_16@product+1
  3287     0640                     l1987:
  3288     0640  0872               	movf	__Umul8_16@multiplicand,w
  3289     0641  00F4               	movwf	??__Umul8_16
  3290     0642  01F5               	clrf	??__Umul8_16+1
  3291     0643  0874               	movf	??__Umul8_16,w
  3292     0644  00A2               	movwf	__Umul8_16@word_mpld
  3293     0645  0875               	movf	??__Umul8_16+1,w
  3294     0646  00A3               	movwf	__Umul8_16@word_mpld+1
  3295     0647                     l1989:
  3296     0647  1C24               	btfss	__Umul8_16@multiplier,0
  3297     0648  2E4A               	goto	u1981
  3298     0649  2E4B               	goto	u1980
  3299     064A                     u1981:
  3300     064A  2E4F               	goto	l835
  3301     064B                     u1980:
  3302     064B                     l1991:
  3303     064B  0822               	movf	__Umul8_16@word_mpld,w
  3304     064C  07A0               	addwf	__Umul8_16@product,f
  3305     064D  0823               	movf	__Umul8_16@word_mpld+1,w
  3306     064E  3DA1               	addwfc	__Umul8_16@product+1,f
  3307     064F                     l835:
  3308     064F  3001               	movlw	1
  3309     0650                     u1995:
  3310     0650  35A2               	lslf	__Umul8_16@word_mpld,f
  3311     0651  0DA3               	rlf	__Umul8_16@word_mpld+1,f
  3312     0652  0B89               	decfsz	9,f
  3313     0653  2E50               	goto	u1995
  3314     0654  1003               	clrc
  3315     0655  0CA4               	rrf	__Umul8_16@multiplier,f
  3316     0656                     l1993:
  3317     0656  0824               	movf	__Umul8_16@multiplier,w
  3318     0657  1D03               	btfss	3,2
  3319     0658  2E5A               	goto	u2001
  3320     0659  2E5B               	goto	u2000
  3321     065A                     u2001:
  3322     065A  2E47               	goto	l1989
  3323     065B                     u2000:
  3324     065B                     l1995:
  3325     065B  0821               	movf	__Umul8_16@product+1,w
  3326     065C  00F3               	movwf	?__Umul8_16+1
  3327     065D  0820               	movf	__Umul8_16@product,w
  3328     065E  00F2               	movwf	?__Umul8_16
  3329     065F                     l837:
  3330     065F  0008               	return
  3331     0660                     __end_of__Umul8_16:
  3332                           
  3333                           	psect	text5
  3334     0272                     __ptext5:	
  3335 ;; *************** function ___fldiv *****************
  3336 ;; Defined at:
  3337 ;;		line 8 in file "C:\Program Files\Microchip\xc8\v2.46\pic\sources\c99\common\sprcdiv.c"
  3338 ;; Parameters:    Size  Location     Type
  3339 ;;  a               4    6[BANK0 ] unsigned int 
  3340 ;;  b               4   10[BANK0 ] unsigned int 
  3341 ;; Auto vars:     Size  Location     Type
  3342 ;;  grs             4   26[BANK0 ] unsigned long 
  3343 ;;  rem             4   19[BANK0 ] unsigned long 
  3344 ;;  new_exp         2   24[BANK0 ] short 
  3345 ;;  aexp            1   31[BANK0 ] unsigned char 
  3346 ;;  bexp            1   30[BANK0 ] unsigned char 
  3347 ;;  sign            1   23[BANK0 ] unsigned char 
  3348 ;; Return value:  Size  Location     Type
  3349 ;;                  4    6[BANK0 ] unsigned char 
  3350 ;; Registers used:
  3351 ;;		wreg, status,2, status,0
  3352 ;; Tracked objects:
  3353 ;;		On entry : 0/0
  3354 ;;		On exit  : 0/0
  3355 ;;		Unchanged: 0/0
  3356 ;; Data sizes:     COMMON   BANK0   BANK1   BANK2   BANK3   BANK4
  3357 ;;      Params:         0       8       0       0       0       0
  3358 ;;      Locals:         0      13       0       0       0       0
  3359 ;;      Temps:          0       5       0       0       0       0
  3360 ;;      Totals:         0      26       0       0       0       0
  3361 ;;Total ram usage:       26 bytes
  3362 ;; Hardware stack levels used: 1
  3363 ;; Hardware stack levels required when called: 3
  3364 ;; This function calls:
  3365 ;;		Nothing
  3366 ;; This function is called by:
  3367 ;;		_main
  3368 ;; This function uses a non-reentrant model
  3369 ;;
  3370                           
  3371     0272                     ___fldiv:	
  3372                           ;psect for function ___fldiv
  3373                           
  3374     0272                     l1635:	
  3375                           ;incstack = 0
  3376                           ; Regs used in ___fldiv: [wreg+status,2+status,0]
  3377                           
  3378     0272  0020               	movlb	0	; select bank0
  3379     0273  082D               	movf	___fldiv@b+3,w
  3380     0274  3980               	andlw	128
  3381     0275  00B7               	movwf	___fldiv@sign
  3382     0276                     l1637:
  3383     0276  352D               	lslf	___fldiv@b+3,w
  3384     0277  00BE               	movwf	___fldiv@bexp
  3385     0278                     l1639:
  3386     0278  1FAC               	btfss	___fldiv@b+2,7
  3387     0279  2A7B               	goto	u1251
  3388     027A  2A7C               	goto	u1250
  3389     027B                     u1251:
  3390     027B  2A7D               	goto	l1643
  3391     027C                     u1250:
  3392     027C                     l1641:
  3393     027C  143E               	bsf	___fldiv@bexp,0
  3394     027D                     l1643:
  3395     027D  083E               	movf	___fldiv@bexp,w
  3396     027E  1903               	btfsc	3,2
  3397     027F  2A81               	goto	u1261
  3398     0280  2A82               	goto	u1260
  3399     0281                     u1261:
  3400     0281  2A92               	goto	l1653
  3401     0282                     u1260:
  3402     0282                     l1645:
  3403     0282  0A3E               	incf	___fldiv@bexp,w
  3404     0283  1D03               	btfss	3,2
  3405     0284  2A86               	goto	u1271
  3406     0285  2A87               	goto	u1270
  3407     0286                     u1271:
  3408     0286  2A8F               	goto	l1649
  3409     0287                     u1270:
  3410     0287                     l1647:
  3411     0287  3000               	movlw	0
  3412     0288  00AD               	movwf	___fldiv@b+3
  3413     0289  3000               	movlw	0
  3414     028A  00AC               	movwf	___fldiv@b+2
  3415     028B  3000               	movlw	0
  3416     028C  00AB               	movwf	___fldiv@b+1
  3417     028D  3000               	movlw	0
  3418     028E  00AA               	movwf	___fldiv@b
  3419     028F                     l1649:
  3420     028F  17AC               	bsf	___fldiv@b+2,7
  3421     0290                     l1651:
  3422     0290  01AD               	clrf	___fldiv@b+3
  3423     0291  2A9A               	goto	l1655
  3424     0292                     l1653:
  3425     0292  3000               	movlw	0
  3426     0293  00AD               	movwf	___fldiv@b+3
  3427     0294  3000               	movlw	0
  3428     0295  00AC               	movwf	___fldiv@b+2
  3429     0296  3000               	movlw	0
  3430     0297  00AB               	movwf	___fldiv@b+1
  3431     0298  3000               	movlw	0
  3432     0299  00AA               	movwf	___fldiv@b
  3433     029A                     l1655:
  3434     029A  0829               	movf	___fldiv@a+3,w
  3435     029B  3980               	andlw	128
  3436     029C  00AE               	movwf	??___fldiv
  3437     029D  082E               	movf	??___fldiv,w
  3438     029E  06B7               	xorwf	___fldiv@sign,f
  3439     029F                     l1657:
  3440     029F  3529               	lslf	___fldiv@a+3,w
  3441     02A0  00BF               	movwf	___fldiv@aexp
  3442     02A1                     l1659:
  3443     02A1  1FA8               	btfss	___fldiv@a+2,7
  3444     02A2  2AA4               	goto	u1281
  3445     02A3  2AA5               	goto	u1280
  3446     02A4                     u1281:
  3447     02A4  2AA6               	goto	l1663
  3448     02A5                     u1280:
  3449     02A5                     l1661:
  3450     02A5  143F               	bsf	___fldiv@aexp,0
  3451     02A6                     l1663:
  3452     02A6  083F               	movf	___fldiv@aexp,w
  3453     02A7  1903               	btfsc	3,2
  3454     02A8  2AAA               	goto	u1291
  3455     02A9  2AAB               	goto	u1290
  3456     02AA                     u1291:
  3457     02AA  2ABB               	goto	l1673
  3458     02AB                     u1290:
  3459     02AB                     l1665:
  3460     02AB  0A3F               	incf	___fldiv@aexp,w
  3461     02AC  1D03               	btfss	3,2
  3462     02AD  2AAF               	goto	u1301
  3463     02AE  2AB0               	goto	u1300
  3464     02AF                     u1301:
  3465     02AF  2AB8               	goto	l1669
  3466     02B0                     u1300:
  3467     02B0                     l1667:
  3468     02B0  3000               	movlw	0
  3469     02B1  00A9               	movwf	___fldiv@a+3
  3470     02B2  3000               	movlw	0
  3471     02B3  00A8               	movwf	___fldiv@a+2
  3472     02B4  3000               	movlw	0
  3473     02B5  00A7               	movwf	___fldiv@a+1
  3474     02B6  3000               	movlw	0
  3475     02B7  00A6               	movwf	___fldiv@a
  3476     02B8                     l1669:
  3477     02B8  17A8               	bsf	___fldiv@a+2,7
  3478     02B9                     l1671:
  3479     02B9  01A9               	clrf	___fldiv@a+3
  3480     02BA  2AC3               	goto	l776
  3481     02BB                     l1673:
  3482     02BB  3000               	movlw	0
  3483     02BC  00A9               	movwf	___fldiv@a+3
  3484     02BD  3000               	movlw	0
  3485     02BE  00A8               	movwf	___fldiv@a+2
  3486     02BF  3000               	movlw	0
  3487     02C0  00A7               	movwf	___fldiv@a+1
  3488     02C1  3000               	movlw	0
  3489     02C2  00A6               	movwf	___fldiv@a
  3490     02C3                     l776:
  3491     02C3  0829               	movf	___fldiv@a+3,w
  3492     02C4  0428               	iorwf	___fldiv@a+2,w
  3493     02C5  0427               	iorwf	___fldiv@a+1,w
  3494     02C6  0426               	iorwf	___fldiv@a,w
  3495     02C7  1D03               	skipz
  3496     02C8  2ACA               	goto	u1311
  3497     02C9  2ACB               	goto	u1310
  3498     02CA                     u1311:
  3499     02CA  2AE4               	goto	l1683
  3500     02CB                     u1310:
  3501     02CB                     l1675:
  3502     02CB  3000               	movlw	0
  3503     02CC  00AD               	movwf	___fldiv@b+3
  3504     02CD  3000               	movlw	0
  3505     02CE  00AC               	movwf	___fldiv@b+2
  3506     02CF  3000               	movlw	0
  3507     02D0  00AB               	movwf	___fldiv@b+1
  3508     02D1  3000               	movlw	0
  3509     02D2  00AA               	movwf	___fldiv@b
  3510     02D3  3080               	movlw	128
  3511     02D4  04AC               	iorwf	___fldiv@b+2,f
  3512     02D5  307F               	movlw	127
  3513     02D6  04AD               	iorwf	___fldiv@b+3,f
  3514     02D7                     l1677:
  3515     02D7  0837               	movf	___fldiv@sign,w
  3516     02D8  00AE               	movwf	??___fldiv
  3517     02D9  082E               	movf	??___fldiv,w
  3518     02DA  04AD               	iorwf	___fldiv@b+3,f
  3519     02DB                     l1679:
  3520     02DB  082D               	movf	___fldiv@b+3,w
  3521     02DC  00A9               	movwf	?___fldiv+3
  3522     02DD  082C               	movf	___fldiv@b+2,w
  3523     02DE  00A8               	movwf	?___fldiv+2
  3524     02DF  082B               	movf	___fldiv@b+1,w
  3525     02E0  00A7               	movwf	?___fldiv+1
  3526     02E1  082A               	movf	___fldiv@b,w
  3527     02E2  00A6               	movwf	?___fldiv
  3528     02E3  2C1B               	goto	l778
  3529     02E4                     l1683:
  3530     02E4  083E               	movf	___fldiv@bexp,w
  3531     02E5  1D03               	btfss	3,2
  3532     02E6  2AE8               	goto	u1321
  3533     02E7  2AE9               	goto	u1320
  3534     02E8                     u1321:
  3535     02E8  2AF2               	goto	l1689
  3536     02E9                     u1320:
  3537     02E9                     l1685:
  3538     02E9  3000               	movlw	0
  3539     02EA  00A9               	movwf	?___fldiv+3
  3540     02EB  3000               	movlw	0
  3541     02EC  00A8               	movwf	?___fldiv+2
  3542     02ED  3000               	movlw	0
  3543     02EE  00A7               	movwf	?___fldiv+1
  3544     02EF  3000               	movlw	0
  3545     02F0  00A6               	movwf	?___fldiv
  3546     02F1  2C1B               	goto	l778
  3547     02F2                     l1689:
  3548     02F2  083E               	movf	___fldiv@bexp,w
  3549     02F3  00AE               	movwf	??___fldiv
  3550     02F4  01AF               	clrf	??___fldiv+1
  3551     02F5  082F               	movf	??___fldiv+1,w
  3552     02F6  00B1               	movwf	??___fldiv+3
  3553     02F7  083F               	movf	___fldiv@aexp,w
  3554     02F8  022E               	subwf	??___fldiv,w
  3555     02F9  00B0               	movwf	??___fldiv+2
  3556     02FA  1C03               	skipc
  3557     02FB  03B1               	decf	??___fldiv+3,f
  3558     02FC  0830               	movf	??___fldiv+2,w
  3559     02FD  3E7F               	addlw	127
  3560     02FE  00B8               	movwf	___fldiv@new_exp
  3561     02FF  3000               	movlw	0
  3562     0300  3D31               	addwfc	??___fldiv+3,w
  3563     0301  00B9               	movwf	___fldiv@new_exp+1
  3564     0302                     l1691:
  3565     0302  082D               	movf	___fldiv@b+3,w
  3566     0303  00B6               	movwf	___fldiv@rem+3
  3567     0304  082C               	movf	___fldiv@b+2,w
  3568     0305  00B5               	movwf	___fldiv@rem+2
  3569     0306  082B               	movf	___fldiv@b+1,w
  3570     0307  00B4               	movwf	___fldiv@rem+1
  3571     0308  082A               	movf	___fldiv@b,w
  3572     0309  00B3               	movwf	___fldiv@rem
  3573     030A                     l1693:
  3574     030A  3000               	movlw	0
  3575     030B  00AD               	movwf	___fldiv@b+3
  3576     030C  3000               	movlw	0
  3577     030D  00AC               	movwf	___fldiv@b+2
  3578     030E  3000               	movlw	0
  3579     030F  00AB               	movwf	___fldiv@b+1
  3580     0310  3000               	movlw	0
  3581     0311  00AA               	movwf	___fldiv@b
  3582     0312                     l1695:
  3583     0312  3000               	movlw	0
  3584     0313  00BD               	movwf	___fldiv@grs+3
  3585     0314  3000               	movlw	0
  3586     0315  00BC               	movwf	___fldiv@grs+2
  3587     0316  3000               	movlw	0
  3588     0317  00BB               	movwf	___fldiv@grs+1
  3589     0318  3000               	movlw	0
  3590     0319  00BA               	movwf	___fldiv@grs
  3591     031A                     l1697:
  3592     031A  01BF               	clrf	___fldiv@aexp
  3593     031B  2B5A               	goto	l1717
  3594     031C                     l1699:
  3595     031C  083F               	movf	___fldiv@aexp,w
  3596     031D  1903               	btfsc	3,2
  3597     031E  2B20               	goto	u1331
  3598     031F  2B21               	goto	u1330
  3599     0320                     u1331:
  3600     0320  2B3B               	goto	l1709
  3601     0321                     u1330:
  3602     0321                     l1701:
  3603     0321  3001               	movlw	1
  3604     0322                     u1345:
  3605     0322  35B3               	lslf	___fldiv@rem,f
  3606     0323  0DB4               	rlf	___fldiv@rem+1,f
  3607     0324  0DB5               	rlf	___fldiv@rem+2,f
  3608     0325  0DB6               	rlf	___fldiv@rem+3,f
  3609     0326  0B89               	decfsz	9,f
  3610     0327  2B22               	goto	u1345
  3611     0328  3001               	movlw	1
  3612     0329                     u1355:
  3613     0329  35AA               	lslf	___fldiv@b,f
  3614     032A  0DAB               	rlf	___fldiv@b+1,f
  3615     032B  0DAC               	rlf	___fldiv@b+2,f
  3616     032C  0DAD               	rlf	___fldiv@b+3,f
  3617     032D  0B89               	decfsz	9,f
  3618     032E  2B29               	goto	u1355
  3619     032F                     l1703:
  3620     032F  1FBD               	btfss	___fldiv@grs+3,7
  3621     0330  2B32               	goto	u1361
  3622     0331  2B33               	goto	u1360
  3623     0332                     u1361:
  3624     0332  2B34               	goto	l1707
  3625     0333                     u1360:
  3626     0333                     l1705:
  3627     0333  142A               	bsf	___fldiv@b,0
  3628     0334                     l1707:
  3629     0334  3001               	movlw	1
  3630     0335                     u1375:
  3631     0335  35BA               	lslf	___fldiv@grs,f
  3632     0336  0DBB               	rlf	___fldiv@grs+1,f
  3633     0337  0DBC               	rlf	___fldiv@grs+2,f
  3634     0338  0DBD               	rlf	___fldiv@grs+3,f
  3635     0339  0B89               	decfsz	9,f
  3636     033A  2B35               	goto	u1375
  3637     033B                     l1709:
  3638     033B  0829               	movf	___fldiv@a+3,w
  3639     033C  0236               	subwf	___fldiv@rem+3,w
  3640     033D  1D03               	skipz
  3641     033E  2B49               	goto	u1385
  3642     033F  0828               	movf	___fldiv@a+2,w
  3643     0340  0235               	subwf	___fldiv@rem+2,w
  3644     0341  1D03               	skipz
  3645     0342  2B49               	goto	u1385
  3646     0343  0827               	movf	___fldiv@a+1,w
  3647     0344  0234               	subwf	___fldiv@rem+1,w
  3648     0345  1D03               	skipz
  3649     0346  2B49               	goto	u1385
  3650     0347  0826               	movf	___fldiv@a,w
  3651     0348  0233               	subwf	___fldiv@rem,w
  3652     0349                     u1385:
  3653     0349  1C03               	skipc
  3654     034A  2B4C               	goto	u1381
  3655     034B  2B4D               	goto	u1380
  3656     034C                     u1381:
  3657     034C  2B56               	goto	l1715
  3658     034D                     u1380:
  3659     034D                     l1711:
  3660     034D  173D               	bsf	___fldiv@grs+3,6
  3661     034E                     l1713:
  3662     034E  0826               	movf	___fldiv@a,w
  3663     034F  02B3               	subwf	___fldiv@rem,f
  3664     0350  0827               	movf	___fldiv@a+1,w
  3665     0351  3BB4               	subwfb	___fldiv@rem+1,f
  3666     0352  0828               	movf	___fldiv@a+2,w
  3667     0353  3BB5               	subwfb	___fldiv@rem+2,f
  3668     0354  0829               	movf	___fldiv@a+3,w
  3669     0355  3BB6               	subwfb	___fldiv@rem+3,f
  3670     0356                     l1715:
  3671     0356  3001               	movlw	1
  3672     0357  00AE               	movwf	??___fldiv
  3673     0358  082E               	movf	??___fldiv,w
  3674     0359  07BF               	addwf	___fldiv@aexp,f
  3675     035A                     l1717:
  3676     035A  301A               	movlw	26
  3677     035B  023F               	subwf	___fldiv@aexp,w
  3678     035C  1C03               	skipc
  3679     035D  2B5F               	goto	u1391
  3680     035E  2B60               	goto	u1390
  3681     035F                     u1391:
  3682     035F  2B1C               	goto	l1699
  3683     0360                     u1390:
  3684     0360                     l1719:
  3685     0360  0836               	movf	___fldiv@rem+3,w
  3686     0361  0435               	iorwf	___fldiv@rem+2,w
  3687     0362  0434               	iorwf	___fldiv@rem+1,w
  3688     0363  0433               	iorwf	___fldiv@rem,w
  3689     0364  1903               	skipnz
  3690     0365  2B67               	goto	u1401
  3691     0366  2B68               	goto	u1400
  3692     0367                     u1401:
  3693     0367  2B81               	goto	l1733
  3694     0368                     u1400:
  3695     0368                     l1721:
  3696     0368  143A               	bsf	___fldiv@grs,0
  3697     0369  2B81               	goto	l1733
  3698     036A                     l1723:
  3699     036A  3001               	movlw	1
  3700     036B                     u1415:
  3701     036B  35AA               	lslf	___fldiv@b,f
  3702     036C  0DAB               	rlf	___fldiv@b+1,f
  3703     036D  0DAC               	rlf	___fldiv@b+2,f
  3704     036E  0DAD               	rlf	___fldiv@b+3,f
  3705     036F  0B89               	decfsz	9,f
  3706     0370  2B6B               	goto	u1415
  3707     0371                     l1725:
  3708     0371  1FBD               	btfss	___fldiv@grs+3,7
  3709     0372  2B74               	goto	u1421
  3710     0373  2B75               	goto	u1420
  3711     0374                     u1421:
  3712     0374  2B76               	goto	l1729
  3713     0375                     u1420:
  3714     0375                     l1727:
  3715     0375  142A               	bsf	___fldiv@b,0
  3716     0376                     l1729:
  3717     0376  3001               	movlw	1
  3718     0377                     u1435:
  3719     0377  35BA               	lslf	___fldiv@grs,f
  3720     0378  0DBB               	rlf	___fldiv@grs+1,f
  3721     0379  0DBC               	rlf	___fldiv@grs+2,f
  3722     037A  0DBD               	rlf	___fldiv@grs+3,f
  3723     037B  0B89               	decfsz	9,f
  3724     037C  2B77               	goto	u1435
  3725     037D                     l1731:
  3726     037D  30FF               	movlw	255
  3727     037E  07B8               	addwf	___fldiv@new_exp,f
  3728     037F  30FF               	movlw	255
  3729     0380  3DB9               	addwfc	___fldiv@new_exp+1,f
  3730     0381                     l1733:
  3731     0381  1FAC               	btfss	___fldiv@b+2,7
  3732     0382  2B84               	goto	u1441
  3733     0383  2B85               	goto	u1440
  3734     0384                     u1441:
  3735     0384  2B6A               	goto	l1723
  3736     0385                     u1440:
  3737     0385                     l1735:
  3738     0385  01BF               	clrf	___fldiv@aexp
  3739     0386                     l1737:
  3740     0386  1FBD               	btfss	___fldiv@grs+3,7
  3741     0387  2B89               	goto	u1451
  3742     0388  2B8A               	goto	u1450
  3743     0389                     u1451:
  3744     0389  2BA6               	goto	l1745
  3745     038A                     u1450:
  3746     038A                     l1739:
  3747     038A  30FF               	movlw	255
  3748     038B  053A               	andwf	___fldiv@grs,w
  3749     038C  00AE               	movwf	??___fldiv
  3750     038D  30FF               	movlw	255
  3751     038E  053B               	andwf	___fldiv@grs+1,w
  3752     038F  00AF               	movwf	??___fldiv+1
  3753     0390  30FF               	movlw	255
  3754     0391  053C               	andwf	___fldiv@grs+2,w
  3755     0392  00B0               	movwf	??___fldiv+2
  3756     0393  307F               	movlw	127
  3757     0394  053D               	andwf	___fldiv@grs+3,w
  3758     0395  00B1               	movwf	??___fldiv+3
  3759     0396  0831               	movf	??___fldiv+3,w
  3760     0397  0430               	iorwf	??___fldiv+2,w
  3761     0398  042F               	iorwf	??___fldiv+1,w
  3762     0399  042E               	iorwf	??___fldiv,w
  3763     039A  1903               	skipnz
  3764     039B  2B9D               	goto	u1461
  3765     039C  2B9E               	goto	u1460
  3766     039D                     u1461:
  3767     039D  2BA1               	goto	l792
  3768     039E                     u1460:
  3769     039E                     l1741:
  3770     039E  01BF               	clrf	___fldiv@aexp
  3771     039F  0ABF               	incf	___fldiv@aexp,f
  3772     03A0  2BA6               	goto	l1745
  3773     03A1                     l792:
  3774     03A1  1C2A               	btfss	___fldiv@b,0
  3775     03A2  2BA4               	goto	u1471
  3776     03A3  2BA5               	goto	u1470
  3777     03A4                     u1471:
  3778     03A4  2BA6               	goto	l1745
  3779     03A5                     u1470:
  3780     03A5  2B9E               	goto	l1741
  3781     03A6                     l1745:
  3782     03A6  083F               	movf	___fldiv@aexp,w
  3783     03A7  1903               	btfsc	3,2
  3784     03A8  2BAA               	goto	u1481
  3785     03A9  2BAB               	goto	u1480
  3786     03AA                     u1481:
  3787     03AA  2BD3               	goto	l1755
  3788     03AB                     u1480:
  3789     03AB                     l1747:
  3790     03AB  3001               	movlw	1
  3791     03AC  07AA               	addwf	___fldiv@b,f
  3792     03AD  3000               	movlw	0
  3793     03AE  3DAB               	addwfc	___fldiv@b+1,f
  3794     03AF  3000               	movlw	0
  3795     03B0  3DAC               	addwfc	___fldiv@b+2,f
  3796     03B1  3000               	movlw	0
  3797     03B2  3DAD               	addwfc	___fldiv@b+3,f
  3798     03B3                     l1749:
  3799     03B3  1C2D               	btfss	___fldiv@b+3,0
  3800     03B4  2BB6               	goto	u1491
  3801     03B5  2BB7               	goto	u1490
  3802     03B6                     u1491:
  3803     03B6  2BD3               	goto	l1755
  3804     03B7                     u1490:
  3805     03B7                     l1751:
  3806     03B7  082A               	movf	___fldiv@b,w
  3807     03B8  00AE               	movwf	??___fldiv
  3808     03B9  082B               	movf	___fldiv@b+1,w
  3809     03BA  00AF               	movwf	??___fldiv+1
  3810     03BB  082C               	movf	___fldiv@b+2,w
  3811     03BC  00B0               	movwf	??___fldiv+2
  3812     03BD  082D               	movf	___fldiv@b+3,w
  3813     03BE  00B1               	movwf	??___fldiv+3
  3814     03BF  3001               	movlw	1
  3815     03C0  00B2               	movwf	??___fldiv+4
  3816     03C1                     u1505:
  3817     03C1  37B1               	asrf	??___fldiv+3,f
  3818     03C2  0CB0               	rrf	??___fldiv+2,f
  3819     03C3  0CAF               	rrf	??___fldiv+1,f
  3820     03C4  0CAE               	rrf	??___fldiv,f
  3821     03C5                     u1500:
  3822     03C5  0BB2               	decfsz	??___fldiv+4,f
  3823     03C6  2BC1               	goto	u1505
  3824     03C7  0831               	movf	??___fldiv+3,w
  3825     03C8  00AD               	movwf	___fldiv@b+3
  3826     03C9  0830               	movf	??___fldiv+2,w
  3827     03CA  00AC               	movwf	___fldiv@b+2
  3828     03CB  082F               	movf	??___fldiv+1,w
  3829     03CC  00AB               	movwf	___fldiv@b+1
  3830     03CD  082E               	movf	??___fldiv,w
  3831     03CE  00AA               	movwf	___fldiv@b
  3832     03CF                     l1753:
  3833     03CF  3001               	movlw	1
  3834     03D0  07B8               	addwf	___fldiv@new_exp,f
  3835     03D1  3000               	movlw	0
  3836     03D2  3DB9               	addwfc	___fldiv@new_exp+1,f
  3837     03D3                     l1755:
  3838     03D3  0839               	movf	___fldiv@new_exp+1,w
  3839     03D4  3A80               	xorlw	128
  3840     03D5  00AE               	movwf	??___fldiv
  3841     03D6  3080               	movlw	128
  3842     03D7  022E               	subwf	??___fldiv,w
  3843     03D8  1D03               	skipz
  3844     03D9  2BDC               	goto	u1515
  3845     03DA  30FF               	movlw	255
  3846     03DB  0238               	subwf	___fldiv@new_exp,w
  3847     03DC                     u1515:
  3848     03DC  1C03               	skipc
  3849     03DD  2BDF               	goto	u1511
  3850     03DE  2BE0               	goto	u1510
  3851     03DF                     u1511:
  3852     03DF  2BED               	goto	l797
  3853     03E0                     u1510:
  3854     03E0                     l1757:
  3855     03E0  30FF               	movlw	255
  3856     03E1  0020               	movlb	0	; select bank0
  3857     03E2  00B8               	movwf	___fldiv@new_exp
  3858     03E3  3000               	movlw	0
  3859     03E4  00B9               	movwf	___fldiv@new_exp+1
  3860     03E5  3000               	movlw	0
  3861     03E6  00AD               	movwf	___fldiv@b+3
  3862     03E7  3000               	movlw	0
  3863     03E8  00AC               	movwf	___fldiv@b+2
  3864     03E9  3000               	movlw	0
  3865     03EA  00AB               	movwf	___fldiv@b+1
  3866     03EB  3000               	movlw	0
  3867     03EC  00AA               	movwf	___fldiv@b
  3868     03ED                     l797:
  3869     03ED  0020               	movlb	0	; select bank0
  3870     03EE  0839               	movf	___fldiv@new_exp+1,w
  3871     03EF  3A80               	xorlw	128
  3872     03F0  00AE               	movwf	??___fldiv
  3873     03F1  3080               	movlw	128
  3874     03F2  022E               	subwf	??___fldiv,w
  3875     03F3  1D03               	skipz
  3876     03F4  2BF7               	goto	u1525
  3877     03F5  3001               	movlw	1
  3878     03F6  0238               	subwf	___fldiv@new_exp,w
  3879     03F7                     u1525:
  3880     03F7  1803               	skipnc
  3881     03F8  2BFA               	goto	u1521
  3882     03F9  2BFB               	goto	u1520
  3883     03FA                     u1521:
  3884     03FA  2C07               	goto	l798
  3885     03FB                     u1520:
  3886     03FB                     l1759:
  3887     03FB  0020               	movlb	0	; select bank0
  3888     03FC  01B8               	clrf	___fldiv@new_exp
  3889     03FD  01B9               	clrf	___fldiv@new_exp+1
  3890     03FE                     l1761:
  3891     03FE  3000               	movlw	0
  3892     03FF  00AD               	movwf	___fldiv@b+3
  3893     0400  3000               	movlw	0
  3894     0401  00AC               	movwf	___fldiv@b+2
  3895     0402  3000               	movlw	0
  3896     0403  00AB               	movwf	___fldiv@b+1
  3897     0404  3000               	movlw	0
  3898     0405  00AA               	movwf	___fldiv@b
  3899     0406                     l1763:
  3900     0406  01B7               	clrf	___fldiv@sign
  3901     0407                     l798:
  3902     0407  0020               	movlb	0	; select bank0
  3903     0408  0838               	movf	___fldiv@new_exp,w
  3904     0409  00BE               	movwf	___fldiv@bexp
  3905     040A                     l1765:
  3906     040A  1C3E               	btfss	___fldiv@bexp,0
  3907     040B  2C0D               	goto	u1531
  3908     040C  2C0E               	goto	u1530
  3909     040D                     u1531:
  3910     040D  2C10               	goto	l1769
  3911     040E                     u1530:
  3912     040E                     l1767:
  3913     040E  17AC               	bsf	___fldiv@b+2,7
  3914     040F  2C14               	goto	l800
  3915     0410                     l1769:
  3916     0410  307F               	movlw	127
  3917     0411  00AE               	movwf	??___fldiv
  3918     0412  082E               	movf	??___fldiv,w
  3919     0413  05AC               	andwf	___fldiv@b+2,f
  3920     0414                     l800:
  3921     0414  363E               	lsrf	___fldiv@bexp,w
  3922     0415  00AD               	movwf	___fldiv@b+3
  3923     0416  0837               	movf	___fldiv@sign,w
  3924     0417  00AE               	movwf	??___fldiv
  3925     0418  082E               	movf	??___fldiv,w
  3926     0419  04AD               	iorwf	___fldiv@b+3,f
  3927     041A  2ADB               	goto	l1679
  3928     041B                     l778:
  3929     041B  0008               	return
  3930     041C                     __end_of___fldiv:
  3931                           
  3932                           	psect	text6
  3933     06C1                     __ptext6:	
  3934 ;; *************** function _SYSTEM_Initialize *****************
  3935 ;; Defined at:
  3936 ;;		line 50 in file "mcc_generated_files/mcc.c"
  3937 ;; Parameters:    Size  Location     Type
  3938 ;;		None
  3939 ;; Auto vars:     Size  Location     Type
  3940 ;;		None
  3941 ;; Return value:  Size  Location     Type
  3942 ;;                  1    wreg      void 
  3943 ;; Registers used:
  3944 ;;		wreg, status,2, status,0, pclath, cstack
  3945 ;; Tracked objects:
  3946 ;;		On entry : 0/0
  3947 ;;		On exit  : 0/0
  3948 ;;		Unchanged: 0/0
  3949 ;; Data sizes:     COMMON   BANK0   BANK1   BANK2   BANK3   BANK4
  3950 ;;      Params:         0       0       0       0       0       0
  3951 ;;      Locals:         0       0       0       0       0       0
  3952 ;;      Temps:          0       0       0       0       0       0
  3953 ;;      Totals:         0       0       0       0       0       0
  3954 ;;Total ram usage:        0 bytes
  3955 ;; Hardware stack levels used: 1
  3956 ;; Hardware stack levels required when called: 5
  3957 ;; This function calls:
  3958 ;;		_ADC_Initialize
  3959 ;;		_EPWM2_Initialize
  3960 ;;		_OSCILLATOR_Initialize
  3961 ;;		_PIN_MANAGER_Initialize
  3962 ;;		_TMR1_Initialize
  3963 ;;		_TMR2_Initialize
  3964 ;;		_WDT_Initialize
  3965 ;; This function is called by:
  3966 ;;		_main
  3967 ;; This function uses a non-reentrant model
  3968 ;;
  3969                           
  3970     06C1                     _SYSTEM_Initialize:	
  3971                           ;psect for function _SYSTEM_Initialize
  3972                           
  3973     06C1                     l1589:	
  3974                           ;incstack = 0
  3975                           ; Regs used in _SYSTEM_Initialize: [wreg+status,2+status,0+pclath+cstack]
  3976                           
  3977                           
  3978                           ;mcc_generated_files/mcc.c: 53:     PIN_MANAGER_Initialize();
  3979     06C1  3186  2692  3186   	fcall	_PIN_MANAGER_Initialize
  3980                           
  3981                           ;mcc_generated_files/mcc.c: 54:     OSCILLATOR_Initialize();
  3982     06C4  3187  271C  3186   	fcall	_OSCILLATOR_Initialize
  3983                           
  3984                           ;mcc_generated_files/mcc.c: 55:     WDT_Initialize();
  3985     06C7  3187  272F  3186   	fcall	_WDT_Initialize
  3986                           
  3987                           ;mcc_generated_files/mcc.c: 56:     EPWM2_Initialize();
  3988     06CA  3186  26FE  3186   	fcall	_EPWM2_Initialize
  3989                           
  3990                           ;mcc_generated_files/mcc.c: 57:     ADC_Initialize();
  3991     06CD  3187  2714  3186   	fcall	_ADC_Initialize
  3992                           
  3993                           ;mcc_generated_files/mcc.c: 58:     TMR2_Initialize();
  3994     06D0  3187  270C  3186   	fcall	_TMR2_Initialize
  3995                           
  3996                           ;mcc_generated_files/mcc.c: 59:     TMR1_Initialize();
  3997     06D3  3186  267A  3186   	fcall	_TMR1_Initialize
  3998     06D6                     l143:
  3999     06D6  0008               	return
  4000     06D7                     __end_of_SYSTEM_Initialize:
  4001                           
  4002                           	psect	text7
  4003     072F                     __ptext7:	
  4004 ;; *************** function _WDT_Initialize *****************
  4005 ;; Defined at:
  4006 ;;		line 72 in file "mcc_generated_files/mcc.c"
  4007 ;; Parameters:    Size  Location     Type
  4008 ;;		None
  4009 ;; Auto vars:     Size  Location     Type
  4010 ;;		None
  4011 ;; Return value:  Size  Location     Type
  4012 ;;                  1    wreg      void 
  4013 ;; Registers used:
  4014 ;;		wreg
  4015 ;; Tracked objects:
  4016 ;;		On entry : 0/0
  4017 ;;		On exit  : 0/0
  4018 ;;		Unchanged: 0/0
  4019 ;; Data sizes:     COMMON   BANK0   BANK1   BANK2   BANK3   BANK4
  4020 ;;      Params:         0       0       0       0       0       0
  4021 ;;      Locals:         0       0       0       0       0       0
  4022 ;;      Temps:          0       0       0       0       0       0
  4023 ;;      Totals:         0       0       0       0       0       0
  4024 ;;Total ram usage:        0 bytes
  4025 ;; Hardware stack levels used: 1
  4026 ;; Hardware stack levels required when called: 3
  4027 ;; This function calls:
  4028 ;;		Nothing
  4029 ;; This function is called by:
  4030 ;;		_SYSTEM_Initialize
  4031 ;; This function uses a non-reentrant model
  4032 ;;
  4033                           
  4034     072F                     _WDT_Initialize:	
  4035                           ;psect for function _WDT_Initialize
  4036                           
  4037     072F                     l1507:	
  4038                           ;incstack = 0
  4039                           ; Regs used in _WDT_Initialize: [wreg]
  4040                           
  4041                           
  4042                           ;mcc_generated_files/mcc.c: 75:     WDTCON = 0x16;
  4043     072F  3016               	movlw	22
  4044     0730  0021               	movlb	1	; select bank1
  4045     0731  0097               	movwf	23	;volatile
  4046     0732                     l149:
  4047     0732  0008               	return
  4048     0733                     __end_of_WDT_Initialize:
  4049                           
  4050                           	psect	text8
  4051     070C                     __ptext8:	
  4052 ;; *************** function _TMR2_Initialize *****************
  4053 ;; Defined at:
  4054 ;;		line 62 in file "mcc_generated_files/tmr2.c"
  4055 ;; Parameters:    Size  Location     Type
  4056 ;;		None
  4057 ;; Auto vars:     Size  Location     Type
  4058 ;;		None
  4059 ;; Return value:  Size  Location     Type
  4060 ;;                  1    wreg      void 
  4061 ;; Registers used:
  4062 ;;		wreg, status,2
  4063 ;; Tracked objects:
  4064 ;;		On entry : 0/0
  4065 ;;		On exit  : 0/0
  4066 ;;		Unchanged: 0/0
  4067 ;; Data sizes:     COMMON   BANK0   BANK1   BANK2   BANK3   BANK4
  4068 ;;      Params:         0       0       0       0       0       0
  4069 ;;      Locals:         0       0       0       0       0       0
  4070 ;;      Temps:          0       0       0       0       0       0
  4071 ;;      Totals:         0       0       0       0       0       0
  4072 ;;Total ram usage:        0 bytes
  4073 ;; Hardware stack levels used: 1
  4074 ;; Hardware stack levels required when called: 3
  4075 ;; This function calls:
  4076 ;;		Nothing
  4077 ;; This function is called by:
  4078 ;;		_SYSTEM_Initialize
  4079 ;; This function uses a non-reentrant model
  4080 ;;
  4081                           
  4082     070C                     _TMR2_Initialize:	
  4083                           ;psect for function _TMR2_Initialize
  4084                           
  4085     070C                     l1493:	
  4086                           ;incstack = 0
  4087                           ; Regs used in _TMR2_Initialize: [wreg+status,2]
  4088                           
  4089                           
  4090                           ;mcc_generated_files/tmr2.c: 67:     PR2 = 0xFF;
  4091     070C  30FF               	movlw	255
  4092     070D  0020               	movlb	0	; select bank0
  4093     070E  009B               	movwf	27	;volatile
  4094     070F                     l1495:
  4095                           
  4096                           ;mcc_generated_files/tmr2.c: 70:     TMR2 = 0x00;
  4097     070F  019A               	clrf	26	;volatile
  4098     0710                     l1497:
  4099                           
  4100                           ;mcc_generated_files/tmr2.c: 73:     PIR1bits.TMR2IF = 0;
  4101     0710  1091               	bcf	17,1	;volatile
  4102     0711                     l1499:
  4103                           
  4104                           ;mcc_generated_files/tmr2.c: 76:     T2CON = 0x04;
  4105     0711  3004               	movlw	4
  4106     0712  009C               	movwf	28	;volatile
  4107     0713                     l99:
  4108     0713  0008               	return
  4109     0714                     __end_of_TMR2_Initialize:
  4110                           
  4111                           	psect	text9
  4112     067A                     __ptext9:	
  4113 ;; *************** function _TMR1_Initialize *****************
  4114 ;; Defined at:
  4115 ;;		line 64 in file "mcc_generated_files/tmr1.c"
  4116 ;; Parameters:    Size  Location     Type
  4117 ;;		None
  4118 ;; Auto vars:     Size  Location     Type
  4119 ;;		None
  4120 ;; Return value:  Size  Location     Type
  4121 ;;                  1    wreg      void 
  4122 ;; Registers used:
  4123 ;;		wreg, status,2, status,0, pclath, cstack
  4124 ;; Tracked objects:
  4125 ;;		On entry : 0/0
  4126 ;;		On exit  : 0/0
  4127 ;;		Unchanged: 0/0
  4128 ;; Data sizes:     COMMON   BANK0   BANK1   BANK2   BANK3   BANK4
  4129 ;;      Params:         0       0       0       0       0       0
  4130 ;;      Locals:         0       0       0       0       0       0
  4131 ;;      Temps:          0       0       0       0       0       0
  4132 ;;      Totals:         0       0       0       0       0       0
  4133 ;;Total ram usage:        0 bytes
  4134 ;; Hardware stack levels used: 1
  4135 ;; Hardware stack levels required when called: 4
  4136 ;; This function calls:
  4137 ;;		_TMR1_SetInterruptHandler
  4138 ;; This function is called by:
  4139 ;;		_SYSTEM_Initialize
  4140 ;; This function uses a non-reentrant model
  4141 ;;
  4142                           
  4143     067A                     _TMR1_Initialize:	
  4144                           ;psect for function _TMR1_Initialize
  4145                           
  4146     067A                     l1509:	
  4147                           ;incstack = 0
  4148                           ; Regs used in _TMR1_Initialize: [wreg+status,2+status,0+pclath+cstack]
  4149                           
  4150                           
  4151                           ;mcc_generated_files/tmr1.c: 69:     T1GCON = 0x00;
  4152     067A  0020               	movlb	0	; select bank0
  4153     067B  0199               	clrf	25	;volatile
  4154     067C                     l1511:
  4155                           
  4156                           ;mcc_generated_files/tmr1.c: 72:     TMR1H = 0xFC;
  4157     067C  30FC               	movlw	252
  4158     067D  0097               	movwf	23	;volatile
  4159     067E                     l1513:
  4160                           
  4161                           ;mcc_generated_files/tmr1.c: 75:     TMR1L = 0x18;
  4162     067E  3018               	movlw	24
  4163     067F  0096               	movwf	22	;volatile
  4164     0680                     l1515:
  4165                           
  4166                           ;mcc_generated_files/tmr1.c: 78:     PIR1bits.TMR1IF = 0;
  4167     0680  1011               	bcf	17,0	;volatile
  4168     0681                     l1517:
  4169                           
  4170                           ;mcc_generated_files/tmr1.c: 81:     timer1ReloadVal=(uint16_t)((TMR1H << 8) | TMR1L);
  4171     0681  0817               	movf	23,w	;volatile
  4172     0682  00CD               	movwf	_timer1ReloadVal+1	;volatile
  4173     0683  0816               	movf	22,w	;volatile
  4174     0684  00CC               	movwf	_timer1ReloadVal	;volatile
  4175     0685                     l1519:
  4176                           
  4177                           ;mcc_generated_files/tmr1.c: 84:     PIE1bits.TMR1IE = 1;
  4178     0685  0021               	movlb	1	; select bank1
  4179     0686  1411               	bsf	17,0	;volatile
  4180     0687                     l1521:
  4181                           
  4182                           ;mcc_generated_files/tmr1.c: 87:     TMR1_SetInterruptHandler(TMR1_DefaultInterruptHandl
      +                          er);
  4183     0687  3033               	movlw	low _TMR1_DefaultInterruptHandler
  4184     0688  00F2               	movwf	TMR1_SetInterruptHandler@InterruptHandler
  4185     0689  3007               	movlw	high _TMR1_DefaultInterruptHandler
  4186     068A  00F3               	movwf	TMR1_SetInterruptHandler@InterruptHandler+1
  4187     068B  3187  2729  3186   	fcall	_TMR1_SetInterruptHandler
  4188     068E                     l1523:
  4189                           
  4190                           ;mcc_generated_files/tmr1.c: 90:     T1CON = 0x01;
  4191     068E  3001               	movlw	1
  4192     068F  0020               	movlb	0	; select bank0
  4193     0690  0098               	movwf	24	;volatile
  4194     0691                     l176:
  4195     0691  0008               	return
  4196     0692                     __end_of_TMR1_Initialize:
  4197                           
  4198                           	psect	text10
  4199     0729                     __ptext10:	
  4200 ;; *************** function _TMR1_SetInterruptHandler *****************
  4201 ;; Defined at:
  4202 ;;		line 171 in file "mcc_generated_files/tmr1.c"
  4203 ;; Parameters:    Size  Location     Type
  4204 ;;  InterruptHan    2    2[COMMON] PTR FTN()void 
  4205 ;;		 -> PWMs(1), TMR1_DefaultInterruptHandler(1), 
  4206 ;; Auto vars:     Size  Location     Type
  4207 ;;		None
  4208 ;; Return value:  Size  Location     Type
  4209 ;;                  1    wreg      void 
  4210 ;; Registers used:
  4211 ;;		wreg
  4212 ;; Tracked objects:
  4213 ;;		On entry : 0/0
  4214 ;;		On exit  : 0/0
  4215 ;;		Unchanged: 0/0
  4216 ;; Data sizes:     COMMON   BANK0   BANK1   BANK2   BANK3   BANK4
  4217 ;;      Params:         2       0       0       0       0       0
  4218 ;;      Locals:         0       0       0       0       0       0
  4219 ;;      Temps:          0       0       0       0       0       0
  4220 ;;      Totals:         2       0       0       0       0       0
  4221 ;;Total ram usage:        2 bytes
  4222 ;; Hardware stack levels used: 1
  4223 ;; Hardware stack levels required when called: 3
  4224 ;; This function calls:
  4225 ;;		Nothing
  4226 ;; This function is called by:
  4227 ;;		_TMR1_Initialize
  4228 ;;		_main
  4229 ;; This function uses a non-reentrant model
  4230 ;;
  4231                           
  4232     0729                     _TMR1_SetInterruptHandler:	
  4233                           ;psect for function _TMR1_SetInterruptHandler
  4234                           
  4235     0729                     l1455:	
  4236                           ;incstack = 0
  4237                           ; Regs used in _TMR1_SetInterruptHandler: [wreg]
  4238                           
  4239                           
  4240                           ;mcc_generated_files/tmr1.c: 172:     TMR1_InterruptHandler = InterruptHandler;
  4241     0729  0873               	movf	TMR1_SetInterruptHandler@InterruptHandler+1,w
  4242     072A  0020               	movlb	0	; select bank0
  4243     072B  00D9               	movwf	_TMR1_InterruptHandler+1
  4244     072C  0872               	movf	TMR1_SetInterruptHandler@InterruptHandler,w
  4245     072D  00D8               	movwf	_TMR1_InterruptHandler
  4246     072E                     l206:
  4247     072E  0008               	return
  4248     072F                     __end_of_TMR1_SetInterruptHandler:
  4249                           
  4250                           	psect	text11
  4251     0692                     __ptext11:	
  4252 ;; *************** function _PIN_MANAGER_Initialize *****************
  4253 ;; Defined at:
  4254 ;;		line 55 in file "mcc_generated_files/pin_manager.c"
  4255 ;; Parameters:    Size  Location     Type
  4256 ;;		None
  4257 ;; Auto vars:     Size  Location     Type
  4258 ;;		None
  4259 ;; Return value:  Size  Location     Type
  4260 ;;                  1    wreg      void 
  4261 ;; Registers used:
  4262 ;;		wreg, status,2
  4263 ;; Tracked objects:
  4264 ;;		On entry : 0/0
  4265 ;;		On exit  : 0/0
  4266 ;;		Unchanged: 0/0
  4267 ;; Data sizes:     COMMON   BANK0   BANK1   BANK2   BANK3   BANK4
  4268 ;;      Params:         0       0       0       0       0       0
  4269 ;;      Locals:         0       0       0       0       0       0
  4270 ;;      Temps:          0       0       0       0       0       0
  4271 ;;      Totals:         0       0       0       0       0       0
  4272 ;;Total ram usage:        0 bytes
  4273 ;; Hardware stack levels used: 1
  4274 ;; Hardware stack levels required when called: 3
  4275 ;; This function calls:
  4276 ;;		Nothing
  4277 ;; This function is called by:
  4278 ;;		_SYSTEM_Initialize
  4279 ;; This function uses a non-reentrant model
  4280 ;;
  4281                           
  4282     0692                     _PIN_MANAGER_Initialize:	
  4283                           ;psect for function _PIN_MANAGER_Initialize
  4284                           
  4285     0692                     l1475:	
  4286                           ;incstack = 0
  4287                           ; Regs used in _PIN_MANAGER_Initialize: [wreg+status,2]
  4288                           
  4289                           
  4290                           ;mcc_generated_files/pin_manager.c: 60:     LATA = 0x00;
  4291     0692  0022               	movlb	2	; select bank2
  4292     0693  018C               	clrf	12	;volatile
  4293                           
  4294                           ;mcc_generated_files/pin_manager.c: 61:     LATB = 0x00;
  4295     0694  018D               	clrf	13	;volatile
  4296     0695                     l1477:
  4297                           
  4298                           ;mcc_generated_files/pin_manager.c: 66:     TRISA = 0x7F;
  4299     0695  307F               	movlw	127
  4300     0696  0021               	movlb	1	; select bank1
  4301     0697  008C               	movwf	12	;volatile
  4302     0698                     l1479:
  4303                           
  4304                           ;mcc_generated_files/pin_manager.c: 67:     TRISB = 0xFF;
  4305     0698  30FF               	movlw	255
  4306     0699  008D               	movwf	13	;volatile
  4307     069A                     l1481:
  4308                           
  4309                           ;mcc_generated_files/pin_manager.c: 72:     ANSELB = 0xFE;
  4310     069A  30FE               	movlw	254
  4311     069B  0023               	movlb	3	; select bank3
  4312     069C  008D               	movwf	13	;volatile
  4313     069D                     l1483:
  4314                           
  4315                           ;mcc_generated_files/pin_manager.c: 73:     ANSELA = 0x1F;
  4316     069D  301F               	movlw	31
  4317     069E  008C               	movwf	12	;volatile
  4318     069F                     l1485:
  4319                           
  4320                           ;mcc_generated_files/pin_manager.c: 78:     WPUB = 0x01;
  4321     069F  3001               	movlw	1
  4322     06A0  0024               	movlb	4	; select bank4
  4323     06A1  008D               	movwf	13	;volatile
  4324     06A2                     l1487:
  4325                           
  4326                           ;mcc_generated_files/pin_manager.c: 79:     WPUA = 0x00;
  4327     06A2  018C               	clrf	12	;volatile
  4328     06A3                     l1489:
  4329                           
  4330                           ;mcc_generated_files/pin_manager.c: 80:     OPTION_REGbits.nWPUEN = 0;
  4331     06A3  0021               	movlb	1	; select bank1
  4332     06A4  1395               	bcf	21,7	;volatile
  4333                           
  4334                           ;mcc_generated_files/pin_manager.c: 86:     APFCON0 = 0x08;
  4335     06A5  3008               	movlw	8
  4336     06A6  0022               	movlb	2	; select bank2
  4337     06A7  009D               	movwf	29	;volatile
  4338     06A8                     l1491:
  4339                           
  4340                           ;mcc_generated_files/pin_manager.c: 87:     APFCON1 = 0x00;
  4341     06A8  019E               	clrf	30	;volatile
  4342     06A9                     l83:
  4343     06A9  0008               	return
  4344     06AA                     __end_of_PIN_MANAGER_Initialize:
  4345                           
  4346                           	psect	text12
  4347     071C                     __ptext12:	
  4348 ;; *************** function _OSCILLATOR_Initialize *****************
  4349 ;; Defined at:
  4350 ;;		line 62 in file "mcc_generated_files/mcc.c"
  4351 ;; Parameters:    Size  Location     Type
  4352 ;;		None
  4353 ;; Auto vars:     Size  Location     Type
  4354 ;;		None
  4355 ;; Return value:  Size  Location     Type
  4356 ;;                  1    wreg      void 
  4357 ;; Registers used:
  4358 ;;		wreg, status,2
  4359 ;; Tracked objects:
  4360 ;;		On entry : 0/0
  4361 ;;		On exit  : 0/0
  4362 ;;		Unchanged: 0/0
  4363 ;; Data sizes:     COMMON   BANK0   BANK1   BANK2   BANK3   BANK4
  4364 ;;      Params:         0       0       0       0       0       0
  4365 ;;      Locals:         0       0       0       0       0       0
  4366 ;;      Temps:          0       0       0       0       0       0
  4367 ;;      Totals:         0       0       0       0       0       0
  4368 ;;Total ram usage:        0 bytes
  4369 ;; Hardware stack levels used: 1
  4370 ;; Hardware stack levels required when called: 3
  4371 ;; This function calls:
  4372 ;;		Nothing
  4373 ;; This function is called by:
  4374 ;;		_SYSTEM_Initialize
  4375 ;; This function uses a non-reentrant model
  4376 ;;
  4377                           
  4378     071C                     _OSCILLATOR_Initialize:	
  4379                           ;psect for function _OSCILLATOR_Initialize
  4380                           
  4381     071C                     l1501:	
  4382                           ;incstack = 0
  4383                           ; Regs used in _OSCILLATOR_Initialize: [wreg+status,2]
  4384                           
  4385                           
  4386                           ;mcc_generated_files/mcc.c: 65:     OSCCON = 0x68;
  4387     071C  3068               	movlw	104
  4388     071D  0021               	movlb	1	; select bank1
  4389     071E  0099               	movwf	25	;volatile
  4390     071F                     l1503:
  4391                           
  4392                           ;mcc_generated_files/mcc.c: 67:     OSCTUNE = 0x00;
  4393     071F  0198               	clrf	24	;volatile
  4394     0720                     l1505:
  4395                           
  4396                           ;mcc_generated_files/mcc.c: 69:     BORCON = 0x00;
  4397     0720  0022               	movlb	2	; select bank2
  4398     0721  0196               	clrf	22	;volatile
  4399     0722                     l146:
  4400     0722  0008               	return
  4401     0723                     __end_of_OSCILLATOR_Initialize:
  4402                           
  4403                           	psect	text13
  4404     06FE                     __ptext13:	
  4405 ;; *************** function _EPWM2_Initialize *****************
  4406 ;; Defined at:
  4407 ;;		line 64 in file "mcc_generated_files/epwm2.c"
  4408 ;; Parameters:    Size  Location     Type
  4409 ;;		None
  4410 ;; Auto vars:     Size  Location     Type
  4411 ;;		None
  4412 ;; Return value:  Size  Location     Type
  4413 ;;                  1    wreg      void 
  4414 ;; Registers used:
  4415 ;;		wreg, status,2, status,0
  4416 ;; Tracked objects:
  4417 ;;		On entry : 0/0
  4418 ;;		On exit  : 0/0
  4419 ;;		Unchanged: 0/0
  4420 ;; Data sizes:     COMMON   BANK0   BANK1   BANK2   BANK3   BANK4
  4421 ;;      Params:         0       0       0       0       0       0
  4422 ;;      Locals:         0       0       0       0       0       0
  4423 ;;      Temps:          0       0       0       0       0       0
  4424 ;;      Totals:         0       0       0       0       0       0
  4425 ;;Total ram usage:        0 bytes
  4426 ;; Hardware stack levels used: 1
  4427 ;; Hardware stack levels required when called: 3
  4428 ;; This function calls:
  4429 ;;		Nothing
  4430 ;; This function is called by:
  4431 ;;		_SYSTEM_Initialize
  4432 ;; This function uses a non-reentrant model
  4433 ;;
  4434                           
  4435     06FE                     _EPWM2_Initialize:	
  4436                           ;psect for function _EPWM2_Initialize
  4437                           
  4438     06FE                     l1457:	
  4439                           ;incstack = 0
  4440                           ; Regs used in _EPWM2_Initialize: [wreg+status,2+status,0]
  4441                           
  4442                           
  4443                           ;mcc_generated_files/epwm2.c: 69:  CCP2CON = 0x3F;
  4444     06FE  303F               	movlw	63
  4445     06FF  0025               	movlb	5	; select bank5
  4446     0700  009A               	movwf	26	;volatile
  4447     0701                     l1459:
  4448                           
  4449                           ;mcc_generated_files/epwm2.c: 72:  ECCP2AS = 0x00;
  4450     0701  019C               	clrf	28	;volatile
  4451     0702                     l1461:
  4452                           
  4453                           ;mcc_generated_files/epwm2.c: 75:  PWM2CON = 0xBF;
  4454     0702  30BF               	movlw	191
  4455     0703  009B               	movwf	27	;volatile
  4456     0704                     l1463:
  4457                           
  4458                           ;mcc_generated_files/epwm2.c: 78:  PSTR2CON = 0x01;
  4459     0704  3001               	movlw	1
  4460     0705  009D               	movwf	29	;volatile
  4461     0706                     l1465:
  4462                           
  4463                           ;mcc_generated_files/epwm2.c: 81:  CCPR2H = 0x00;
  4464     0706  0199               	clrf	25	;volatile
  4465                           
  4466                           ;mcc_generated_files/epwm2.c: 84:  CCPR2L = 0x7F;
  4467     0707  307F               	movlw	127
  4468     0708  0098               	movwf	24	;volatile
  4469     0709                     l1467:
  4470                           
  4471                           ;mcc_generated_files/epwm2.c: 87:  CCPTMRS0bits.C2TSEL = 0x0;
  4472     0709  30F3               	movlw	-13
  4473     070A  059E               	andwf	30,f	;volatile
  4474     070B                     l17:
  4475     070B  0008               	return
  4476     070C                     __end_of_EPWM2_Initialize:
  4477                           
  4478                           	psect	text14
  4479     0714                     __ptext14:	
  4480 ;; *************** function _ADC_Initialize *****************
  4481 ;; Defined at:
  4482 ;;		line 67 in file "mcc_generated_files/adc.c"
  4483 ;; Parameters:    Size  Location     Type
  4484 ;;		None
  4485 ;; Auto vars:     Size  Location     Type
  4486 ;;		None
  4487 ;; Return value:  Size  Location     Type
  4488 ;;                  1    wreg      void 
  4489 ;; Registers used:
  4490 ;;		wreg, status,2
  4491 ;; Tracked objects:
  4492 ;;		On entry : 0/0
  4493 ;;		On exit  : 0/0
  4494 ;;		Unchanged: 0/0
  4495 ;; Data sizes:     COMMON   BANK0   BANK1   BANK2   BANK3   BANK4
  4496 ;;      Params:         0       0       0       0       0       0
  4497 ;;      Locals:         0       0       0       0       0       0
  4498 ;;      Temps:          0       0       0       0       0       0
  4499 ;;      Totals:         0       0       0       0       0       0
  4500 ;;Total ram usage:        0 bytes
  4501 ;; Hardware stack levels used: 1
  4502 ;; Hardware stack levels required when called: 3
  4503 ;; This function calls:
  4504 ;;		Nothing
  4505 ;; This function is called by:
  4506 ;;		_SYSTEM_Initialize
  4507 ;; This function uses a non-reentrant model
  4508 ;;
  4509                           
  4510     0714                     _ADC_Initialize:	
  4511                           ;psect for function _ADC_Initialize
  4512                           
  4513     0714                     l1469:	
  4514                           ;incstack = 0
  4515                           ; Regs used in _ADC_Initialize: [wreg+status,2]
  4516                           
  4517                           
  4518                           ;mcc_generated_files/adc.c: 72:     ADCON1 = 0xC0;
  4519     0714  30C0               	movlw	192
  4520     0715  0021               	movlb	1	; select bank1
  4521     0716  009E               	movwf	30	;volatile
  4522     0717                     l1471:
  4523                           
  4524                           ;mcc_generated_files/adc.c: 75:     ADRESL = 0x00;
  4525     0717  019B               	clrf	27	;volatile
  4526     0718                     l1473:
  4527                           
  4528                           ;mcc_generated_files/adc.c: 78:     ADRESH = 0x00;
  4529     0718  019C               	clrf	28	;volatile
  4530                           
  4531                           ;mcc_generated_files/adc.c: 81:     ADCON0 = 0x01;
  4532     0719  3001               	movlw	1
  4533     071A  009D               	movwf	29	;volatile
  4534     071B                     l37:
  4535     071B  0008               	return
  4536     071C                     __end_of_ADC_Initialize:
  4537                           
  4538                           	psect	text15
  4539     06AA                     __ptext15:	
  4540 ;; *************** function _EPWM2_LoadDutyValue *****************
  4541 ;; Defined at:
  4542 ;;		line 90 in file "mcc_generated_files/epwm2.c"
  4543 ;; Parameters:    Size  Location     Type
  4544 ;;  dutyValue       2    2[COMMON] unsigned short 
  4545 ;; Auto vars:     Size  Location     Type
  4546 ;;		None
  4547 ;; Return value:  Size  Location     Type
  4548 ;;                  1    wreg      void 
  4549 ;; Registers used:
  4550 ;;		wreg, status,2, status,0
  4551 ;; Tracked objects:
  4552 ;;		On entry : 0/0
  4553 ;;		On exit  : 0/0
  4554 ;;		Unchanged: 0/0
  4555 ;; Data sizes:     COMMON   BANK0   BANK1   BANK2   BANK3   BANK4
  4556 ;;      Params:         2       0       0       0       0       0
  4557 ;;      Locals:         0       0       0       0       0       0
  4558 ;;      Temps:          2       0       0       0       0       0
  4559 ;;      Totals:         4       0       0       0       0       0
  4560 ;;Total ram usage:        4 bytes
  4561 ;; Hardware stack levels used: 1
  4562 ;; Hardware stack levels required when called: 3
  4563 ;; This function calls:
  4564 ;;		Nothing
  4565 ;; This function is called by:
  4566 ;;		_main
  4567 ;; This function uses a non-reentrant model
  4568 ;;
  4569                           
  4570     06AA                     _EPWM2_LoadDutyValue:	
  4571                           ;psect for function _EPWM2_LoadDutyValue
  4572                           
  4573     06AA                     l1575:	
  4574                           ;incstack = 0
  4575                           ; Regs used in _EPWM2_LoadDutyValue: [wreg+status,2+status,0]
  4576                           
  4577                           
  4578                           ;mcc_generated_files/epwm2.c: 90: void EPWM2_LoadDutyValue(uint16_t dutyValue);mcc_gener
      +                          ated_files/epwm2.c: 91: {;mcc_generated_files/epwm2.c: 93:     CCPR2L = ((dutyValue & 0x
      +                          03FC)>>2);
  4579     06AA  0873               	movf	EPWM2_LoadDutyValue@dutyValue+1,w
  4580     06AB  00F5               	movwf	??_EPWM2_LoadDutyValue+1
  4581     06AC  0872               	movf	EPWM2_LoadDutyValue@dutyValue,w
  4582     06AD  00F4               	movwf	??_EPWM2_LoadDutyValue
  4583     06AE  36F5               	lsrf	??_EPWM2_LoadDutyValue+1,f
  4584     06AF  0CF4               	rrf	??_EPWM2_LoadDutyValue,f
  4585     06B0  36F5               	lsrf	??_EPWM2_LoadDutyValue+1,f
  4586     06B1  0CF4               	rrf	??_EPWM2_LoadDutyValue,f
  4587     06B2  0874               	movf	??_EPWM2_LoadDutyValue,w
  4588     06B3  0025               	movlb	5	; select bank5
  4589     06B4  0098               	movwf	24	;volatile
  4590                           
  4591                           ;mcc_generated_files/epwm2.c: 96:     CCP2CON = ((uint8_t)(CCP2CON & 0xCF) | ((dutyValue
      +                           & 0x0003)<<4));
  4592     06B5  0872               	movf	EPWM2_LoadDutyValue@dutyValue,w
  4593     06B6  3903               	andlw	3
  4594     06B7  00F4               	movwf	??_EPWM2_LoadDutyValue
  4595     06B8  3004               	movlw	4
  4596     06B9                     u1125:
  4597     06B9  35F4               	lslf	??_EPWM2_LoadDutyValue,f
  4598     06BA  0B89               	decfsz	9,f
  4599     06BB  2EB9               	goto	u1125
  4600     06BC  081A               	movf	26,w	;volatile
  4601     06BD  39CF               	andlw	207
  4602     06BE  0474               	iorwf	??_EPWM2_LoadDutyValue,w
  4603     06BF  009A               	movwf	26	;volatile
  4604     06C0                     l20:
  4605     06C0  0008               	return
  4606     06C1                     __end_of_EPWM2_LoadDutyValue:
  4607                           
  4608                           	psect	text16
  4609     0660                     __ptext16:	
  4610 ;; *************** function _ADC_GetConversion *****************
  4611 ;; Defined at:
  4612 ;;		line 112 in file "mcc_generated_files/adc.c"
  4613 ;; Parameters:    Size  Location     Type
  4614 ;;  channel         1    wreg     enum E2495
  4615 ;; Auto vars:     Size  Location     Type
  4616 ;;  channel         1    5[COMMON] enum E2495
  4617 ;; Return value:  Size  Location     Type
  4618 ;;                  2    2[COMMON] unsigned short 
  4619 ;; Registers used:
  4620 ;;		wreg, status,2, status,0
  4621 ;; Tracked objects:
  4622 ;;		On entry : 0/0
  4623 ;;		On exit  : 0/0
  4624 ;;		Unchanged: 0/0
  4625 ;; Data sizes:     COMMON   BANK0   BANK1   BANK2   BANK3   BANK4
  4626 ;;      Params:         2       0       0       0       0       0
  4627 ;;      Locals:         1       0       0       0       0       0
  4628 ;;      Temps:          1       0       0       0       0       0
  4629 ;;      Totals:         4       0       0       0       0       0
  4630 ;;Total ram usage:        4 bytes
  4631 ;; Hardware stack levels used: 1
  4632 ;; Hardware stack levels required when called: 3
  4633 ;; This function calls:
  4634 ;;		Nothing
  4635 ;; This function is called by:
  4636 ;;		_main
  4637 ;; This function uses a non-reentrant model
  4638 ;;
  4639                           
  4640     0660                     _ADC_GetConversion:	
  4641                           ;psect for function _ADC_GetConversion
  4642                           
  4643                           
  4644                           ;incstack = 0
  4645                           ; Regs used in _ADC_GetConversion: [wreg+status,2+status,0]
  4646                           ;ADC_GetConversion@channel stored from wreg
  4647     0660  00F5               	movwf	ADC_GetConversion@channel
  4648     0661                     l1577:
  4649                           
  4650                           ;mcc_generated_files/adc.c: 112: adc_result_t ADC_GetConversion(adc_channel_t channel);m
      +                          cc_generated_files/adc.c: 113: {;mcc_generated_files/adc.c: 115:     ADCON0bits.CHS = ch
      +                          annel;
  4651     0661  0875               	movf	ADC_GetConversion@channel,w
  4652     0662  00F4               	movwf	??_ADC_GetConversion
  4653     0663  0DF4               	rlf	??_ADC_GetConversion,f
  4654     0664  0DF4               	rlf	??_ADC_GetConversion,f
  4655     0665  0021               	movlb	1	; select bank1
  4656     0666  081D               	movf	29,w	;volatile
  4657     0667  0674               	xorwf	??_ADC_GetConversion,w
  4658     0668  3983               	andlw	-125
  4659     0669  0674               	xorwf	??_ADC_GetConversion,w
  4660     066A  009D               	movwf	29	;volatile
  4661     066B                     l1579:
  4662                           
  4663                           ;mcc_generated_files/adc.c: 118:     ADCON0bits.ADON = 1;
  4664     066B  141D               	bsf	29,0	;volatile
  4665     066C                     l1581:
  4666                           
  4667                           ;mcc_generated_files/adc.c: 121:     _delay((unsigned long)((5)*(4000000/4000000.0)));
  4668     066C  3200               	nop2	;2 cycle nop
  4669     066D  3200               	nop2	;2 cycle nop
  4670     066E  0000               	nop
  4671     066F                     l1583:
  4672                           
  4673                           ;mcc_generated_files/adc.c: 124:     ADCON0bits.GO_nDONE = 1;
  4674     066F  0021               	movlb	1	; select bank1
  4675     0670  149D               	bsf	29,1	;volatile
  4676     0671                     l52:	
  4677                           ;mcc_generated_files/adc.c: 128:     {;mcc_generated_files/adc.c: 129:     }
  4678                           
  4679                           
  4680                           ;mcc_generated_files/adc.c: 127:     while (ADCON0bits.GO_nDONE)
  4681     0671  189D               	btfsc	29,1	;volatile
  4682     0672  2E74               	goto	u1131
  4683     0673  2E75               	goto	u1130
  4684     0674                     u1131:
  4685     0674  2E71               	goto	l52
  4686     0675                     u1130:
  4687     0675                     l1585:
  4688                           
  4689                           ;mcc_generated_files/adc.c: 132:     return ((adc_result_t)((ADRESH << 8) + ADRESL));
  4690     0675  081C               	movf	28,w	;volatile
  4691     0676  00F3               	movwf	?_ADC_GetConversion+1
  4692     0677  081B               	movf	27,w	;volatile
  4693     0678  00F2               	movwf	?_ADC_GetConversion
  4694     0679                     l55:
  4695     0679  0008               	return
  4696     067A                     __end_of_ADC_GetConversion:
  4697                           
  4698                           	psect	intentry
  4699     0004                     __pintentry:	
  4700 ;; *************** function _INTERRUPT_InterruptManager *****************
  4701 ;; Defined at:
  4702 ;;		line 52 in file "mcc_generated_files/interrupt_manager.c"
  4703 ;; Parameters:    Size  Location     Type
  4704 ;;		None
  4705 ;; Auto vars:     Size  Location     Type
  4706 ;;		None
  4707 ;; Return value:  Size  Location     Type
  4708 ;;                  1    wreg      void 
  4709 ;; Registers used:
  4710 ;;		wreg, status,2, status,0, pclath, cstack
  4711 ;; Tracked objects:
  4712 ;;		On entry : 0/0
  4713 ;;		On exit  : 0/0
  4714 ;;		Unchanged: 0/0
  4715 ;; Data sizes:     COMMON   BANK0   BANK1   BANK2   BANK3   BANK4
  4716 ;;      Params:         0       0       0       0       0       0
  4717 ;;      Locals:         0       0       0       0       0       0
  4718 ;;      Temps:          0       0       0       0       0       0
  4719 ;;      Totals:         0       0       0       0       0       0
  4720 ;;Total ram usage:        0 bytes
  4721 ;; Hardware stack levels used: 1
  4722 ;; Hardware stack levels required when called: 2
  4723 ;; This function calls:
  4724 ;;		_TMR1_ISR
  4725 ;; This function is called by:
  4726 ;;		Interrupt level 1
  4727 ;; This function uses a non-reentrant model
  4728 ;;
  4729                           
  4730     0004                     _INTERRUPT_InterruptManager:
  4731                           
  4732                           ;incstack = 0
  4733     0004  147E               	bsf	int$flags,0	;set compiler interrupt flag (level 1)
  4734                           
  4735                           ; Regs used in _INTERRUPT_InterruptManager: [wreg+status,2+status,0+pclath+cstack]
  4736     0005  3180               	pagesel	$
  4737     0006                     i1l1961:
  4738                           
  4739                           ;mcc_generated_files/interrupt_manager.c: 55:     if(INTCONbits.PEIE == 1)
  4740     0006  1F0B               	btfss	11,6	;volatile
  4741     0007  2809               	goto	u194_21
  4742     0008  280A               	goto	u194_20
  4743     0009                     u194_21:
  4744     0009  2817               	goto	i1l226
  4745     000A                     u194_20:
  4746     000A                     i1l1963:
  4747                           
  4748                           ;mcc_generated_files/interrupt_manager.c: 56:     {;mcc_generated_files/interrupt_manage
      +                          r.c: 57:         if(PIE1bits.TMR1IE == 1 && PIR1bits.TMR1IF == 1)
  4749     000A  0021               	movlb	1	; select bank1
  4750     000B  1C11               	btfss	17,0	;volatile
  4751     000C  280E               	goto	u195_21
  4752     000D  280F               	goto	u195_20
  4753     000E                     u195_21:
  4754     000E  2817               	goto	i1l226
  4755     000F                     u195_20:
  4756     000F                     i1l1965:
  4757     000F  0020               	movlb	0	; select bank0
  4758     0010  1C11               	btfss	17,0	;volatile
  4759     0011  2813               	goto	u196_21
  4760     0012  2814               	goto	u196_20
  4761     0013                     u196_21:
  4762     0013  2817               	goto	i1l226
  4763     0014                     u196_20:
  4764     0014                     i1l1967:
  4765                           
  4766                           ;mcc_generated_files/interrupt_manager.c: 58:         {;mcc_generated_files/interrupt_ma
      +                          nager.c: 59:             TMR1_ISR();
  4767     0014  3186  26D7  3180   	fcall	_TMR1_ISR
  4768     0017                     i1l226:	
  4769                           ;mcc_generated_files/interrupt_manager.c: 60:         }
  4770                           
  4771     0017  107E               	bcf	int$flags,0	;clear compiler interrupt flag (level 1)
  4772     0018  0009               	retfie
  4773     0019                     __end_of_INTERRUPT_InterruptManager:
  4774                           
  4775                           	psect	text18
  4776     06D7                     __ptext18:	
  4777 ;; *************** function _TMR1_ISR *****************
  4778 ;; Defined at:
  4779 ;;		line 157 in file "mcc_generated_files/tmr1.c"
  4780 ;; Parameters:    Size  Location     Type
  4781 ;;		None
  4782 ;; Auto vars:     Size  Location     Type
  4783 ;;		None
  4784 ;; Return value:  Size  Location     Type
  4785 ;;                  1    wreg      void 
  4786 ;; Registers used:
  4787 ;;		wreg, status,2, status,0, pclath, cstack
  4788 ;; Tracked objects:
  4789 ;;		On entry : 0/0
  4790 ;;		On exit  : 0/0
  4791 ;;		Unchanged: 0/0
  4792 ;; Data sizes:     COMMON   BANK0   BANK1   BANK2   BANK3   BANK4
  4793 ;;      Params:         0       0       0       0       0       0
  4794 ;;      Locals:         0       0       0       0       0       0
  4795 ;;      Temps:          0       0       0       0       0       0
  4796 ;;      Totals:         0       0       0       0       0       0
  4797 ;;Total ram usage:        0 bytes
  4798 ;; Hardware stack levels used: 1
  4799 ;; Hardware stack levels required when called: 1
  4800 ;; This function calls:
  4801 ;;		NULL
  4802 ;;		_PWMs
  4803 ;;		_TMR1_DefaultInterruptHandler
  4804 ;;		_TMR1_WriteTimer
  4805 ;; This function is called by:
  4806 ;;		_INTERRUPT_InterruptManager
  4807 ;; This function uses a non-reentrant model
  4808 ;;
  4809                           
  4810     06D7                     _TMR1_ISR:	
  4811                           ;psect for function _TMR1_ISR
  4812                           
  4813     06D7                     i1l1591:	
  4814                           ;incstack = 0
  4815                           ; Regs used in _TMR1_ISR: [wreg+status,2+status,0+pclath+cstack]
  4816                           
  4817                           
  4818                           ;mcc_generated_files/tmr1.c: 161:     PIR1bits.TMR1IF = 0;
  4819     06D7  0020               	movlb	0	; select bank0
  4820     06D8  1011               	bcf	17,0	;volatile
  4821     06D9                     i1l1593:
  4822                           
  4823                           ;mcc_generated_files/tmr1.c: 162:     TMR1_WriteTimer(timer1ReloadVal);
  4824     06D9  084D               	movf	_timer1ReloadVal+1,w	;volatile
  4825     06DA  00F1               	movwf	TMR1_WriteTimer@timerVal+1
  4826     06DB  084C               	movf	_timer1ReloadVal,w	;volatile
  4827     06DC  00F0               	movwf	TMR1_WriteTimer@timerVal
  4828     06DD  3186  26ED  3186   	fcall	_TMR1_WriteTimer
  4829     06E0                     i1l1595:
  4830                           
  4831                           ;mcc_generated_files/tmr1.c: 164:     if(TMR1_InterruptHandler)
  4832     06E0  0020               	movlb	0	; select bank0
  4833     06E1  0858               	movf	_TMR1_InterruptHandler,w
  4834     06E2  0459               	iorwf	_TMR1_InterruptHandler+1,w
  4835     06E3  1903               	btfsc	3,2
  4836     06E4  2EE6               	goto	u114_21
  4837     06E5  2EE7               	goto	u114_20
  4838     06E6                     u114_21:
  4839     06E6  2EEC               	goto	i1l203
  4840     06E7                     u114_20:
  4841     06E7                     i1l1597:
  4842                           
  4843                           ;mcc_generated_files/tmr1.c: 165:     {;mcc_generated_files/tmr1.c: 166:         TMR1_In
      +                          terruptHandler();
  4844     06E7  0859               	movf	_TMR1_InterruptHandler+1,w
  4845     06E8  008A               	movwf	10
  4846     06E9  0858               	movf	_TMR1_InterruptHandler,w
  4847     06EA  000A               	callw
  4848     06EB  3186               	pagesel	$
  4849     06EC                     i1l203:
  4850     06EC  0008               	return
  4851     06ED                     __end_of_TMR1_ISR:
  4852                           
  4853                           	psect	text19
  4854     06ED                     __ptext19:	
  4855 ;; *************** function _TMR1_WriteTimer *****************
  4856 ;; Defined at:
  4857 ;;		line 120 in file "mcc_generated_files/tmr1.c"
  4858 ;; Parameters:    Size  Location     Type
  4859 ;;  timerVal        2    0[COMMON] unsigned short 
  4860 ;; Auto vars:     Size  Location     Type
  4861 ;;		None
  4862 ;; Return value:  Size  Location     Type
  4863 ;;                  1    wreg      void 
  4864 ;; Registers used:
  4865 ;;		wreg, status,2
  4866 ;; Tracked objects:
  4867 ;;		On entry : 0/0
  4868 ;;		On exit  : 0/0
  4869 ;;		Unchanged: 0/0
  4870 ;; Data sizes:     COMMON   BANK0   BANK1   BANK2   BANK3   BANK4
  4871 ;;      Params:         2       0       0       0       0       0
  4872 ;;      Locals:         0       0       0       0       0       0
  4873 ;;      Temps:          0       0       0       0       0       0
  4874 ;;      Totals:         2       0       0       0       0       0
  4875 ;;Total ram usage:        2 bytes
  4876 ;; Hardware stack levels used: 1
  4877 ;; This function calls:
  4878 ;;		Nothing
  4879 ;; This function is called by:
  4880 ;;		_TMR1_ISR
  4881 ;;		_TMR1_Reload
  4882 ;; This function uses a non-reentrant model
  4883 ;;
  4884                           
  4885     06ED                     _TMR1_WriteTimer:	
  4886                           ;psect for function _TMR1_WriteTimer
  4887                           
  4888     06ED                     i1l1525:	
  4889                           ;incstack = 0
  4890                           ; Regs used in _TMR1_WriteTimer: [wreg+status,2]
  4891                           
  4892                           
  4893                           ;mcc_generated_files/tmr1.c: 120: void TMR1_WriteTimer(uint16_t timerVal);mcc_generated_
      +                          files/tmr1.c: 121: {;mcc_generated_files/tmr1.c: 122:     if (T1CONbits.nT1SYNC == 1)
  4894     06ED  0020               	movlb	0	; select bank0
  4895     06EE  1D18               	btfss	24,2	;volatile
  4896     06EF  2EF1               	goto	u100_21
  4897     06F0  2EF2               	goto	u100_20
  4898     06F1                     u100_21:
  4899     06F1  2EF9               	goto	i1l1535
  4900     06F2                     u100_20:
  4901     06F2                     i1l1527:
  4902                           
  4903                           ;mcc_generated_files/tmr1.c: 123:     {;mcc_generated_files/tmr1.c: 125:         T1CONbi
      +                          ts.TMR1ON = 0;
  4904     06F2  1018               	bcf	24,0	;volatile
  4905     06F3                     i1l1529:
  4906                           
  4907                           ;mcc_generated_files/tmr1.c: 128:         TMR1H = (uint8_t)(timerVal >> 8);
  4908     06F3  0871               	movf	TMR1_WriteTimer@timerVal+1,w
  4909     06F4  0097               	movwf	23	;volatile
  4910     06F5                     i1l1531:
  4911                           
  4912                           ;mcc_generated_files/tmr1.c: 129:         TMR1L = (uint8_t)timerVal;
  4913     06F5  0870               	movf	TMR1_WriteTimer@timerVal,w
  4914     06F6  0096               	movwf	22	;volatile
  4915     06F7                     i1l1533:
  4916                           
  4917                           ;mcc_generated_files/tmr1.c: 132:         T1CONbits.TMR1ON =1;
  4918     06F7  1418               	bsf	24,0	;volatile
  4919                           
  4920                           ;mcc_generated_files/tmr1.c: 133:     }
  4921     06F8  2EFD               	goto	i1l190
  4922     06F9                     i1l1535:
  4923                           
  4924                           ;mcc_generated_files/tmr1.c: 135:     {;mcc_generated_files/tmr1.c: 137:         TMR1H =
      +                           (uint8_t)(timerVal >> 8);
  4925     06F9  0871               	movf	TMR1_WriteTimer@timerVal+1,w
  4926     06FA  0097               	movwf	23	;volatile
  4927     06FB                     i1l1537:
  4928                           
  4929                           ;mcc_generated_files/tmr1.c: 138:         TMR1L = (uint8_t)timerVal;
  4930     06FB  0870               	movf	TMR1_WriteTimer@timerVal,w
  4931     06FC  0096               	movwf	22	;volatile
  4932     06FD                     i1l190:
  4933     06FD  0008               	return
  4934     06FE                     __end_of_TMR1_WriteTimer:
  4935                           
  4936                           	psect	text20
  4937     054A                     __ptext20:	
  4938 ;; *************** function _PWMs *****************
  4939 ;; Defined at:
  4940 ;;		line 17 in file "main.c"
  4941 ;; Parameters:    Size  Location     Type
  4942 ;;		None
  4943 ;; Auto vars:     Size  Location     Type
  4944 ;;		None
  4945 ;; Return value:  Size  Location     Type
  4946 ;;                  1    wreg      void 
  4947 ;; Registers used:
  4948 ;;		wreg, status,2, status,0
  4949 ;; Tracked objects:
  4950 ;;		On entry : 0/0
  4951 ;;		On exit  : 0/0
  4952 ;;		Unchanged: 0/0
  4953 ;; Data sizes:     COMMON   BANK0   BANK1   BANK2   BANK3   BANK4
  4954 ;;      Params:         0       0       0       0       0       0
  4955 ;;      Locals:         0       0       0       0       0       0
  4956 ;;      Temps:          2       0       0       0       0       0
  4957 ;;      Totals:         2       0       0       0       0       0
  4958 ;;Total ram usage:        2 bytes
  4959 ;; Hardware stack levels used: 1
  4960 ;; This function calls:
  4961 ;;		Nothing
  4962 ;; This function is called by:
  4963 ;;		_main
  4964 ;;		_TMR1_ISR
  4965 ;; This function uses a non-reentrant model
  4966 ;;
  4967                           
  4968     054A                     _PWMs:	
  4969                           ;psect for function _PWMs
  4970                           
  4971     054A                     i1l1539:	
  4972                           ;incstack = 0
  4973                           ; Regs used in _PWMs: [wreg+status,2+status,0]
  4974                           
  4975                           
  4976                           ;main.c: 19:     if(PWMv < ADCvp){
  4977     054A  087B               	movf	_ADCvp+1,w
  4978     054B  0020               	movlb	0	; select bank0
  4979     054C  024B               	subwf	_PWMv+1,w
  4980     054D  1D03               	skipz
  4981     054E  2D51               	goto	u101_25
  4982     054F  087A               	movf	_ADCvp,w
  4983     0550  024A               	subwf	_PWMv,w
  4984     0551                     u101_25:
  4985     0551  1803               	skipnc
  4986     0552  2D54               	goto	u101_21
  4987     0553  2D55               	goto	u101_20
  4988     0554                     u101_21:
  4989     0554  2D5C               	goto	i1l1543
  4990     0555                     u101_20:
  4991     0555                     i1l1541:
  4992                           
  4993                           ;main.c: 20:         PWMv = PWMv + 2;
  4994     0555  084A               	movf	_PWMv,w
  4995     0556  3E02               	addlw	2
  4996     0557  00CA               	movwf	_PWMv
  4997     0558  3000               	movlw	0
  4998     0559  3D4B               	addwfc	_PWMv+1,w
  4999     055A  00CB               	movwf	_PWMv+1
  5000                           
  5001                           ;main.c: 21:     }else if(PWMv > ADCvp){
  5002     055B  2D6C               	goto	i1l250
  5003     055C                     i1l1543:
  5004     055C  084B               	movf	_PWMv+1,w
  5005     055D  027B               	subwf	_ADCvp+1,w
  5006     055E  1D03               	skipz
  5007     055F  2D62               	goto	u102_25
  5008     0560  084A               	movf	_PWMv,w
  5009     0561  027A               	subwf	_ADCvp,w
  5010     0562                     u102_25:
  5011     0562  1803               	skipnc
  5012     0563  2D65               	goto	u102_21
  5013     0564  2D66               	goto	u102_20
  5014     0565                     u102_21:
  5015     0565  2D6C               	goto	i1l250
  5016     0566                     u102_20:
  5017     0566                     i1l1545:
  5018                           
  5019                           ;main.c: 22:         PWMv = PWMv - 2;}
  5020     0566  084A               	movf	_PWMv,w
  5021     0567  3EFE               	addlw	254
  5022     0568  00CA               	movwf	_PWMv
  5023     0569  30FF               	movlw	255
  5024     056A  3D4B               	addwfc	_PWMv+1,w
  5025     056B  00CB               	movwf	_PWMv+1
  5026     056C                     i1l250:
  5027                           
  5028                           ;main.c: 25:     if(ADCvp == PWMv + 2 ||ADCvp == PWMv - 2){
  5029     056C  084A               	movf	_PWMv,w
  5030     056D  3E02               	addlw	2
  5031     056E  00F0               	movwf	??_PWMs
  5032     056F  3000               	movlw	0
  5033     0570  3D4B               	addwfc	_PWMv+1,w
  5034     0571  00F1               	movwf	??_PWMs+1
  5035     0572  087B               	movf	_ADCvp+1,w
  5036     0573  0671               	xorwf	??_PWMs+1,w
  5037     0574  1D03               	skipz
  5038     0575  2D78               	goto	u103_25
  5039     0576  087A               	movf	_ADCvp,w
  5040     0577  0670               	xorwf	??_PWMs,w
  5041     0578                     u103_25:
  5042     0578  1903               	skipnz
  5043     0579  2D7B               	goto	u103_21
  5044     057A  2D7C               	goto	u103_20
  5045     057B                     u103_21:
  5046     057B  2D8C               	goto	i1l1549
  5047     057C                     u103_20:
  5048     057C                     i1l1547:
  5049     057C  084A               	movf	_PWMv,w
  5050     057D  3EFE               	addlw	254
  5051     057E  00F0               	movwf	??_PWMs
  5052     057F  30FF               	movlw	255
  5053     0580  3D4B               	addwfc	_PWMv+1,w
  5054     0581  00F1               	movwf	??_PWMs+1
  5055     0582  087B               	movf	_ADCvp+1,w
  5056     0583  0671               	xorwf	??_PWMs+1,w
  5057     0584  1D03               	skipz
  5058     0585  2D88               	goto	u104_25
  5059     0586  087A               	movf	_ADCvp,w
  5060     0587  0670               	xorwf	??_PWMs,w
  5061     0588                     u104_25:
  5062     0588  1D03               	skipz
  5063     0589  2D8B               	goto	u104_21
  5064     058A  2D8C               	goto	u104_20
  5065     058B                     u104_21:
  5066     058B  2DA6               	goto	i1l1555
  5067     058C                     u104_20:
  5068     058C                     i1l1549:
  5069                           
  5070                           ;main.c: 26:     if(ADCvp < 2){PWMv = ADCvp;}
  5071     058C  3000               	movlw	0
  5072     058D  027B               	subwf	_ADCvp+1,w
  5073     058E  3002               	movlw	2
  5074     058F  1903               	skipnz
  5075     0590  027A               	subwf	_ADCvp,w
  5076     0591  1803               	skipnc
  5077     0592  2D94               	goto	u105_21
  5078     0593  2D95               	goto	u105_20
  5079     0594                     u105_21:
  5080     0594  2D99               	goto	i1l255
  5081     0595                     u105_20:
  5082     0595                     i1l1551:
  5083     0595  087B               	movf	_ADCvp+1,w
  5084     0596  00CB               	movwf	_PWMv+1
  5085     0597  087A               	movf	_ADCvp,w
  5086     0598  00CA               	movwf	_PWMv
  5087     0599                     i1l255:
  5088                           
  5089                           ;main.c: 27:     if(ADCvp > 1022){PWMv = 1023;}
  5090     0599  3003               	movlw	3
  5091     059A  027B               	subwf	_ADCvp+1,w
  5092     059B  30FF               	movlw	255
  5093     059C  1903               	skipnz
  5094     059D  027A               	subwf	_ADCvp,w
  5095     059E  1C03               	skipc
  5096     059F  2DA1               	goto	u106_21
  5097     05A0  2DA2               	goto	u106_20
  5098     05A1                     u106_21:
  5099     05A1  2DA6               	goto	i1l1555
  5100     05A2                     u106_20:
  5101     05A2                     i1l1553:
  5102     05A2  30FF               	movlw	255
  5103     05A3  00CA               	movwf	_PWMv
  5104     05A4  3003               	movlw	3
  5105     05A5  00CB               	movwf	_PWMv+1
  5106     05A6                     i1l1555:
  5107                           
  5108                           ;main.c: 31:     if(ADCvp == PWMv + 1 || ADCvp == PWMv - 1){PWMv = ADCvp;}
  5109     05A6  084A               	movf	_PWMv,w
  5110     05A7  3E01               	addlw	1
  5111     05A8  00F0               	movwf	??_PWMs
  5112     05A9  3000               	movlw	0
  5113     05AA  3D4B               	addwfc	_PWMv+1,w
  5114     05AB  00F1               	movwf	??_PWMs+1
  5115     05AC  087B               	movf	_ADCvp+1,w
  5116     05AD  0671               	xorwf	??_PWMs+1,w
  5117     05AE  1D03               	skipz
  5118     05AF  2DB2               	goto	u107_25
  5119     05B0  087A               	movf	_ADCvp,w
  5120     05B1  0670               	xorwf	??_PWMs,w
  5121     05B2                     u107_25:
  5122     05B2  1903               	skipnz
  5123     05B3  2DB5               	goto	u107_21
  5124     05B4  2DB6               	goto	u107_20
  5125     05B5                     u107_21:
  5126     05B5  2DC6               	goto	i1l1559
  5127     05B6                     u107_20:
  5128     05B6                     i1l1557:
  5129     05B6  084A               	movf	_PWMv,w
  5130     05B7  3EFF               	addlw	255
  5131     05B8  00F0               	movwf	??_PWMs
  5132     05B9  30FF               	movlw	255
  5133     05BA  3D4B               	addwfc	_PWMv+1,w
  5134     05BB  00F1               	movwf	??_PWMs+1
  5135     05BC  087B               	movf	_ADCvp+1,w
  5136     05BD  0671               	xorwf	??_PWMs+1,w
  5137     05BE  1D03               	skipz
  5138     05BF  2DC2               	goto	u108_25
  5139     05C0  087A               	movf	_ADCvp,w
  5140     05C1  0670               	xorwf	??_PWMs,w
  5141     05C2                     u108_25:
  5142     05C2  1D03               	skipz
  5143     05C3  2DC5               	goto	u108_21
  5144     05C4  2DC6               	goto	u108_20
  5145     05C5                     u108_21:
  5146     05C5  2DCA               	goto	i1l260
  5147     05C6                     u108_20:
  5148     05C6                     i1l1559:
  5149     05C6  087B               	movf	_ADCvp+1,w
  5150     05C7  00CB               	movwf	_PWMv+1
  5151     05C8  087A               	movf	_ADCvp,w
  5152     05C9  00CA               	movwf	_PWMv
  5153     05CA                     i1l260:
  5154     05CA  0008               	return
  5155     05CB                     __end_of_PWMs:
  5156                           
  5157                           	psect	text21
  5158     0733                     __ptext21:	
  5159 ;; *************** function _TMR1_DefaultInterruptHandler *****************
  5160 ;; Defined at:
  5161 ;;		line 175 in file "mcc_generated_files/tmr1.c"
  5162 ;; Parameters:    Size  Location     Type
  5163 ;;		None
  5164 ;; Auto vars:     Size  Location     Type
  5165 ;;		None
  5166 ;; Return value:  Size  Location     Type
  5167 ;;                  1    wreg      void 
  5168 ;; Registers used:
  5169 ;;		None
  5170 ;; Tracked objects:
  5171 ;;		On entry : 0/0
  5172 ;;		On exit  : 0/0
  5173 ;;		Unchanged: 0/0
  5174 ;; Data sizes:     COMMON   BANK0   BANK1   BANK2   BANK3   BANK4
  5175 ;;      Params:         0       0       0       0       0       0
  5176 ;;      Locals:         0       0       0       0       0       0
  5177 ;;      Temps:          0       0       0       0       0       0
  5178 ;;      Totals:         0       0       0       0       0       0
  5179 ;;Total ram usage:        0 bytes
  5180 ;; Hardware stack levels used: 1
  5181 ;; This function calls:
  5182 ;;		Nothing
  5183 ;; This function is called by:
  5184 ;;		_TMR1_Initialize
  5185 ;;		_TMR1_ISR
  5186 ;; This function uses a non-reentrant model
  5187 ;;
  5188                           
  5189     0733                     _TMR1_DefaultInterruptHandler:	
  5190                           ;psect for function _TMR1_DefaultInterruptHandler
  5191                           
  5192     0733                     i1l209:	
  5193                           ;incstack = 0
  5194                           ; Regs used in _TMR1_DefaultInterruptHandler: []
  5195                           
  5196     0733  0008               	return
  5197     0734                     __end_of_TMR1_DefaultInterruptHandler:
  5198     007E                     btemp	set	126	;btemp
  5199     007E                     int$flags	set	126
  5200     007E                     wtemp0	set	126
  5201                           
  5202                           	psect	config
  5203                           
  5204                           ;Config register CONFIG1 @ 0x8007
  5205                           ;	Oscillator Selection
  5206                           ;	FOSC = INTOSC, INTOSC oscillator: I/O function on CLKIN pin
  5207                           ;	Watchdog Timer Enable
  5208                           ;	WDTE = OFF, WDT disabled
  5209                           ;	Power-up Timer Enable
  5210                           ;	PWRTE = OFF, PWRT disabled
  5211                           ;	MCLR Pin Function Select
  5212                           ;	MCLRE = ON, MCLR/VPP pin function is MCLR
  5213                           ;	Flash Program Memory Code Protection
  5214                           ;	CP = OFF, Program memory code protection is disabled
  5215                           ;	Data Memory Code Protection
  5216                           ;	CPD = OFF, Data memory code protection is disabled
  5217                           ;	Brown-out Reset Enable
  5218                           ;	BOREN = ON, Brown-out Reset enabled
  5219                           ;	Clock Out Enable
  5220                           ;	CLKOUTEN = OFF, CLKOUT function is disabled. I/O or oscillator function on the CLKOUT 
      +                          pin
  5221                           ;	Internal/External Switchover
  5222                           ;	IESO = ON, Internal/External Switchover mode is enabled
  5223                           ;	Fail-Safe Clock Monitor Enable
  5224                           ;	FCMEN = ON, Fail-Safe Clock Monitor is enabled
  5225     8007                     	org	32775
  5226     8007  3FE4               	dw	16356
  5227                           
  5228                           ;Config register CONFIG2 @ 0x8008
  5229                           ;	Flash Memory Self-Write Protection
  5230                           ;	WRT = OFF, Write protection off
  5231                           ;	PLL Enable
  5232                           ;	PLLEN = OFF, 4x PLL disabled
  5233                           ;	Stack Overflow/Underflow Reset Enable
  5234                           ;	STVREN = ON, Stack Overflow or Underflow will cause a Reset
  5235                           ;	Brown-out Reset Voltage Selection
  5236                           ;	BORV = LO, Brown-out Reset Voltage (Vbor), low trip point selected.
  5237                           ;	In-Circuit Debugger Mode
  5238                           ;	DEBUG = 0x1, unprogrammed default
  5239                           ;	Low-Voltage Programming Enable
  5240                           ;	LVP = ON, Low-voltage programming enabled
  5241     8008                     	org	32776
  5242     8008  3EFF               	dw	16127

Data Sizes:
    Strings     0
    Constant    0
    Data        6
    BSS         8
    Persistent  36
    Stack       0

Auto Spaces:
    Space          Size  Autos    Used
    COMMON           14     10      12
    BANK0            80     42      58
    BANK1            80      0       0
    BANK2            80      0       0
    BANK3            80      0       0
    BANK4            48      0       0

Pointer List with Targets:

    ADC_InterruptHandler	PTR FTN()void  size(2) Largest target is 1
		 -> NULL(), 

    TMR1_InterruptHandler	PTR FTN()void  size(2) Largest target is 1
		 -> PWMs(), TMR1_DefaultInterruptHandler(), NULL(), 

    TMR1_SetInterruptHandler@InterruptHandler	PTR FTN()void  size(2) Largest target is 1
		 -> PWMs(), TMR1_DefaultInterruptHandler(), 


Critical Paths under _main in COMMON

    _main->___xxtofl
    ___fltol->___xxtofl
    ___flmul->___xxtofl
    ___fldiv->___xxtofl
    _TMR1_Initialize->_TMR1_SetInterruptHandler

Critical Paths under _INTERRUPT_InterruptManager in COMMON

    _TMR1_ISR->_PWMs
    _TMR1_ISR->_TMR1_WriteTimer

Critical Paths under _main in BANK0

    _main->___fltol
    ___fltol->___flmul
    ___flmul->___xxtofl
    ___fldiv->___xxtofl

Critical Paths under _INTERRUPT_InterruptManager in BANK0

    None.

Critical Paths under _main in BANK1

    None.

Critical Paths under _INTERRUPT_InterruptManager in BANK1

    None.

Critical Paths under _main in BANK2

    None.

Critical Paths under _INTERRUPT_InterruptManager in BANK2

    None.

Critical Paths under _main in BANK3

    None.

Critical Paths under _INTERRUPT_InterruptManager in BANK3

    None.

Critical Paths under _main in BANK4

    None.

Critical Paths under _INTERRUPT_InterruptManager in BANK4

    None.

Call Graph Tables:

 ---------------------------------------------------------------------------------
 (Depth) Function   	        Calls       Base Space   Used Autos Params    Refs
 ---------------------------------------------------------------------------------
 (0) _main                                                 0     0      0    5895
                  _ADC_GetConversion
                _EPWM2_LoadDutyValue
                  _SYSTEM_Initialize
           _TMR1_SetInterruptHandler
                            ___fldiv
                            ___flmul
                            ___fltol
                           ___xxtofl
 ---------------------------------------------------------------------------------
 (1) ___xxtofl                                            14    10      4     474
                                              2 COMMON     8     4      4
                                              0 BANK0      6     6      0
 ---------------------------------------------------------------------------------
 (1) ___fltol                                             10     6      4     305
                                             32 BANK0     10     6      4
                            ___flmul (ARG)
                           ___xxtofl (ARG)
 ---------------------------------------------------------------------------------
 (1) ___flmul                                             26    18      8    3353
                                              6 BANK0     26    18      8
                          __Umul8_16
                           ___xxtofl (ARG)
 ---------------------------------------------------------------------------------
 (2) __Umul8_16                                            9     7      2     980
                                              2 COMMON     4     2      2
                                              0 BANK0      5     5      0
 ---------------------------------------------------------------------------------
 (1) ___fldiv                                             26    18      8    1273
                                              6 BANK0     26    18      8
                           ___xxtofl (ARG)
 ---------------------------------------------------------------------------------
 (1) _SYSTEM_Initialize                                    0     0      0     174
                     _ADC_Initialize
                   _EPWM2_Initialize
              _OSCILLATOR_Initialize
             _PIN_MANAGER_Initialize
                    _TMR1_Initialize
                    _TMR2_Initialize
                     _WDT_Initialize
 ---------------------------------------------------------------------------------
 (2) _WDT_Initialize                                       0     0      0       0
 ---------------------------------------------------------------------------------
 (2) _TMR2_Initialize                                      0     0      0       0
 ---------------------------------------------------------------------------------
 (2) _TMR1_Initialize                                      0     0      0     174
           _TMR1_SetInterruptHandler
 ---------------------------------------------------------------------------------
 (1) _TMR1_SetInterruptHandler                             2     0      2     174
                                              2 COMMON     2     0      2
 ---------------------------------------------------------------------------------
 (2) _PIN_MANAGER_Initialize                               0     0      0       0
 ---------------------------------------------------------------------------------
 (2) _OSCILLATOR_Initialize                                0     0      0       0
 ---------------------------------------------------------------------------------
 (2) _EPWM2_Initialize                                     0     0      0       0
 ---------------------------------------------------------------------------------
 (2) _ADC_Initialize                                       0     0      0       0
 ---------------------------------------------------------------------------------
 (1) _EPWM2_LoadDutyValue                                  4     2      2     120
                                              2 COMMON     4     2      2
 ---------------------------------------------------------------------------------
 (1) _ADC_GetConversion                                    4     2      2      22
                                              2 COMMON     4     2      2
 ---------------------------------------------------------------------------------
 Estimated maximum stack depth 2
 ---------------------------------------------------------------------------------
 (Depth) Function   	        Calls       Base Space   Used Autos Params    Refs
 ---------------------------------------------------------------------------------
 (4) _INTERRUPT_InterruptManager                           0     0      0     240
                           _TMR1_ISR
 ---------------------------------------------------------------------------------
 (5) _TMR1_ISR                                             0     0      0     240
                                NULL *
                               _PWMs *
       _TMR1_DefaultInterruptHandler *
                    _TMR1_WriteTimer
 ---------------------------------------------------------------------------------
 (6) _TMR1_WriteTimer                                      2     0      2     240
                                              0 COMMON     2     0      2
 ---------------------------------------------------------------------------------
 (6) _TMR1_DefaultInterruptHandler                         0     0      0       0
 ---------------------------------------------------------------------------------
 (6) _PWMs                                                 2     2      0       0
                                              0 COMMON     2     2      0
 ---------------------------------------------------------------------------------
 (6) NULL(Fake)                                            0     0      0       0
 ---------------------------------------------------------------------------------
 Estimated maximum stack depth 6
 ---------------------------------------------------------------------------------

 Call Graph Graphs:

 _main (ROOT)
   _ADC_GetConversion
   _EPWM2_LoadDutyValue
   _SYSTEM_Initialize
     _ADC_Initialize
     _EPWM2_Initialize
     _OSCILLATOR_Initialize
     _PIN_MANAGER_Initialize
     _TMR1_Initialize
       _TMR1_SetInterruptHandler
     _TMR2_Initialize
     _WDT_Initialize
   _TMR1_SetInterruptHandler
   ___fldiv
     ___xxtofl (ARG)
   ___flmul
     __Umul8_16
     ___xxtofl (ARG)
   ___fltol
     ___flmul (ARG)
     ___xxtofl (ARG)
   ___xxtofl

 _INTERRUPT_InterruptManager (ROOT)
   _TMR1_ISR
     NULL(Fake) *
     _PWMs *
     _TMR1_DefaultInterruptHandler *
     _TMR1_WriteTimer *

 Address spaces:
Name               Size   Autos  Total    Cost      Usage
BIGRAM             170      0       0       0        0.0%
EEDATA             100      0       0       0        0.0%
NULL                 0      0       0       0        0.0%
CODE                 0      0       0       0        0.0%
BITCOMMON            E      0       0       1        0.0%
BITSFR0              0      0       0       1        0.0%
SFR0                 0      0       0       1        0.0%
COMMON               E      A       C       2       85.7%
BITSFR1              0      0       0       2        0.0%
SFR1                 0      0       0       2        0.0%
BITSFR2              0      0       0       3        0.0%
SFR2                 0      0       0       3        0.0%
STACK                0      0       0       3        0.0%
BITSFR3              0      0       0       4        0.0%
SFR3                 0      0       0       4        0.0%
ABS                  0      0      46       4        0.0%
BITBANK0            50      0       0       5        0.0%
BITSFR4              0      0       0       5        0.0%
SFR4                 0      0       0       5        0.0%
BANK0               50     2A      3A       6       72.5%
BITSFR5              0      0       0       6        0.0%
SFR5                 0      0       0       6        0.0%
BITBANK1            50      0       0       7        0.0%
BITSFR6              0      0       0       7        0.0%
SFR6                 0      0       0       7        0.0%
BANK1               50      0       0       8        0.0%
BITSFR7              0      0       0       8        0.0%
SFR7                 0      0       0       8        0.0%
BITBANK2            50      0       0       9        0.0%
BITSFR8              0      0       0       9        0.0%
SFR8                 0      0       0       9        0.0%
BANK2               50      0       0      10        0.0%
BITSFR9              0      0       0      10        0.0%
SFR9                 0      0       0      10        0.0%
BITBANK3            50      0       0      11        0.0%
BITSFR10             0      0       0      11        0.0%
SFR10                0      0       0      11        0.0%
BANK3               50      0       0      12        0.0%
BITSFR11             0      0       0      12        0.0%
SFR11                0      0       0      12        0.0%
BITBANK4            30      0       0      13        0.0%
BITSFR12             0      0       0      13        0.0%
SFR12                0      0       0      13        0.0%
BANK4               30      0       0      14        0.0%
BITSFR13             0      0       0      14        0.0%
SFR13                0      0       0      14        0.0%
BITSFR14             0      0       0      15        0.0%
SFR14                0      0       0      15        0.0%
DATA                 0      0      46      15        0.0%
BITSFR15             0      0       0      16        0.0%
SFR15                0      0       0      16        0.0%
BITSFR16             0      0       0      17        0.0%
SFR16                0      0       0      17        0.0%
BITSFR17             0      0       0      18        0.0%
SFR17                0      0       0      18        0.0%
BITSFR18             0      0       0      19        0.0%
SFR18                0      0       0      19        0.0%
BITSFR19             0      0       0      20        0.0%
SFR19                0      0       0      20        0.0%
BITSFR20             0      0       0      21        0.0%
SFR20                0      0       0      21        0.0%
BITSFR21             0      0       0      22        0.0%
SFR21                0      0       0      22        0.0%
BITSFR22             0      0       0      23        0.0%
SFR22                0      0       0      23        0.0%
BITSFR23             0      0       0      24        0.0%
SFR23                0      0       0      24        0.0%
BITSFR24             0      0       0      25        0.0%
SFR24                0      0       0      25        0.0%
BITSFR25             0      0       0      26        0.0%
SFR25                0      0       0      26        0.0%
BITSFR26             0      0       0      27        0.0%
SFR26                0      0       0      27        0.0%
BITSFR27             0      0       0      28        0.0%
SFR27                0      0       0      28        0.0%
BITSFR28             0      0       0      29        0.0%
SFR28                0      0       0      29        0.0%
BITSFR29             0      0       0      30        0.0%
SFR29                0      0       0      30        0.0%
BITSFR30             0      0       0      31        0.0%
SFR30                0      0       0      31        0.0%
BITSFR31             0      0       0      32        0.0%
SFR31                0      0       0      32        0.0%


Microchip Technology PIC Macro Assembler V2.46 build 20240104201356 
Symbol Table                                                                                   Sun Dec 15 21:54:19 2024

                            ___fldiv@aexp 003F                              ___fldiv@bexp 003E  
                            ___fldiv@sign 0037                                        l20 06C0  
                                      l17 070B                                        l52 0671  
                                      l37 071B                                        l55 0679  
                                      l83 06A9                                        l99 0713  
                     __Umul8_16@word_mpld 0022                                       l206 072E  
                                     l143 06D6                                       l146 0722  
                                     l149 0732                                       l176 0691  
                                     l265 04D3                                       l620 0626  
                                     l613 063B                                       l623 063B  
                                     l800 0414                                       l822 01F1  
                                     l816 0271                                       l835 064F  
                                     l828 0265                                       l860 043F  
                                     l837 065F                                       l862 04C6  
                                     l792 03A1                                       l776 02C3  
                                     l873 0492                                       l778 041B  
                                     l874 049E                                       l866 0478  
                                     l797 03ED                                       l798 0407  
                                     _PR2 001B                           _timer1ReloadVal 004C  
                         _TMR2_Initialize 070C                                       wreg 0009  
                __end_of_EPWM2_Initialize 070C                              ___flmul@aexp 0034  
                            ___flmul@bexp 0039                              ___flmul@sign 0033  
                            ___flmul@temp 003E                              ___flmul@prod 003A  
                            ___fltol@exp1 0049                                      l2001 003B  
                                    l2011 004C                                      l2003 003D  
                                    l2101 01DA                                      l2021 0065  
                                    l2013 0054                                      l2005 0041  
                                    l2111 0203                                      l2103 01EE  
                                    l2031 007C                                      l2023 0069  
                                    l2015 0056                                      l2007 0042  
                                    l2121 023A                                      l2113 0207  
                                    l2033 007E                                      l2025 006A  
                                    l2017 005E                                      l2009 0047  
                                    l2131 0262                                      l2123 0248  
                                    l2115 021F                                      l2107 01F6  
                                    l2051 00D6                                      l2043 0099  
                                    l2035 0086                                      l2027 006F  
                                    l2019 0063                                      l1501 071C  
                                    l2133 0263                                      l2125 0251  
                                    l2109 01FB                                      l2117 0223  
                                    l2061 011A                                      l2053 00EE  
                                    l2045 00A4                                      l2037 008B  
                                    l2029 0074                                      l2141 04CA  
                                    l1503 071F                                      l1511 067C  
                                    l2135 0269                                      l2127 0253  
                                    l2119 0230                                      l2071 014C  
                                    l2063 0121                                      l2055 00FB  
                                    l2047 00B1                                      l2039 0090  
                                    l2151 0511                                      l2143 04CB  
                                    l1505 0720                                      l1521 0687  
                                    l1513 067E                                      l2129 025E  
                                    l2081 01A7                                      l2073 015E  
                                    l2065 012C                                      l2057 0108  
                                    l2049 00C9                                      l1601 05D5  
                                    l2153 0540                                      l2145 04DC  
                                    l1523 068E                                      l1515 0680  
                                    l1507 072F                                      l2091 01C6  
                                    l2083 01AE                                      l2075 0169  
                                    l2067 0133                                      l2059 010F  
                                    l1611 05F8                                      l2147 04E6  
                                    l2139 04C7                                      l1461 0702  
                                    l1517 0681                                      l1509 067A  
                                    l1701 0321                                      l2093 01CD  
                                    l2085 01BA                                      l2077 017B  
                                    l2069 0145                                      l1621 0606  
                                    l1613 05FA                                      l1605 05DE  
                                    l2149 04EA                                      l1471 0717  
                                    l1463 0704                                      l1455 0729  
                                    l1519 0685                                      l1711 034D  
                                    l1703 032F                                      l2087 01C1  
                                    l2095 01D1                                      l2079 0190  
                                    l1631 062B                                      l1615 05FE  
                                    l1623 0616                                      l1607 05EF  
                                    l1473 0718                                      l1465 0706  
                                    l1457 06FE                                      l1481 069A  
                                    l1721 0368                                      l1713 034E  
                                    l1705 0333                                      l1641 027C  
                                    l2097 01D5                                      l2089 01C5  
                                    l1633 0630                                      l1609 05F0  
                                    l1467 0709                                      l1459 0701  
                                    l1491 06A8                                      l1483 069D  
                                    l1475 0692                                      l1731 037D  
                                    l1723 036A                                      l1715 0356  
                                    l1707 0334                                      l1651 0290  
                                    l1643 027D                                      l1635 0272  
                                    l2099 01D6                                      l1581 066C  
                                    l1469 0714                                      l1485 069F  
                                    l1477 0695                                      l1493 070C  
                                    l1741 039E                                      l1725 0371  
                                    l1733 0381                                      l1709 033B  
                                    l1717 035A                                      l1661 02A5  
                                    l1645 0282                                      l1653 0292  
                                    l1637 0276                                      l1629 061D  
                                    l1583 066F                                      l1575 06AA  
                                    l1487 06A2                                      l1479 0698  
                                    l1495 070F                                      l1751 03B7  
                                    l1735 0385                                      l1727 0375  
                                    l1719 0360                                      l1671 02B9  
                                    l1663 02A6                                      l1655 029A  
                                    l1647 0287                                      l1639 0278  
                                    l1585 0675                                      l1577 0661  
                                    l1489 06A3                                      l1497 0710  
                                    l1761 03FE                                      l1753 03CF  
                                    l1745 03A6                                      l1737 0386  
                                    l1729 0376                                      l1665 02AB  
                                    l1673 02BB                                      l1657 029F  
                                    l1649 028F                                      l1921 0437  
                                    l1579 066B                                      l1499 0711  
                                    l1763 0406                                      l1747 03AB  
                                    l1755 03D3                                      l1739 038A  
                                    l1691 0302                                      l1675 02CB  
                                    l1683 02E4                                      l1667 02B0  
                                    l1659 02A1                                      l1931 045E  
                                    l1923 0447                                      l1915 041E  
                                    l1589 06C1                                      l1765 040A  
                                    l1757 03E0                                      l1749 03B3  
                                    l1693 030A                                      l1685 02E9  
                                    l1677 02D7                                      l1669 02B8  
                                    l1941 0488                                      l1933 0465  
                                    l1917 0423                                      l1767 040E  
                                    l1759 03FB                                      l1695 0312  
                                    l1679 02DB                                      l1599 05CB  
                                    l1951 04B9                                      l1943 048C  
                                    l1935 0469                                      l1927 0450  
                                    l1919 0427                                      l1769 0410  
                                    l1697 031A                                      l1689 02F2  
                                    l1953 04BD                                      l1945 0496  
                                    l1937 0471                                      l1929 0453  
                                    l1699 031C                                      l1955 04BE  
                                    l1947 04A0                                      l1939 047F  
                                    l1949 04B4                                      l1991 064B  
                                    l1993 0656                                      l1985 063E  
                                    l1995 065B                                      l1987 0640  
                                    l1989 0647                                      l1999 0037  
                                    _ADCv 0056                                      u2000 065B  
                                    u1200 0615                                      u2001 065A  
                                    u1201 0614                                      u1130 0675  
                                    u2010 0041                                      u1210 061C  
                                    u1131 0674                                      u2011 0040  
                                    u1211 061B                                      u1300 02B0  
                                    u2020 0047                                      u1125 06B9  
                                    u1301 02AF                                      u2021 0046  
                                    u1310 02CB                                      u2110 0186  
                                    u2030 004C                                      u1230 062B  
                                    u1150 05D5                                      u1311 02CA  
                                    u2031 004B                                      u1231 062A  
                                    u1151 05D4                                      u1400 0368  
                                    u1320 02E9                                      u2200 01F5  
                                    u2120 019D                                      u2040 0069  
                                    u1240 0630                                      u1160 05EB  
                                    u1401 0367                                      u1321 02E8  
                                    u2201 01F4                                      u2105 0134  
                                    u2041 0068                                      u1241 062F  
                                    u1225 061E                                      u1330 0321  
                                    u1250 027C                                      u2210 01FB  
                                    u2050 006F                                      u1170 05FE  
                                    u1331 0320                                      u1251 027B  
                                    u2211 01FA                                      u2115 0182  
                                    u2051 006E                                      u1171 05FD  
                                    u1500 03C5                                      u1420 0375  
                                    u1260 0282                                      u2220 0207  
                                    u2060 0074                                      u1180 0605  
                                    u1421 0374                                      u1261 0281  
                                    u2221 0206                                      u2125 0199  
                                    u2061 0073                                      u1181 0604  
                                    u1165 05E7                                      _LATA 010C  
                                    u1510 03E0                                      u1270 0287  
                                    u2230 0215                                      u2150 01C5  
                                    u2070 008B                                      _LATB 010D  
                                    u1511 03DF                                      u1415 036B  
                                    u1271 0286                                      u2151 01C4  
                                    u2135 01A8                                      u2071 008A  
                                    u1520 03FB                                      u1440 0385  
                                    u1360 0333                                      u1280 02A5  
                                    u2240 0230                                      u2080 0090  
                                    u1521 03FA                                      u1505 03C1  
                                    u1441 0384                                      u1361 0332  
                                    u1345 0322                                      u1281 02A4  
                                    u2241 022F                                      u2145 01BB  
                                    u2081 008F                                      u1530 040E  
                                    u1450 038A                                      u1290 02AB  
                                    u2250 0248                                      u2170 01D5  
                                    u1531 040D                                      u1515 03DC  
                                    u1451 0389                                      u1435 0377  
                                    u1355 0329                                      u1291 02AA  
                                    u2251 0247                                      u2235 0211  
                                    u2171 01D4                                      u1195 0607  
                                    u1460 039E                                      u1380 034D  
                                    u2260 0262                                      u2180 01DA  
                                    u1525 03F7                                      u1461 039D  
                                    u1381 034C                                      u2261 0261  
                                    u2245 022C                                      u2181 01D9  
                                    u2165 01C7                                      u1470 03A5  
                                    u1390 0360                                      u2190 01EE  
                                    u2270 04E6                                      u1471 03A4  
                                    u1391 035F                                      u1375 0335  
                                    u2255 0244                                      u2191 01ED  
                                    u2095 0109                                      u2271 04E5  
                                    u1480 03AB                                      u1800 0423  
                                    u1481 03AA                                      u1385 0349  
                                    u1801 0422                                      u1490 03B7  
                                    u1810 0427                                      u1491 03B6  
                                    u1811 0426                                      u2275 04E2  
                                    u1900 0496                                      u1820 0447  
                                    u1901 0495                                      u1821 0446  
                                    u1910 04AA                                      u1920 04B9  
                                    u1840 0464                                      u1921 04B8  
                                    u1841 0463                                      u1930 04BD  
                                    u1931 04BC                                      u1915 04A6  
                                    u1835 0458                                      u1860 047E  
                                    u1861 047D                                      u1855 0472  
                                    u1880 048C                                      u1881 048B  
                                    u1890 0492                                      u1891 0491  
                                    u1875 0482                                      u1980 064B  
                                    u1981 064A                                      u1995 0650  
                                    _TMR2 001A                                      _WPUA 020C  
                                    _WPUB 020D                                      _PWMs 054A  
                                    _PWMv 004A                                      _main 04C7  
                                    _vmed 0050                                      fsr0h 0005  
                                    fsr0l 0004                                      _vmax 0054  
                                    btemp 007E                                      start 0019  
                         ___fldiv@new_exp 0038                ??_TMR1_SetInterruptHandler 0074  
                                   ?_PWMs 0070             __end_of_OSCILLATOR_Initialize 0723  
                           ___fltol@sign1 0048                                     ?_main 0070  
                         __end_of___fldiv 041C                           __end_of___flmul 0272  
                         __end_of___fltol 063C                                     _ADCvp 007A  
                                   _T1CON 0018                                     _T2CON 001C  
                                   i1l203 06EC                                     i1l209 0733  
                                   i1l250 056C                                     i1l226 0017  
                                   i1l260 05CA                                     i1l190 06FD  
                                   i1l255 0599                                     _TMR1H 0017  
                                   _TMR1L 0016                                     _TRISA 008C  
                                   _TRISB 008D                          __end_of_TMR1_ISR 06ED  
                          _WDT_Initialize 072F                   __end_of_TMR1_Initialize 0692  
                                   pclath 000A                                     status 0003  
                                   wtemp0 007E                           _TMR1_WriteTimer 06ED  
                            __end_of_PWMs 05CB                           __initialization 001B  
                            __end_of_main 054A                   __end_of_TMR2_Initialize 0714  
             ?_INTERRUPT_InterruptManager 0070                                    ??_PWMs 0070  
                                  ??_main 007A                    __end_of_WDT_Initialize 0733  
                                  _ADCON0 009D                                    _ADCON1 009E  
                                  _ADRESH 009C                                    _ADRESL 009B  
                                  _CCPR2H 0299                                    _CCPR2L 0298  
                                  _ANSELA 018C                                    _ANSELB 018D  
                                  _BORCON 0116                                    _T1GCON 0019  
                                  u100_20 06F2                                    u100_21 06F1  
                                  u101_20 0555                                    u101_21 0554  
                                  u101_25 0551                                    u102_20 0566  
                                  u102_21 0565                   TMR1_WriteTimer@timerVal 0070  
                                  u102_25 0562                                    u103_20 057C  
                                  u103_21 057B                                    u103_25 0578  
                                  u104_20 058C                                    u104_21 058B  
                                  i1l1531 06F5                                    u104_25 0588  
                                  i1l1541 0555                                    i1l1533 06F7  
                                  i1l1525 06ED                                    i1l1551 0595  
                                  i1l1543 055C                                    i1l1527 06F2  
                                  i1l1535 06F9                                    u105_20 0595  
                                  i1l1553 05A2                                    u105_21 0594  
                                  i1l1545 0566                                    i1l1537 06FB  
                                  i1l1529 06F3                                    i1l1555 05A6  
                                  i1l1547 057C                                    i1l1539 054A  
                                  i1l1557 05B6                                    i1l1549 058C  
                                  i1l1559 05C6                                    i1l1591 06D7  
                                  u106_20 05A2                                    u114_20 06E7  
                                  u106_21 05A1                                    u114_21 06E6  
                                  i1l1593 06D9                                    i1l1595 06E0  
                                  i1l1597 06E7                                    u107_20 05B6  
                                  u107_21 05B5                                    i1l1961 0006  
                                  i1l1963 000A                                    u107_25 05B2  
                                  i1l1965 000F                                    i1l1967 0014  
                                  u108_20 05C6                                    u108_21 05C5  
                                  u108_25 05C2                                    u194_20 000A  
                                  u194_21 0009                                    u195_20 000F  
                                  u195_21 000E                                    u196_20 0014  
                                  u196_21 0013                                    _OSCCON 0099  
                                  _WDTCON 0097                          __end_of___xxtofl 04C7  
    __end_of_TMR1_DefaultInterruptHandler 0734              _TMR1_DefaultInterruptHandler 0733  
                            _CCPTMRS0bits 029E                                 ??___fldiv 002E  
                               ??___flmul 002E                                 ??___fltol 0044  
                         ?_WDT_Initialize 0070                  ADC_GetConversion@channel 0075  
                     _EPWM2_LoadDutyValue 06AA  TMR1_SetInterruptHandler@InterruptHandler 0072  
                 __end_of_TMR1_WriteTimer 06FE                          ?_TMR1_Initialize 0070  
                            ___xxtofl@arg 0022                              ___xxtofl@exp 0021  
                       _SYSTEM_Initialize 06C1                              ___xxtofl@val 0072  
                 __end_of__initialization 0033                        ?_SYSTEM_Initialize 0070  
                              ___fltol@f1 0040                            __pcstackCOMMON 0070  
                    ?_EPWM2_LoadDutyValue 0072                              __pidataBANK0 0723  
                     ??_SYSTEM_Initialize 0074                                 ?_TMR1_ISR 0070  
           ?_TMR1_DefaultInterruptHandler 0070                          ?_TMR2_Initialize 0070  
                          _OPTION_REGbits 0095                         ?_EPWM2_Initialize 0070  
               __end_of_SYSTEM_Initialize 06D7                        ??_EPWM2_Initialize 0072  
                              __pbssBANK0 004A                         __end_of__Umul8_16 0660  
                              __pmaintext 04C7                     ??_EPWM2_LoadDutyValue 0074  
                              ??_TMR1_ISR 0072                                __pintentry 0004  
                                 _CCP2CON 029A                                   _ECCP2AS 029C  
                                 _APFCON0 011D                                   _APFCON1 011E  
                               ?___xxtofl 0072                                   _OSCTUNE 0098  
                                 _PWM2CON 029B                          ?_TMR1_WriteTimer 0070  
                    _ADC_InterruptHandler 004E                                   ___fldiv 0272  
                                 ___flmul 0037                                   ___fltol 05CB  
                                 __ptext1 041C                                   __ptext2 05CB  
                                 __ptext3 0037                                   __ptext4 063C  
                                 __ptext5 0272                                   __ptext6 06C1  
                                 __ptext7 072F                                   __ptext8 070C  
                                 __ptext9 067A            ??_TMR1_DefaultInterruptHandler 0070  
                               _T1CONbits 0018                     _OSCILLATOR_Initialize 071C  
                               _T2CONbits 001C                                ??___xxtofl 0076  
                ??_PIN_MANAGER_Initialize 0072                 ?_TMR1_SetInterruptHandler 0072  
                    end_of_initialization 0033                          ??_WDT_Initialize 0072  
                           ___xxtofl@sign 0020                               ___fldiv@grs 003A  
                             ___fldiv@rem 0033                               ___flmul@grs 0035  
                          _ADC_Initialize 0714                    ?_OSCILLATOR_Initialize 0070  
                     start_initialization 001B                    __end_of_ADC_Initialize 071C  
                               __Umul8_16 063C                               __pdataBANK0 0050  
                               ___fldiv@a 0026                                 ___fldiv@b 002A  
                               ___flmul@a 002A                                 ___flmul@b 0026  
                             __pbssCOMMON 007A                                 ___latbits 0001  
                           __pcstackBANK0 0020               __end_of_EPWM2_LoadDutyValue 06C1  
                               __pnvBANK0 0056                    _PIN_MANAGER_Initialize 0692  
        __end_of_TMR1_SetInterruptHandler 072F                                  ?___fldiv 0026  
                                ?___flmul 0026                                  ?___fltol 0040  
                              ?__Umul8_16 0072                           ?_ADC_Initialize 0070  
            ??_INTERRUPT_InterruptManager 0072                                  _PIE1bits 0091  
                                _PIR1bits 0011                                  _TMR1_ISR 06D7  
                                _PSTR2CON 029D                         ??_TMR1_Initialize 0074  
                              _ADCON0bits 009D                         ??_TMR2_Initialize 0072  
                        _EPWM2_Initialize 06FE                         _ADC_GetConversion 0660  
                 ??_OSCILLATOR_Initialize 0072                               ??__Umul8_16 0074  
                      ?_ADC_GetConversion 0072                  _TMR1_SetInterruptHandler 0729  
                   _TMR1_InterruptHandler 0058                       ??_ADC_GetConversion 0074  
                                ___xxtofl 041C                                  __ptext10 0729  
                                __ptext11 0692                                  __ptext20 054A  
                                __ptext12 071C                                  __ptext21 0733  
                                __ptext13 06FE                                _T1GCONbits 0019  
                                __ptext14 0714                                  __ptext15 06AA  
                                __ptext16 0660                                  __ptext18 06D7  
                                __ptext19 06ED                 __end_of_ADC_GetConversion 067A  
                                int$flags 007E        __end_of_INTERRUPT_InterruptManager 0019  
              _INTERRUPT_InterruptManager 0004                         ??_TMR1_WriteTimer 0072  
                              _INTCONbits 000B                                  intlevel1 0000  
            EPWM2_LoadDutyValue@dutyValue 0072                   ?_PIN_MANAGER_Initialize 0070  
                        ??_ADC_Initialize 0072                    __Umul8_16@multiplicand 0072  
          __end_of_PIN_MANAGER_Initialize 06AA                      __Umul8_16@multiplier 0024  
                         _TMR1_Initialize 067A                         __Umul8_16@product 0020  
