

Microchip MPLAB XC8 Assembler V2.46 build 20240104201356 
                                                                                               Tue Feb 04 23:54:50 2025

Microchip MPLAB XC8 C Compiler v2.46 (Free license) build 20240104201356 Og1 
     1                           	processor	16F1827
     2                           	pagewidth 120
     3                           	opt	flic
     4                           	psect	idataBANK1,global,class=CODE,delta=2,noexec
     5                           	psect	stringtext1,global,class=STRCODE,delta=2,noexec
     6                           	psect	stringtext2,global,class=STRCODE,delta=2,noexec
     7                           	psect	stringtext3,global,class=STRCODE,delta=2,noexec
     8                           	psect	stringtext4,global,class=STRCODE,delta=2,noexec
     9                           	psect	nvBANK1,global,class=BANK1,space=1,delta=1,noexec
    10                           	psect	nvBANK2,global,class=BANK2,space=1,delta=1,noexec
    11                           	psect	cinit,global,class=CODE,merge=1,delta=2
    12                           	psect	bssBANK1,global,class=BANK1,space=1,delta=1,noexec
    13                           	psect	dataBANK1,global,class=BANK1,space=1,delta=1,noexec
    14                           	psect	bssBANK2,global,class=BANK2,space=1,delta=1,noexec
    15                           	psect	clrtext,global,class=CODE,delta=2
    16                           	psect	cstackBANK2,global,class=BANK2,space=1,delta=1,noexec
    17                           	psect	cstackBANK1,global,class=BANK1,space=1,delta=1,noexec
    18                           	psect	cstackCOMMON,global,class=COMMON,space=1,delta=1,noexec
    19                           	psect	cstackBANK0,global,class=BANK0,space=1,delta=1,noexec
    20                           	psect	maintext,global,class=CODE,merge=1,split=1,delta=2
    21                           	psect	text1,local,class=CODE,merge=1,delta=2
    22                           	psect	text2,local,class=CODE,merge=1,delta=2
    23                           	psect	text3,local,class=CODE,merge=1,delta=2
    24                           	psect	text4,local,class=CODE,merge=1,delta=2
    25                           	psect	text5,local,class=CODE,merge=1,delta=2
    26                           	psect	text6,local,class=CODE,merge=1,delta=2
    27                           	psect	text7,local,class=CODE,merge=1,delta=2
    28                           	psect	text8,local,class=CODE,merge=1,delta=2
    29                           	psect	text9,local,class=CODE,merge=1,delta=2
    30                           	psect	text10,local,class=CODE,merge=1,delta=2
    31                           	psect	text11,local,class=CODE,merge=1,delta=2
    32                           	psect	text12,local,class=CODE,merge=1,delta=2
    33                           	psect	text13,local,class=CODE,merge=1,delta=2
    34                           	psect	text14,local,class=CODE,merge=1,delta=2
    35                           	psect	text15,local,class=CODE,merge=1,delta=2
    36                           	psect	text16,local,class=CODE,merge=1,delta=2
    37                           	psect	text17,local,class=CODE,merge=1,delta=2
    38                           	psect	intentry,global,class=CODE,delta=2
    39                           	psect	text19,local,class=CODE,merge=1,delta=2
    40                           	psect	text20,local,class=CODE,merge=1,delta=2
    41                           	psect	text21,local,class=CODE,merge=1,delta=2
    42                           	psect	text22,local,class=CODE,merge=1,delta=2
    43                           	psect	text23,local,class=CODE,merge=1,delta=2,group=2
    44                           	psect	text24,local,class=CODE,merge=1,delta=2,group=1
    45                           	psect	text25,local,class=CODE,merge=1,delta=2,group=1
    46                           	psect	text26,local,class=CODE,merge=1,delta=2,group=1
    47                           	psect	text27,local,class=CODE,merge=1,delta=2
    48                           	psect	text28,local,class=CODE,merge=1,delta=2,group=2
    49                           	psect	text29,local,class=CODE,merge=1,delta=2,group=1
    50                           	psect	text30,local,class=CODE,merge=1,delta=2,group=1
    51                           	psect	text31,local,class=CODE,merge=1,delta=2,group=1
    52                           	psect	text32,local,class=CODE,merge=1,delta=2,group=1
    53                           	psect	text33,local,class=CODE,merge=1,delta=2
    54                           	psect	text34,local,class=CODE,merge=1,delta=2
    55                           	psect	text35,local,class=CODE,merge=1,delta=2
    56                           	psect	text36,local,class=CODE,merge=1,delta=2,group=1
    57                           	psect	text37,local,class=CODE,merge=1,delta=2,group=1
    58                           	psect	text38,local,class=CODE,merge=1,delta=2
    59                           	psect	config,global,abs,ovrld,class=CONFIG,space=4,delta=2,noexec
    60                           	dabs	1,0x7E,2
    61     0000                     
    62                           ; Generated 05/01/2024 GMT
    63                           ; 
    64                           ; Copyright © 2024, Microchip Technology Inc. and its subsidiaries ("Microchip")
    65                           ; All rights reserved.
    66                           ; 
    67                           ; This software is developed by Microchip Technology Inc. and its subsidiaries ("Microch
      +                          ip").
    68                           ; 
    69                           ; Redistribution and use in source and binary forms, with or without modification, are
    70                           ; permitted provided that the following conditions are met:
    71                           ; 
    72                           ;     1. Redistributions of source code must retain the above copyright notice, this lis
      +                          t of
    73                           ;        conditions and the following disclaimer.
    74                           ; 
    75                           ;     2. Redistributions in binary form must reproduce the above copyright notice, this 
      +                          list
    76                           ;        of conditions and the following disclaimer in the documentation and/or other
    77                           ;        materials provided with the distribution. Publication is not required when
    78                           ;        this file is used in an embedded application.
    79                           ; 
    80                           ;     3. Microchip's name may not be used to endorse or promote products derived from th
      +                          is
    81                           ;        software without specific prior written permission.
    82                           ; 
    83                           ; THIS SOFTWARE IS PROVIDED BY MICROCHIP "AS IS" AND ANY EXPRESS OR IMPLIED WARRANTIES,
    84                           ; INCLUDING, BUT NOT LIMITED TO, THE IMPLIED WARRANTIES OF MERCHANTABILITY AND FITNESS F
      +                          OR
    85                           ; PURPOSE ARE DISCLAIMED.  IN NO EVENT SHALL MICROCHIP BE LIABLE FOR ANY DIRECT, INDIREC
      +                          T,
    86                           ; INCIDENTAL, SPECIAL, EXEMPLARY, OR CONSEQUENTIAL DAMAGES (INCLUDING BUT NOT LIMITED TO
    87                           ; PROCUREMENT OF SUBSTITUTE GOODS OR SERVICES; LOSS OF USE, DATA OR PROFITS; OR BUSINESS
    88                           ; INTERRUPTION) HOWSOEVER CAUSED AND ON ANY THEORY OF LIABILITY, WHETHER IN CONTRACT, ST
      +                          RICT
    89                           ; LIABILITY, OR TORT (INCLUDING NEGLIGENCE OR OTHERWISE) ARISING IN ANY WAY OUT OF THE U
      +                          SE OF
    90                           ; THIS SOFTWARE, EVEN IF ADVISED OF THE POSSIBILITY OF SUCH DAMAGE.
    91                           ; 
    92                           ; 
    93                           ; Code-generator required, PIC16F1827 Definitions
    94                           ; 
    95                           ; SFR Addresses
    96     0000                     	;# 
    97     0001                     	;# 
    98     0002                     	;# 
    99     0003                     	;# 
   100     0004                     	;# 
   101     0005                     	;# 
   102     0006                     	;# 
   103     0007                     	;# 
   104     0008                     	;# 
   105     0009                     	;# 
   106     000A                     	;# 
   107     000B                     	;# 
   108     000C                     	;# 
   109     000D                     	;# 
   110     0011                     	;# 
   111     0012                     	;# 
   112     0013                     	;# 
   113     0014                     	;# 
   114     0015                     	;# 
   115     0016                     	;# 
   116     0016                     	;# 
   117     0017                     	;# 
   118     0018                     	;# 
   119     0019                     	;# 
   120     001A                     	;# 
   121     001B                     	;# 
   122     001C                     	;# 
   123     001E                     	;# 
   124     001F                     	;# 
   125     008C                     	;# 
   126     008D                     	;# 
   127     0091                     	;# 
   128     0092                     	;# 
   129     0093                     	;# 
   130     0094                     	;# 
   131     0095                     	;# 
   132     0096                     	;# 
   133     0097                     	;# 
   134     0098                     	;# 
   135     0099                     	;# 
   136     009A                     	;# 
   137     009B                     	;# 
   138     009B                     	;# 
   139     009C                     	;# 
   140     009D                     	;# 
   141     009E                     	;# 
   142     010C                     	;# 
   143     010D                     	;# 
   144     0111                     	;# 
   145     0112                     	;# 
   146     0113                     	;# 
   147     0114                     	;# 
   148     0115                     	;# 
   149     0116                     	;# 
   150     0117                     	;# 
   151     0118                     	;# 
   152     0119                     	;# 
   153     011A                     	;# 
   154     011B                     	;# 
   155     011D                     	;# 
   156     011E                     	;# 
   157     018C                     	;# 
   158     018D                     	;# 
   159     0191                     	;# 
   160     0191                     	;# 
   161     0192                     	;# 
   162     0193                     	;# 
   163     0193                     	;# 
   164     0193                     	;# 
   165     0194                     	;# 
   166     0195                     	;# 
   167     0196                     	;# 
   168     0199                     	;# 
   169     019A                     	;# 
   170     019B                     	;# 
   171     019B                     	;# 
   172     019B                     	;# 
   173     019B                     	;# 
   174     019C                     	;# 
   175     019C                     	;# 
   176     019D                     	;# 
   177     019E                     	;# 
   178     019F                     	;# 
   179     020C                     	;# 
   180     020D                     	;# 
   181     0211                     	;# 
   182     0211                     	;# 
   183     0212                     	;# 
   184     0212                     	;# 
   185     0213                     	;# 
   186     0213                     	;# 
   187     0214                     	;# 
   188     0214                     	;# 
   189     0215                     	;# 
   190     0215                     	;# 
   191     0215                     	;# 
   192     0216                     	;# 
   193     0216                     	;# 
   194     0217                     	;# 
   195     0217                     	;# 
   196     0219                     	;# 
   197     021A                     	;# 
   198     021B                     	;# 
   199     021C                     	;# 
   200     021D                     	;# 
   201     021E                     	;# 
   202     021F                     	;# 
   203     0291                     	;# 
   204     0291                     	;# 
   205     0292                     	;# 
   206     0293                     	;# 
   207     0294                     	;# 
   208     0295                     	;# 
   209     0295                     	;# 
   210     0296                     	;# 
   211     0298                     	;# 
   212     0298                     	;# 
   213     0299                     	;# 
   214     029A                     	;# 
   215     029B                     	;# 
   216     029C                     	;# 
   217     029C                     	;# 
   218     029D                     	;# 
   219     029E                     	;# 
   220     029E                     	;# 
   221     0311                     	;# 
   222     0311                     	;# 
   223     0312                     	;# 
   224     0313                     	;# 
   225     0318                     	;# 
   226     0318                     	;# 
   227     0319                     	;# 
   228     031A                     	;# 
   229     0394                     	;# 
   230     0395                     	;# 
   231     0396                     	;# 
   232     039A                     	;# 
   233     039C                     	;# 
   234     039D                     	;# 
   235     039E                     	;# 
   236     039F                     	;# 
   237     0415                     	;# 
   238     0416                     	;# 
   239     0417                     	;# 
   240     041C                     	;# 
   241     041D                     	;# 
   242     041E                     	;# 
   243     0FE4                     	;# 
   244     0FE5                     	;# 
   245     0FE6                     	;# 
   246     0FE7                     	;# 
   247     0FE8                     	;# 
   248     0FE9                     	;# 
   249     0FEA                     	;# 
   250     0FEB                     	;# 
   251     0FED                     	;# 
   252     0FEE                     	;# 
   253     0FEF                     	;# 
   254     0000                     	;# 
   255     0001                     	;# 
   256     0002                     	;# 
   257     0003                     	;# 
   258     0004                     	;# 
   259     0005                     	;# 
   260     0006                     	;# 
   261     0007                     	;# 
   262     0008                     	;# 
   263     0009                     	;# 
   264     000A                     	;# 
   265     000B                     	;# 
   266     000C                     	;# 
   267     000D                     	;# 
   268     0011                     	;# 
   269     0012                     	;# 
   270     0013                     	;# 
   271     0014                     	;# 
   272     0015                     	;# 
   273     0016                     	;# 
   274     0016                     	;# 
   275     0017                     	;# 
   276     0018                     	;# 
   277     0019                     	;# 
   278     001A                     	;# 
   279     001B                     	;# 
   280     001C                     	;# 
   281     001E                     	;# 
   282     001F                     	;# 
   283     008C                     	;# 
   284     008D                     	;# 
   285     0091                     	;# 
   286     0092                     	;# 
   287     0093                     	;# 
   288     0094                     	;# 
   289     0095                     	;# 
   290     0096                     	;# 
   291     0097                     	;# 
   292     0098                     	;# 
   293     0099                     	;# 
   294     009A                     	;# 
   295     009B                     	;# 
   296     009B                     	;# 
   297     009C                     	;# 
   298     009D                     	;# 
   299     009E                     	;# 
   300     010C                     	;# 
   301     010D                     	;# 
   302     0111                     	;# 
   303     0112                     	;# 
   304     0113                     	;# 
   305     0114                     	;# 
   306     0115                     	;# 
   307     0116                     	;# 
   308     0117                     	;# 
   309     0118                     	;# 
   310     0119                     	;# 
   311     011A                     	;# 
   312     011B                     	;# 
   313     011D                     	;# 
   314     011E                     	;# 
   315     018C                     	;# 
   316     018D                     	;# 
   317     0191                     	;# 
   318     0191                     	;# 
   319     0192                     	;# 
   320     0193                     	;# 
   321     0193                     	;# 
   322     0193                     	;# 
   323     0194                     	;# 
   324     0195                     	;# 
   325     0196                     	;# 
   326     0199                     	;# 
   327     019A                     	;# 
   328     019B                     	;# 
   329     019B                     	;# 
   330     019B                     	;# 
   331     019B                     	;# 
   332     019C                     	;# 
   333     019C                     	;# 
   334     019D                     	;# 
   335     019E                     	;# 
   336     019F                     	;# 
   337     020C                     	;# 
   338     020D                     	;# 
   339     0211                     	;# 
   340     0211                     	;# 
   341     0212                     	;# 
   342     0212                     	;# 
   343     0213                     	;# 
   344     0213                     	;# 
   345     0214                     	;# 
   346     0214                     	;# 
   347     0215                     	;# 
   348     0215                     	;# 
   349     0215                     	;# 
   350     0216                     	;# 
   351     0216                     	;# 
   352     0217                     	;# 
   353     0217                     	;# 
   354     0219                     	;# 
   355     021A                     	;# 
   356     021B                     	;# 
   357     021C                     	;# 
   358     021D                     	;# 
   359     021E                     	;# 
   360     021F                     	;# 
   361     0291                     	;# 
   362     0291                     	;# 
   363     0292                     	;# 
   364     0293                     	;# 
   365     0294                     	;# 
   366     0295                     	;# 
   367     0295                     	;# 
   368     0296                     	;# 
   369     0298                     	;# 
   370     0298                     	;# 
   371     0299                     	;# 
   372     029A                     	;# 
   373     029B                     	;# 
   374     029C                     	;# 
   375     029C                     	;# 
   376     029D                     	;# 
   377     029E                     	;# 
   378     029E                     	;# 
   379     0311                     	;# 
   380     0311                     	;# 
   381     0312                     	;# 
   382     0313                     	;# 
   383     0318                     	;# 
   384     0318                     	;# 
   385     0319                     	;# 
   386     031A                     	;# 
   387     0394                     	;# 
   388     0395                     	;# 
   389     0396                     	;# 
   390     039A                     	;# 
   391     039C                     	;# 
   392     039D                     	;# 
   393     039E                     	;# 
   394     039F                     	;# 
   395     0415                     	;# 
   396     0416                     	;# 
   397     0417                     	;# 
   398     041C                     	;# 
   399     041D                     	;# 
   400     041E                     	;# 
   401     0FE4                     	;# 
   402     0FE5                     	;# 
   403     0FE6                     	;# 
   404     0FE7                     	;# 
   405     0FE8                     	;# 
   406     0FE9                     	;# 
   407     0FEA                     	;# 
   408     0FEB                     	;# 
   409     0FED                     	;# 
   410     0FEE                     	;# 
   411     0FEF                     	;# 
   412     0000                     	;# 
   413     0001                     	;# 
   414     0002                     	;# 
   415     0003                     	;# 
   416     0004                     	;# 
   417     0005                     	;# 
   418     0006                     	;# 
   419     0007                     	;# 
   420     0008                     	;# 
   421     0009                     	;# 
   422     000A                     	;# 
   423     000B                     	;# 
   424     000C                     	;# 
   425     000D                     	;# 
   426     0011                     	;# 
   427     0012                     	;# 
   428     0013                     	;# 
   429     0014                     	;# 
   430     0015                     	;# 
   431     0016                     	;# 
   432     0016                     	;# 
   433     0017                     	;# 
   434     0018                     	;# 
   435     0019                     	;# 
   436     001A                     	;# 
   437     001B                     	;# 
   438     001C                     	;# 
   439     001E                     	;# 
   440     001F                     	;# 
   441     008C                     	;# 
   442     008D                     	;# 
   443     0091                     	;# 
   444     0092                     	;# 
   445     0093                     	;# 
   446     0094                     	;# 
   447     0095                     	;# 
   448     0096                     	;# 
   449     0097                     	;# 
   450     0098                     	;# 
   451     0099                     	;# 
   452     009A                     	;# 
   453     009B                     	;# 
   454     009B                     	;# 
   455     009C                     	;# 
   456     009D                     	;# 
   457     009E                     	;# 
   458     010C                     	;# 
   459     010D                     	;# 
   460     0111                     	;# 
   461     0112                     	;# 
   462     0113                     	;# 
   463     0114                     	;# 
   464     0115                     	;# 
   465     0116                     	;# 
   466     0117                     	;# 
   467     0118                     	;# 
   468     0119                     	;# 
   469     011A                     	;# 
   470     011B                     	;# 
   471     011D                     	;# 
   472     011E                     	;# 
   473     018C                     	;# 
   474     018D                     	;# 
   475     0191                     	;# 
   476     0191                     	;# 
   477     0192                     	;# 
   478     0193                     	;# 
   479     0193                     	;# 
   480     0193                     	;# 
   481     0194                     	;# 
   482     0195                     	;# 
   483     0196                     	;# 
   484     0199                     	;# 
   485     019A                     	;# 
   486     019B                     	;# 
   487     019B                     	;# 
   488     019B                     	;# 
   489     019B                     	;# 
   490     019C                     	;# 
   491     019C                     	;# 
   492     019D                     	;# 
   493     019E                     	;# 
   494     019F                     	;# 
   495     020C                     	;# 
   496     020D                     	;# 
   497     0211                     	;# 
   498     0211                     	;# 
   499     0212                     	;# 
   500     0212                     	;# 
   501     0213                     	;# 
   502     0213                     	;# 
   503     0214                     	;# 
   504     0214                     	;# 
   505     0215                     	;# 
   506     0215                     	;# 
   507     0215                     	;# 
   508     0216                     	;# 
   509     0216                     	;# 
   510     0217                     	;# 
   511     0217                     	;# 
   512     0219                     	;# 
   513     021A                     	;# 
   514     021B                     	;# 
   515     021C                     	;# 
   516     021D                     	;# 
   517     021E                     	;# 
   518     021F                     	;# 
   519     0291                     	;# 
   520     0291                     	;# 
   521     0292                     	;# 
   522     0293                     	;# 
   523     0294                     	;# 
   524     0295                     	;# 
   525     0295                     	;# 
   526     0296                     	;# 
   527     0298                     	;# 
   528     0298                     	;# 
   529     0299                     	;# 
   530     029A                     	;# 
   531     029B                     	;# 
   532     029C                     	;# 
   533     029C                     	;# 
   534     029D                     	;# 
   535     029E                     	;# 
   536     029E                     	;# 
   537     0311                     	;# 
   538     0311                     	;# 
   539     0312                     	;# 
   540     0313                     	;# 
   541     0318                     	;# 
   542     0318                     	;# 
   543     0319                     	;# 
   544     031A                     	;# 
   545     0394                     	;# 
   546     0395                     	;# 
   547     0396                     	;# 
   548     039A                     	;# 
   549     039C                     	;# 
   550     039D                     	;# 
   551     039E                     	;# 
   552     039F                     	;# 
   553     0415                     	;# 
   554     0416                     	;# 
   555     0417                     	;# 
   556     041C                     	;# 
   557     041D                     	;# 
   558     041E                     	;# 
   559     0FE4                     	;# 
   560     0FE5                     	;# 
   561     0FE6                     	;# 
   562     0FE7                     	;# 
   563     0FE8                     	;# 
   564     0FE9                     	;# 
   565     0FEA                     	;# 
   566     0FEB                     	;# 
   567     0FED                     	;# 
   568     0FEE                     	;# 
   569     0FEF                     	;# 
   570     0000                     	;# 
   571     0001                     	;# 
   572     0002                     	;# 
   573     0003                     	;# 
   574     0004                     	;# 
   575     0005                     	;# 
   576     0006                     	;# 
   577     0007                     	;# 
   578     0008                     	;# 
   579     0009                     	;# 
   580     000A                     	;# 
   581     000B                     	;# 
   582     000C                     	;# 
   583     000D                     	;# 
   584     0011                     	;# 
   585     0012                     	;# 
   586     0013                     	;# 
   587     0014                     	;# 
   588     0015                     	;# 
   589     0016                     	;# 
   590     0016                     	;# 
   591     0017                     	;# 
   592     0018                     	;# 
   593     0019                     	;# 
   594     001A                     	;# 
   595     001B                     	;# 
   596     001C                     	;# 
   597     001E                     	;# 
   598     001F                     	;# 
   599     008C                     	;# 
   600     008D                     	;# 
   601     0091                     	;# 
   602     0092                     	;# 
   603     0093                     	;# 
   604     0094                     	;# 
   605     0095                     	;# 
   606     0096                     	;# 
   607     0097                     	;# 
   608     0098                     	;# 
   609     0099                     	;# 
   610     009A                     	;# 
   611     009B                     	;# 
   612     009B                     	;# 
   613     009C                     	;# 
   614     009D                     	;# 
   615     009E                     	;# 
   616     010C                     	;# 
   617     010D                     	;# 
   618     0111                     	;# 
   619     0112                     	;# 
   620     0113                     	;# 
   621     0114                     	;# 
   622     0115                     	;# 
   623     0116                     	;# 
   624     0117                     	;# 
   625     0118                     	;# 
   626     0119                     	;# 
   627     011A                     	;# 
   628     011B                     	;# 
   629     011D                     	;# 
   630     011E                     	;# 
   631     018C                     	;# 
   632     018D                     	;# 
   633     0191                     	;# 
   634     0191                     	;# 
   635     0192                     	;# 
   636     0193                     	;# 
   637     0193                     	;# 
   638     0193                     	;# 
   639     0194                     	;# 
   640     0195                     	;# 
   641     0196                     	;# 
   642     0199                     	;# 
   643     019A                     	;# 
   644     019B                     	;# 
   645     019B                     	;# 
   646     019B                     	;# 
   647     019B                     	;# 
   648     019C                     	;# 
   649     019C                     	;# 
   650     019D                     	;# 
   651     019E                     	;# 
   652     019F                     	;# 
   653     020C                     	;# 
   654     020D                     	;# 
   655     0211                     	;# 
   656     0211                     	;# 
   657     0212                     	;# 
   658     0212                     	;# 
   659     0213                     	;# 
   660     0213                     	;# 
   661     0214                     	;# 
   662     0214                     	;# 
   663     0215                     	;# 
   664     0215                     	;# 
   665     0215                     	;# 
   666     0216                     	;# 
   667     0216                     	;# 
   668     0217                     	;# 
   669     0217                     	;# 
   670     0219                     	;# 
   671     021A                     	;# 
   672     021B                     	;# 
   673     021C                     	;# 
   674     021D                     	;# 
   675     021E                     	;# 
   676     021F                     	;# 
   677     0291                     	;# 
   678     0291                     	;# 
   679     0292                     	;# 
   680     0293                     	;# 
   681     0294                     	;# 
   682     0295                     	;# 
   683     0295                     	;# 
   684     0296                     	;# 
   685     0298                     	;# 
   686     0298                     	;# 
   687     0299                     	;# 
   688     029A                     	;# 
   689     029B                     	;# 
   690     029C                     	;# 
   691     029C                     	;# 
   692     029D                     	;# 
   693     029E                     	;# 
   694     029E                     	;# 
   695     0311                     	;# 
   696     0311                     	;# 
   697     0312                     	;# 
   698     0313                     	;# 
   699     0318                     	;# 
   700     0318                     	;# 
   701     0319                     	;# 
   702     031A                     	;# 
   703     0394                     	;# 
   704     0395                     	;# 
   705     0396                     	;# 
   706     039A                     	;# 
   707     039C                     	;# 
   708     039D                     	;# 
   709     039E                     	;# 
   710     039F                     	;# 
   711     0415                     	;# 
   712     0416                     	;# 
   713     0417                     	;# 
   714     041C                     	;# 
   715     041D                     	;# 
   716     041E                     	;# 
   717     0FE4                     	;# 
   718     0FE5                     	;# 
   719     0FE6                     	;# 
   720     0FE7                     	;# 
   721     0FE8                     	;# 
   722     0FE9                     	;# 
   723     0FEA                     	;# 
   724     0FEB                     	;# 
   725     0FED                     	;# 
   726     0FEE                     	;# 
   727     0FEF                     	;# 
   728     0000                     	;# 
   729     0001                     	;# 
   730     0002                     	;# 
   731     0003                     	;# 
   732     0004                     	;# 
   733     0005                     	;# 
   734     0006                     	;# 
   735     0007                     	;# 
   736     0008                     	;# 
   737     0009                     	;# 
   738     000A                     	;# 
   739     000B                     	;# 
   740     000C                     	;# 
   741     000D                     	;# 
   742     0011                     	;# 
   743     0012                     	;# 
   744     0013                     	;# 
   745     0014                     	;# 
   746     0015                     	;# 
   747     0016                     	;# 
   748     0016                     	;# 
   749     0017                     	;# 
   750     0018                     	;# 
   751     0019                     	;# 
   752     001A                     	;# 
   753     001B                     	;# 
   754     001C                     	;# 
   755     001E                     	;# 
   756     001F                     	;# 
   757     008C                     	;# 
   758     008D                     	;# 
   759     0091                     	;# 
   760     0092                     	;# 
   761     0093                     	;# 
   762     0094                     	;# 
   763     0095                     	;# 
   764     0096                     	;# 
   765     0097                     	;# 
   766     0098                     	;# 
   767     0099                     	;# 
   768     009A                     	;# 
   769     009B                     	;# 
   770     009B                     	;# 
   771     009C                     	;# 
   772     009D                     	;# 
   773     009E                     	;# 
   774     010C                     	;# 
   775     010D                     	;# 
   776     0111                     	;# 
   777     0112                     	;# 
   778     0113                     	;# 
   779     0114                     	;# 
   780     0115                     	;# 
   781     0116                     	;# 
   782     0117                     	;# 
   783     0118                     	;# 
   784     0119                     	;# 
   785     011A                     	;# 
   786     011B                     	;# 
   787     011D                     	;# 
   788     011E                     	;# 
   789     018C                     	;# 
   790     018D                     	;# 
   791     0191                     	;# 
   792     0191                     	;# 
   793     0192                     	;# 
   794     0193                     	;# 
   795     0193                     	;# 
   796     0193                     	;# 
   797     0194                     	;# 
   798     0195                     	;# 
   799     0196                     	;# 
   800     0199                     	;# 
   801     019A                     	;# 
   802     019B                     	;# 
   803     019B                     	;# 
   804     019B                     	;# 
   805     019B                     	;# 
   806     019C                     	;# 
   807     019C                     	;# 
   808     019D                     	;# 
   809     019E                     	;# 
   810     019F                     	;# 
   811     020C                     	;# 
   812     020D                     	;# 
   813     0211                     	;# 
   814     0211                     	;# 
   815     0212                     	;# 
   816     0212                     	;# 
   817     0213                     	;# 
   818     0213                     	;# 
   819     0214                     	;# 
   820     0214                     	;# 
   821     0215                     	;# 
   822     0215                     	;# 
   823     0215                     	;# 
   824     0216                     	;# 
   825     0216                     	;# 
   826     0217                     	;# 
   827     0217                     	;# 
   828     0219                     	;# 
   829     021A                     	;# 
   830     021B                     	;# 
   831     021C                     	;# 
   832     021D                     	;# 
   833     021E                     	;# 
   834     021F                     	;# 
   835     0291                     	;# 
   836     0291                     	;# 
   837     0292                     	;# 
   838     0293                     	;# 
   839     0294                     	;# 
   840     0295                     	;# 
   841     0295                     	;# 
   842     0296                     	;# 
   843     0298                     	;# 
   844     0298                     	;# 
   845     0299                     	;# 
   846     029A                     	;# 
   847     029B                     	;# 
   848     029C                     	;# 
   849     029C                     	;# 
   850     029D                     	;# 
   851     029E                     	;# 
   852     029E                     	;# 
   853     0311                     	;# 
   854     0311                     	;# 
   855     0312                     	;# 
   856     0313                     	;# 
   857     0318                     	;# 
   858     0318                     	;# 
   859     0319                     	;# 
   860     031A                     	;# 
   861     0394                     	;# 
   862     0395                     	;# 
   863     0396                     	;# 
   864     039A                     	;# 
   865     039C                     	;# 
   866     039D                     	;# 
   867     039E                     	;# 
   868     039F                     	;# 
   869     0415                     	;# 
   870     0416                     	;# 
   871     0417                     	;# 
   872     041C                     	;# 
   873     041D                     	;# 
   874     041E                     	;# 
   875     0FE4                     	;# 
   876     0FE5                     	;# 
   877     0FE6                     	;# 
   878     0FE7                     	;# 
   879     0FE8                     	;# 
   880     0FE9                     	;# 
   881     0FEA                     	;# 
   882     0FEB                     	;# 
   883     0FED                     	;# 
   884     0FEE                     	;# 
   885     0FEF                     	;# 
   886     0000                     	;# 
   887     0001                     	;# 
   888     0002                     	;# 
   889     0003                     	;# 
   890     0004                     	;# 
   891     0005                     	;# 
   892     0006                     	;# 
   893     0007                     	;# 
   894     0008                     	;# 
   895     0009                     	;# 
   896     000A                     	;# 
   897     000B                     	;# 
   898     000C                     	;# 
   899     000D                     	;# 
   900     0011                     	;# 
   901     0012                     	;# 
   902     0013                     	;# 
   903     0014                     	;# 
   904     0015                     	;# 
   905     0016                     	;# 
   906     0016                     	;# 
   907     0017                     	;# 
   908     0018                     	;# 
   909     0019                     	;# 
   910     001A                     	;# 
   911     001B                     	;# 
   912     001C                     	;# 
   913     001E                     	;# 
   914     001F                     	;# 
   915     008C                     	;# 
   916     008D                     	;# 
   917     0091                     	;# 
   918     0092                     	;# 
   919     0093                     	;# 
   920     0094                     	;# 
   921     0095                     	;# 
   922     0096                     	;# 
   923     0097                     	;# 
   924     0098                     	;# 
   925     0099                     	;# 
   926     009A                     	;# 
   927     009B                     	;# 
   928     009B                     	;# 
   929     009C                     	;# 
   930     009D                     	;# 
   931     009E                     	;# 
   932     010C                     	;# 
   933     010D                     	;# 
   934     0111                     	;# 
   935     0112                     	;# 
   936     0113                     	;# 
   937     0114                     	;# 
   938     0115                     	;# 
   939     0116                     	;# 
   940     0117                     	;# 
   941     0118                     	;# 
   942     0119                     	;# 
   943     011A                     	;# 
   944     011B                     	;# 
   945     011D                     	;# 
   946     011E                     	;# 
   947     018C                     	;# 
   948     018D                     	;# 
   949     0191                     	;# 
   950     0191                     	;# 
   951     0192                     	;# 
   952     0193                     	;# 
   953     0193                     	;# 
   954     0193                     	;# 
   955     0194                     	;# 
   956     0195                     	;# 
   957     0196                     	;# 
   958     0199                     	;# 
   959     019A                     	;# 
   960     019B                     	;# 
   961     019B                     	;# 
   962     019B                     	;# 
   963     019B                     	;# 
   964     019C                     	;# 
   965     019C                     	;# 
   966     019D                     	;# 
   967     019E                     	;# 
   968     019F                     	;# 
   969     020C                     	;# 
   970     020D                     	;# 
   971     0211                     	;# 
   972     0211                     	;# 
   973     0212                     	;# 
   974     0212                     	;# 
   975     0213                     	;# 
   976     0213                     	;# 
   977     0214                     	;# 
   978     0214                     	;# 
   979     0215                     	;# 
   980     0215                     	;# 
   981     0215                     	;# 
   982     0216                     	;# 
   983     0216                     	;# 
   984     0217                     	;# 
   985     0217                     	;# 
   986     0219                     	;# 
   987     021A                     	;# 
   988     021B                     	;# 
   989     021C                     	;# 
   990     021D                     	;# 
   991     021E                     	;# 
   992     021F                     	;# 
   993     0291                     	;# 
   994     0291                     	;# 
   995     0292                     	;# 
   996     0293                     	;# 
   997     0294                     	;# 
   998     0295                     	;# 
   999     0295                     	;# 
  1000     0296                     	;# 
  1001     0298                     	;# 
  1002     0298                     	;# 
  1003     0299                     	;# 
  1004     029A                     	;# 
  1005     029B                     	;# 
  1006     029C                     	;# 
  1007     029C                     	;# 
  1008     029D                     	;# 
  1009     029E                     	;# 
  1010     029E                     	;# 
  1011     0311                     	;# 
  1012     0311                     	;# 
  1013     0312                     	;# 
  1014     0313                     	;# 
  1015     0318                     	;# 
  1016     0318                     	;# 
  1017     0319                     	;# 
  1018     031A                     	;# 
  1019     0394                     	;# 
  1020     0395                     	;# 
  1021     0396                     	;# 
  1022     039A                     	;# 
  1023     039C                     	;# 
  1024     039D                     	;# 
  1025     039E                     	;# 
  1026     039F                     	;# 
  1027     0415                     	;# 
  1028     0416                     	;# 
  1029     0417                     	;# 
  1030     041C                     	;# 
  1031     041D                     	;# 
  1032     041E                     	;# 
  1033     0FE4                     	;# 
  1034     0FE5                     	;# 
  1035     0FE6                     	;# 
  1036     0FE7                     	;# 
  1037     0FE8                     	;# 
  1038     0FE9                     	;# 
  1039     0FEA                     	;# 
  1040     0FEB                     	;# 
  1041     0FED                     	;# 
  1042     0FEE                     	;# 
  1043     0FEF                     	;# 
  1044     0000                     	;# 
  1045     0001                     	;# 
  1046     0002                     	;# 
  1047     0003                     	;# 
  1048     0004                     	;# 
  1049     0005                     	;# 
  1050     0006                     	;# 
  1051     0007                     	;# 
  1052     0008                     	;# 
  1053     0009                     	;# 
  1054     000A                     	;# 
  1055     000B                     	;# 
  1056     000C                     	;# 
  1057     000D                     	;# 
  1058     0011                     	;# 
  1059     0012                     	;# 
  1060     0013                     	;# 
  1061     0014                     	;# 
  1062     0015                     	;# 
  1063     0016                     	;# 
  1064     0016                     	;# 
  1065     0017                     	;# 
  1066     0018                     	;# 
  1067     0019                     	;# 
  1068     001A                     	;# 
  1069     001B                     	;# 
  1070     001C                     	;# 
  1071     001E                     	;# 
  1072     001F                     	;# 
  1073     008C                     	;# 
  1074     008D                     	;# 
  1075     0091                     	;# 
  1076     0092                     	;# 
  1077     0093                     	;# 
  1078     0094                     	;# 
  1079     0095                     	;# 
  1080     0096                     	;# 
  1081     0097                     	;# 
  1082     0098                     	;# 
  1083     0099                     	;# 
  1084     009A                     	;# 
  1085     009B                     	;# 
  1086     009B                     	;# 
  1087     009C                     	;# 
  1088     009D                     	;# 
  1089     009E                     	;# 
  1090     010C                     	;# 
  1091     010D                     	;# 
  1092     0111                     	;# 
  1093     0112                     	;# 
  1094     0113                     	;# 
  1095     0114                     	;# 
  1096     0115                     	;# 
  1097     0116                     	;# 
  1098     0117                     	;# 
  1099     0118                     	;# 
  1100     0119                     	;# 
  1101     011A                     	;# 
  1102     011B                     	;# 
  1103     011D                     	;# 
  1104     011E                     	;# 
  1105     018C                     	;# 
  1106     018D                     	;# 
  1107     0191                     	;# 
  1108     0191                     	;# 
  1109     0192                     	;# 
  1110     0193                     	;# 
  1111     0193                     	;# 
  1112     0193                     	;# 
  1113     0194                     	;# 
  1114     0195                     	;# 
  1115     0196                     	;# 
  1116     0199                     	;# 
  1117     019A                     	;# 
  1118     019B                     	;# 
  1119     019B                     	;# 
  1120     019B                     	;# 
  1121     019B                     	;# 
  1122     019C                     	;# 
  1123     019C                     	;# 
  1124     019D                     	;# 
  1125     019E                     	;# 
  1126     019F                     	;# 
  1127     020C                     	;# 
  1128     020D                     	;# 
  1129     0211                     	;# 
  1130     0211                     	;# 
  1131     0212                     	;# 
  1132     0212                     	;# 
  1133     0213                     	;# 
  1134     0213                     	;# 
  1135     0214                     	;# 
  1136     0214                     	;# 
  1137     0215                     	;# 
  1138     0215                     	;# 
  1139     0215                     	;# 
  1140     0216                     	;# 
  1141     0216                     	;# 
  1142     0217                     	;# 
  1143     0217                     	;# 
  1144     0219                     	;# 
  1145     021A                     	;# 
  1146     021B                     	;# 
  1147     021C                     	;# 
  1148     021D                     	;# 
  1149     021E                     	;# 
  1150     021F                     	;# 
  1151     0291                     	;# 
  1152     0291                     	;# 
  1153     0292                     	;# 
  1154     0293                     	;# 
  1155     0294                     	;# 
  1156     0295                     	;# 
  1157     0295                     	;# 
  1158     0296                     	;# 
  1159     0298                     	;# 
  1160     0298                     	;# 
  1161     0299                     	;# 
  1162     029A                     	;# 
  1163     029B                     	;# 
  1164     029C                     	;# 
  1165     029C                     	;# 
  1166     029D                     	;# 
  1167     029E                     	;# 
  1168     029E                     	;# 
  1169     0311                     	;# 
  1170     0311                     	;# 
  1171     0312                     	;# 
  1172     0313                     	;# 
  1173     0318                     	;# 
  1174     0318                     	;# 
  1175     0319                     	;# 
  1176     031A                     	;# 
  1177     0394                     	;# 
  1178     0395                     	;# 
  1179     0396                     	;# 
  1180     039A                     	;# 
  1181     039C                     	;# 
  1182     039D                     	;# 
  1183     039E                     	;# 
  1184     039F                     	;# 
  1185     0415                     	;# 
  1186     0416                     	;# 
  1187     0417                     	;# 
  1188     041C                     	;# 
  1189     041D                     	;# 
  1190     041E                     	;# 
  1191     0FE4                     	;# 
  1192     0FE5                     	;# 
  1193     0FE6                     	;# 
  1194     0FE7                     	;# 
  1195     0FE8                     	;# 
  1196     0FE9                     	;# 
  1197     0FEA                     	;# 
  1198     0FEB                     	;# 
  1199     0FED                     	;# 
  1200     0FEE                     	;# 
  1201     0FEF                     	;# 
  1202     0000                     	;# 
  1203     0001                     	;# 
  1204     0002                     	;# 
  1205     0003                     	;# 
  1206     0004                     	;# 
  1207     0005                     	;# 
  1208     0006                     	;# 
  1209     0007                     	;# 
  1210     0008                     	;# 
  1211     0009                     	;# 
  1212     000A                     	;# 
  1213     000B                     	;# 
  1214     000C                     	;# 
  1215     000D                     	;# 
  1216     0011                     	;# 
  1217     0012                     	;# 
  1218     0013                     	;# 
  1219     0014                     	;# 
  1220     0015                     	;# 
  1221     0016                     	;# 
  1222     0016                     	;# 
  1223     0017                     	;# 
  1224     0018                     	;# 
  1225     0019                     	;# 
  1226     001A                     	;# 
  1227     001B                     	;# 
  1228     001C                     	;# 
  1229     001E                     	;# 
  1230     001F                     	;# 
  1231     008C                     	;# 
  1232     008D                     	;# 
  1233     0091                     	;# 
  1234     0092                     	;# 
  1235     0093                     	;# 
  1236     0094                     	;# 
  1237     0095                     	;# 
  1238     0096                     	;# 
  1239     0097                     	;# 
  1240     0098                     	;# 
  1241     0099                     	;# 
  1242     009A                     	;# 
  1243     009B                     	;# 
  1244     009B                     	;# 
  1245     009C                     	;# 
  1246     009D                     	;# 
  1247     009E                     	;# 
  1248     010C                     	;# 
  1249     010D                     	;# 
  1250     0111                     	;# 
  1251     0112                     	;# 
  1252     0113                     	;# 
  1253     0114                     	;# 
  1254     0115                     	;# 
  1255     0116                     	;# 
  1256     0117                     	;# 
  1257     0118                     	;# 
  1258     0119                     	;# 
  1259     011A                     	;# 
  1260     011B                     	;# 
  1261     011D                     	;# 
  1262     011E                     	;# 
  1263     018C                     	;# 
  1264     018D                     	;# 
  1265     0191                     	;# 
  1266     0191                     	;# 
  1267     0192                     	;# 
  1268     0193                     	;# 
  1269     0193                     	;# 
  1270     0193                     	;# 
  1271     0194                     	;# 
  1272     0195                     	;# 
  1273     0196                     	;# 
  1274     0199                     	;# 
  1275     019A                     	;# 
  1276     019B                     	;# 
  1277     019B                     	;# 
  1278     019B                     	;# 
  1279     019B                     	;# 
  1280     019C                     	;# 
  1281     019C                     	;# 
  1282     019D                     	;# 
  1283     019E                     	;# 
  1284     019F                     	;# 
  1285     020C                     	;# 
  1286     020D                     	;# 
  1287     0211                     	;# 
  1288     0211                     	;# 
  1289     0212                     	;# 
  1290     0212                     	;# 
  1291     0213                     	;# 
  1292     0213                     	;# 
  1293     0214                     	;# 
  1294     0214                     	;# 
  1295     0215                     	;# 
  1296     0215                     	;# 
  1297     0215                     	;# 
  1298     0216                     	;# 
  1299     0216                     	;# 
  1300     0217                     	;# 
  1301     0217                     	;# 
  1302     0219                     	;# 
  1303     021A                     	;# 
  1304     021B                     	;# 
  1305     021C                     	;# 
  1306     021D                     	;# 
  1307     021E                     	;# 
  1308     021F                     	;# 
  1309     0291                     	;# 
  1310     0291                     	;# 
  1311     0292                     	;# 
  1312     0293                     	;# 
  1313     0294                     	;# 
  1314     0295                     	;# 
  1315     0295                     	;# 
  1316     0296                     	;# 
  1317     0298                     	;# 
  1318     0298                     	;# 
  1319     0299                     	;# 
  1320     029A                     	;# 
  1321     029B                     	;# 
  1322     029C                     	;# 
  1323     029C                     	;# 
  1324     029D                     	;# 
  1325     029E                     	;# 
  1326     029E                     	;# 
  1327     0311                     	;# 
  1328     0311                     	;# 
  1329     0312                     	;# 
  1330     0313                     	;# 
  1331     0318                     	;# 
  1332     0318                     	;# 
  1333     0319                     	;# 
  1334     031A                     	;# 
  1335     0394                     	;# 
  1336     0395                     	;# 
  1337     0396                     	;# 
  1338     039A                     	;# 
  1339     039C                     	;# 
  1340     039D                     	;# 
  1341     039E                     	;# 
  1342     039F                     	;# 
  1343     0415                     	;# 
  1344     0416                     	;# 
  1345     0417                     	;# 
  1346     041C                     	;# 
  1347     041D                     	;# 
  1348     041E                     	;# 
  1349     0FE4                     	;# 
  1350     0FE5                     	;# 
  1351     0FE6                     	;# 
  1352     0FE7                     	;# 
  1353     0FE8                     	;# 
  1354     0FE9                     	;# 
  1355     0FEA                     	;# 
  1356     0FEB                     	;# 
  1357     0FED                     	;# 
  1358     0FEE                     	;# 
  1359     0FEF                     	;# 
  1360                           
  1361 ;; Function _EUSART_DefaultFramingErrorHandler is unused but had its address taken
  1362     0000                     
  1363 ;; Function _EUSART_DefaultOverrunErrorHandler is unused but had its address taken
  1364     0000                     
  1365 ;; Function _EUSART_DefaultErrorHandler is unused but had its address taken
  1366     0000                     
  1367                           	psect	idataBANK1
  1368     0961                     __pidataBANK1:
  1369                           
  1370                           ;initializer for _recalcula
  1371     0961  3401               	retlw	1
  1372                           
  1373                           ;initializer for _primeiro_T
  1374     0962  3401               	retlw	1
  1375                           
  1376                           ;initializer for _delay
  1377     0963  3419               	retlw	25
  1378                           
  1379                           ;initializer for _incX
  1380     0964  3401               	retlw	1
  1381                           
  1382                           	psect	stringtext1
  1383     0275                     __pstringtext1:
  1384     0275                     _MATRIZ_LED:
  1385     0275  3480               	retlw	128
  1386     0276  3400               	retlw	0
  1387     0277  3400               	retlw	0
  1388     0278  3400               	retlw	0
  1389     0279  3400               	retlw	0
  1390     027A  3400               	retlw	0
  1391     027B  3400               	retlw	0
  1392     027C  3400               	retlw	0
  1393     027D  3440               	retlw	64
  1394     027E  3400               	retlw	0
  1395     027F  3400               	retlw	0
  1396     0280  3400               	retlw	0
  1397     0281  3400               	retlw	0
  1398     0282  3400               	retlw	0
  1399     0283  3400               	retlw	0
  1400     0284  3400               	retlw	0
  1401     0285  3420               	retlw	32
  1402     0286  3400               	retlw	0
  1403     0287  3400               	retlw	0
  1404     0288  3400               	retlw	0
  1405     0289  3400               	retlw	0
  1406     028A  3400               	retlw	0
  1407     028B  3400               	retlw	0
  1408     028C  3400               	retlw	0
  1409     028D  3410               	retlw	16
  1410     028E  3400               	retlw	0
  1411     028F  3400               	retlw	0
  1412     0290  3400               	retlw	0
  1413     0291  3400               	retlw	0
  1414     0292  3400               	retlw	0
  1415     0293  3400               	retlw	0
  1416     0294  3400               	retlw	0
  1417     0295  3408               	retlw	8
  1418     0296  3400               	retlw	0
  1419     0297  3400               	retlw	0
  1420     0298  3400               	retlw	0
  1421     0299  3400               	retlw	0
  1422     029A  3400               	retlw	0
  1423     029B  3400               	retlw	0
  1424     029C  3400               	retlw	0
  1425     029D  3404               	retlw	4
  1426     029E  3400               	retlw	0
  1427     029F  3400               	retlw	0
  1428     02A0  3400               	retlw	0
  1429     02A1  3400               	retlw	0
  1430     02A2  3400               	retlw	0
  1431     02A3  3400               	retlw	0
  1432     02A4  3400               	retlw	0
  1433     02A5  3402               	retlw	2
  1434     02A6  3400               	retlw	0
  1435     02A7  3400               	retlw	0
  1436     02A8  3400               	retlw	0
  1437     02A9  3400               	retlw	0
  1438     02AA  3400               	retlw	0
  1439     02AB  3400               	retlw	0
  1440     02AC  3400               	retlw	0
  1441     02AD  3401               	retlw	1
  1442     02AE  3400               	retlw	0
  1443     02AF  3400               	retlw	0
  1444     02B0  3400               	retlw	0
  1445     02B1  3400               	retlw	0
  1446     02B2  3400               	retlw	0
  1447     02B3  3400               	retlw	0
  1448     02B4  3400               	retlw	0
  1449     02B5  3400               	retlw	0
  1450     02B6  3480               	retlw	128
  1451     02B7  3400               	retlw	0
  1452     02B8  3400               	retlw	0
  1453     02B9  3400               	retlw	0
  1454     02BA  3400               	retlw	0
  1455     02BB  3400               	retlw	0
  1456     02BC  3400               	retlw	0
  1457     02BD  3400               	retlw	0
  1458     02BE  3440               	retlw	64
  1459     02BF  3400               	retlw	0
  1460     02C0  3400               	retlw	0
  1461     02C1  3400               	retlw	0
  1462     02C2  3400               	retlw	0
  1463     02C3  3400               	retlw	0
  1464     02C4  3400               	retlw	0
  1465     02C5  3400               	retlw	0
  1466     02C6  3420               	retlw	32
  1467     02C7  3400               	retlw	0
  1468     02C8  3400               	retlw	0
  1469     02C9  3400               	retlw	0
  1470     02CA  3400               	retlw	0
  1471     02CB  3400               	retlw	0
  1472     02CC  3400               	retlw	0
  1473     02CD  3400               	retlw	0
  1474     02CE  3410               	retlw	16
  1475     02CF  3400               	retlw	0
  1476     02D0  3400               	retlw	0
  1477     02D1  3400               	retlw	0
  1478     02D2  3400               	retlw	0
  1479     02D3  3400               	retlw	0
  1480     02D4  3400               	retlw	0
  1481     02D5  3400               	retlw	0
  1482     02D6  3408               	retlw	8
  1483     02D7  3400               	retlw	0
  1484     02D8  3400               	retlw	0
  1485     02D9  3400               	retlw	0
  1486     02DA  3400               	retlw	0
  1487     02DB  3400               	retlw	0
  1488     02DC  3400               	retlw	0
  1489     02DD  3400               	retlw	0
  1490     02DE  3404               	retlw	4
  1491     02DF  3400               	retlw	0
  1492     02E0  3400               	retlw	0
  1493     02E1  3400               	retlw	0
  1494     02E2  3400               	retlw	0
  1495     02E3  3400               	retlw	0
  1496     02E4  3400               	retlw	0
  1497     02E5  3400               	retlw	0
  1498     02E6  3402               	retlw	2
  1499     02E7  3400               	retlw	0
  1500     02E8  3400               	retlw	0
  1501     02E9  3400               	retlw	0
  1502     02EA  3400               	retlw	0
  1503     02EB  3400               	retlw	0
  1504     02EC  3400               	retlw	0
  1505     02ED  3400               	retlw	0
  1506     02EE  3401               	retlw	1
  1507     02EF  3400               	retlw	0
  1508     02F0  3400               	retlw	0
  1509     02F1  3400               	retlw	0
  1510     02F2  3400               	retlw	0
  1511     02F3  3400               	retlw	0
  1512     02F4  3400               	retlw	0
  1513     02F5  3400               	retlw	0
  1514     02F6  3400               	retlw	0
  1515     02F7  3480               	retlw	128
  1516     02F8  3400               	retlw	0
  1517     02F9  3400               	retlw	0
  1518     02FA  3400               	retlw	0
  1519     02FB  3400               	retlw	0
  1520     02FC  3400               	retlw	0
  1521     02FD  3400               	retlw	0
  1522     02FE  3400               	retlw	0
  1523     02FF  3440               	retlw	64
  1524     0300  3400               	retlw	0
  1525     0301  3400               	retlw	0
  1526     0302  3400               	retlw	0
  1527     0303  3400               	retlw	0
  1528     0304  3400               	retlw	0
  1529     0305  3400               	retlw	0
  1530     0306  3400               	retlw	0
  1531     0307  3420               	retlw	32
  1532     0308  3400               	retlw	0
  1533     0309  3400               	retlw	0
  1534     030A  3400               	retlw	0
  1535     030B  3400               	retlw	0
  1536     030C  3400               	retlw	0
  1537     030D  3400               	retlw	0
  1538     030E  3400               	retlw	0
  1539     030F  3410               	retlw	16
  1540     0310  3400               	retlw	0
  1541     0311  3400               	retlw	0
  1542     0312  3400               	retlw	0
  1543     0313  3400               	retlw	0
  1544     0314  3400               	retlw	0
  1545     0315  3400               	retlw	0
  1546     0316  3400               	retlw	0
  1547     0317  3408               	retlw	8
  1548     0318  3400               	retlw	0
  1549     0319  3400               	retlw	0
  1550     031A  3400               	retlw	0
  1551     031B  3400               	retlw	0
  1552     031C  3400               	retlw	0
  1553     031D  3400               	retlw	0
  1554     031E  3400               	retlw	0
  1555     031F  3404               	retlw	4
  1556     0320  3400               	retlw	0
  1557     0321  3400               	retlw	0
  1558     0322  3400               	retlw	0
  1559     0323  3400               	retlw	0
  1560     0324  3400               	retlw	0
  1561     0325  3400               	retlw	0
  1562     0326  3400               	retlw	0
  1563     0327  3402               	retlw	2
  1564     0328  3400               	retlw	0
  1565     0329  3400               	retlw	0
  1566     032A  3400               	retlw	0
  1567     032B  3400               	retlw	0
  1568     032C  3400               	retlw	0
  1569     032D  3400               	retlw	0
  1570     032E  3400               	retlw	0
  1571     032F  3401               	retlw	1
  1572     0330  3400               	retlw	0
  1573     0331  3400               	retlw	0
  1574     0332  3400               	retlw	0
  1575     0333  3400               	retlw	0
  1576     0334  3400               	retlw	0
  1577     0335  3400               	retlw	0
  1578     0336  3400               	retlw	0
  1579     0337  3400               	retlw	0
  1580     0338  3480               	retlw	128
  1581     0339  3400               	retlw	0
  1582     033A  3400               	retlw	0
  1583     033B  3400               	retlw	0
  1584     033C  3400               	retlw	0
  1585     033D  3400               	retlw	0
  1586     033E  3400               	retlw	0
  1587     033F  3400               	retlw	0
  1588     0340  3440               	retlw	64
  1589     0341  3400               	retlw	0
  1590     0342  3400               	retlw	0
  1591     0343  3400               	retlw	0
  1592     0344  3400               	retlw	0
  1593     0345  3400               	retlw	0
  1594     0346  3400               	retlw	0
  1595     0347  3400               	retlw	0
  1596     0348  3420               	retlw	32
  1597     0349  3400               	retlw	0
  1598     034A  3400               	retlw	0
  1599     034B  3400               	retlw	0
  1600     034C  3400               	retlw	0
  1601     034D  3400               	retlw	0
  1602     034E  3400               	retlw	0
  1603     034F  3400               	retlw	0
  1604     0350  3410               	retlw	16
  1605     0351  3400               	retlw	0
  1606     0352  3400               	retlw	0
  1607     0353  3400               	retlw	0
  1608     0354  3400               	retlw	0
  1609     0355  3400               	retlw	0
  1610     0356  3400               	retlw	0
  1611     0357  3400               	retlw	0
  1612     0358  3408               	retlw	8
  1613     0359  3400               	retlw	0
  1614     035A  3400               	retlw	0
  1615     035B  3400               	retlw	0
  1616     035C  3400               	retlw	0
  1617     035D  3400               	retlw	0
  1618     035E  3400               	retlw	0
  1619     035F  3400               	retlw	0
  1620     0360  3404               	retlw	4
  1621     0361  3400               	retlw	0
  1622     0362  3400               	retlw	0
  1623     0363  3400               	retlw	0
  1624     0364  3400               	retlw	0
  1625     0365  3400               	retlw	0
  1626     0366  3400               	retlw	0
  1627     0367  3400               	retlw	0
  1628     0368  3402               	retlw	2
  1629     0369  3400               	retlw	0
  1630     036A  3400               	retlw	0
  1631     036B  3400               	retlw	0
  1632     036C  3400               	retlw	0
  1633     036D  3400               	retlw	0
  1634     036E  3400               	retlw	0
  1635     036F  3400               	retlw	0
  1636     0370  3401               	retlw	1
  1637     0371  3400               	retlw	0
  1638     0372  3400               	retlw	0
  1639     0373  3400               	retlw	0
  1640     0374  3400               	retlw	0
  1641     0375  3400               	retlw	0
  1642     0376  3400               	retlw	0
  1643     0377  3400               	retlw	0
  1644     0378  3400               	retlw	0
  1645     0379  3480               	retlw	128
  1646     037A  3400               	retlw	0
  1647     037B  3400               	retlw	0
  1648     037C  3400               	retlw	0
  1649     037D  3400               	retlw	0
  1650     037E  3400               	retlw	0
  1651     037F  3400               	retlw	0
  1652     0380  3400               	retlw	0
  1653     0381  3440               	retlw	64
  1654     0382  3400               	retlw	0
  1655     0383  3400               	retlw	0
  1656     0384  3400               	retlw	0
  1657     0385  3400               	retlw	0
  1658     0386  3400               	retlw	0
  1659     0387  3400               	retlw	0
  1660     0388  3400               	retlw	0
  1661     0389  3420               	retlw	32
  1662     038A  3400               	retlw	0
  1663     038B  3400               	retlw	0
  1664     038C  3400               	retlw	0
  1665     038D  3400               	retlw	0
  1666     038E  3400               	retlw	0
  1667     038F  3400               	retlw	0
  1668     0390  3400               	retlw	0
  1669     0391  3410               	retlw	16
  1670     0392  3400               	retlw	0
  1671     0393  3400               	retlw	0
  1672     0394  3400               	retlw	0
  1673     0395  3400               	retlw	0
  1674     0396  3400               	retlw	0
  1675     0397  3400               	retlw	0
  1676     0398  3400               	retlw	0
  1677     0399  3408               	retlw	8
  1678     039A  3400               	retlw	0
  1679     039B  3400               	retlw	0
  1680     039C  3400               	retlw	0
  1681     039D  3400               	retlw	0
  1682     039E  3400               	retlw	0
  1683     039F  3400               	retlw	0
  1684     03A0  3400               	retlw	0
  1685     03A1  3404               	retlw	4
  1686     03A2  3400               	retlw	0
  1687     03A3  3400               	retlw	0
  1688     03A4  3400               	retlw	0
  1689     03A5  3400               	retlw	0
  1690     03A6  3400               	retlw	0
  1691     03A7  3400               	retlw	0
  1692     03A8  3400               	retlw	0
  1693     03A9  3402               	retlw	2
  1694     03AA  3400               	retlw	0
  1695     03AB  3400               	retlw	0
  1696     03AC  3400               	retlw	0
  1697     03AD  3400               	retlw	0
  1698     03AE  3400               	retlw	0
  1699     03AF  3400               	retlw	0
  1700     03B0  3400               	retlw	0
  1701     03B1  3401               	retlw	1
  1702     03B2  3400               	retlw	0
  1703     03B3  3400               	retlw	0
  1704     03B4  3400               	retlw	0
  1705     03B5  3400               	retlw	0
  1706     03B6  3400               	retlw	0
  1707     03B7  3400               	retlw	0
  1708     03B8  3400               	retlw	0
  1709     03B9  3400               	retlw	0
  1710     03BA  3480               	retlw	128
  1711     03BB  3400               	retlw	0
  1712     03BC  3400               	retlw	0
  1713     03BD  3400               	retlw	0
  1714     03BE  3400               	retlw	0
  1715     03BF  3400               	retlw	0
  1716     03C0  3400               	retlw	0
  1717     03C1  3400               	retlw	0
  1718     03C2  3440               	retlw	64
  1719     03C3  3400               	retlw	0
  1720     03C4  3400               	retlw	0
  1721     03C5  3400               	retlw	0
  1722     03C6  3400               	retlw	0
  1723     03C7  3400               	retlw	0
  1724     03C8  3400               	retlw	0
  1725     03C9  3400               	retlw	0
  1726     03CA  3420               	retlw	32
  1727     03CB  3400               	retlw	0
  1728     03CC  3400               	retlw	0
  1729     03CD  3400               	retlw	0
  1730     03CE  3400               	retlw	0
  1731     03CF  3400               	retlw	0
  1732     03D0  3400               	retlw	0
  1733     03D1  3400               	retlw	0
  1734     03D2  3410               	retlw	16
  1735     03D3  3400               	retlw	0
  1736     03D4  3400               	retlw	0
  1737     03D5  3400               	retlw	0
  1738     03D6  3400               	retlw	0
  1739     03D7  3400               	retlw	0
  1740     03D8  3400               	retlw	0
  1741     03D9  3400               	retlw	0
  1742     03DA  3408               	retlw	8
  1743     03DB  3400               	retlw	0
  1744     03DC  3400               	retlw	0
  1745     03DD  3400               	retlw	0
  1746     03DE  3400               	retlw	0
  1747     03DF  3400               	retlw	0
  1748     03E0  3400               	retlw	0
  1749     03E1  3400               	retlw	0
  1750     03E2  3404               	retlw	4
  1751     03E3  3400               	retlw	0
  1752     03E4  3400               	retlw	0
  1753     03E5  3400               	retlw	0
  1754     03E6  3400               	retlw	0
  1755     03E7  3400               	retlw	0
  1756     03E8  3400               	retlw	0
  1757     03E9  3400               	retlw	0
  1758     03EA  3402               	retlw	2
  1759     03EB  3400               	retlw	0
  1760     03EC  3400               	retlw	0
  1761     03ED  3400               	retlw	0
  1762     03EE  3400               	retlw	0
  1763     03EF  3400               	retlw	0
  1764     03F0  3400               	retlw	0
  1765     03F1  3400               	retlw	0
  1766     03F2  3401               	retlw	1
  1767     03F3  3400               	retlw	0
  1768     03F4  3400               	retlw	0
  1769     03F5  3400               	retlw	0
  1770     03F6  3400               	retlw	0
  1771     03F7  3400               	retlw	0
  1772     03F8  3400               	retlw	0
  1773     03F9  3400               	retlw	0
  1774     03FA  3400               	retlw	0
  1775     03FB  3480               	retlw	128
  1776     03FC  3400               	retlw	0
  1777     03FD  3400               	retlw	0
  1778     03FE  3400               	retlw	0
  1779     03FF  3400               	retlw	0
  1780     0400  3400               	retlw	0
  1781     0401  3400               	retlw	0
  1782     0402  3400               	retlw	0
  1783     0403  3440               	retlw	64
  1784     0404  3400               	retlw	0
  1785     0405  3400               	retlw	0
  1786     0406  3400               	retlw	0
  1787     0407  3400               	retlw	0
  1788     0408  3400               	retlw	0
  1789     0409  3400               	retlw	0
  1790     040A  3400               	retlw	0
  1791     040B  3420               	retlw	32
  1792     040C  3400               	retlw	0
  1793     040D  3400               	retlw	0
  1794     040E  3400               	retlw	0
  1795     040F  3400               	retlw	0
  1796     0410  3400               	retlw	0
  1797     0411  3400               	retlw	0
  1798     0412  3400               	retlw	0
  1799     0413  3410               	retlw	16
  1800     0414  3400               	retlw	0
  1801     0415  3400               	retlw	0
  1802     0416  3400               	retlw	0
  1803     0417  3400               	retlw	0
  1804     0418  3400               	retlw	0
  1805     0419  3400               	retlw	0
  1806     041A  3400               	retlw	0
  1807     041B  3408               	retlw	8
  1808     041C  3400               	retlw	0
  1809     041D  3400               	retlw	0
  1810     041E  3400               	retlw	0
  1811     041F  3400               	retlw	0
  1812     0420  3400               	retlw	0
  1813     0421  3400               	retlw	0
  1814     0422  3400               	retlw	0
  1815     0423  3404               	retlw	4
  1816     0424  3400               	retlw	0
  1817     0425  3400               	retlw	0
  1818     0426  3400               	retlw	0
  1819     0427  3400               	retlw	0
  1820     0428  3400               	retlw	0
  1821     0429  3400               	retlw	0
  1822     042A  3400               	retlw	0
  1823     042B  3402               	retlw	2
  1824     042C  3400               	retlw	0
  1825     042D  3400               	retlw	0
  1826     042E  3400               	retlw	0
  1827     042F  3400               	retlw	0
  1828     0430  3400               	retlw	0
  1829     0431  3400               	retlw	0
  1830     0432  3400               	retlw	0
  1831     0433  3401               	retlw	1
  1832     0434  3400               	retlw	0
  1833     0435  3400               	retlw	0
  1834     0436  3400               	retlw	0
  1835     0437  3400               	retlw	0
  1836     0438  3400               	retlw	0
  1837     0439  3400               	retlw	0
  1838     043A  3400               	retlw	0
  1839     043B  3400               	retlw	0
  1840     043C  3480               	retlw	128
  1841     043D  3400               	retlw	0
  1842     043E  3400               	retlw	0
  1843     043F  3400               	retlw	0
  1844     0440  3400               	retlw	0
  1845     0441  3400               	retlw	0
  1846     0442  3400               	retlw	0
  1847     0443  3400               	retlw	0
  1848     0444  3440               	retlw	64
  1849     0445  3400               	retlw	0
  1850     0446  3400               	retlw	0
  1851     0447  3400               	retlw	0
  1852     0448  3400               	retlw	0
  1853     0449  3400               	retlw	0
  1854     044A  3400               	retlw	0
  1855     044B  3400               	retlw	0
  1856     044C  3420               	retlw	32
  1857     044D  3400               	retlw	0
  1858     044E  3400               	retlw	0
  1859     044F  3400               	retlw	0
  1860     0450  3400               	retlw	0
  1861     0451  3400               	retlw	0
  1862     0452  3400               	retlw	0
  1863     0453  3400               	retlw	0
  1864     0454  3410               	retlw	16
  1865     0455  3400               	retlw	0
  1866     0456  3400               	retlw	0
  1867     0457  3400               	retlw	0
  1868     0458  3400               	retlw	0
  1869     0459  3400               	retlw	0
  1870     045A  3400               	retlw	0
  1871     045B  3400               	retlw	0
  1872     045C  3408               	retlw	8
  1873     045D  3400               	retlw	0
  1874     045E  3400               	retlw	0
  1875     045F  3400               	retlw	0
  1876     0460  3400               	retlw	0
  1877     0461  3400               	retlw	0
  1878     0462  3400               	retlw	0
  1879     0463  3400               	retlw	0
  1880     0464  3404               	retlw	4
  1881     0465  3400               	retlw	0
  1882     0466  3400               	retlw	0
  1883     0467  3400               	retlw	0
  1884     0468  3400               	retlw	0
  1885     0469  3400               	retlw	0
  1886     046A  3400               	retlw	0
  1887     046B  3400               	retlw	0
  1888     046C  3402               	retlw	2
  1889     046D  3400               	retlw	0
  1890     046E  3400               	retlw	0
  1891     046F  3400               	retlw	0
  1892     0470  3400               	retlw	0
  1893     0471  3400               	retlw	0
  1894     0472  3400               	retlw	0
  1895     0473  3400               	retlw	0
  1896     0474  3401               	retlw	1
  1897     0475  34FF               	retlw	255
  1898     0476  34FF               	retlw	255
  1899     0477  34FF               	retlw	255
  1900     0478  34FF               	retlw	255
  1901     0479  34FF               	retlw	255
  1902     047A  34FF               	retlw	255
  1903     047B  34FF               	retlw	255
  1904     047C  34FF               	retlw	255
  1905     047D  3400               	retlw	0
  1906     047E  3400               	retlw	0
  1907     047F  3400               	retlw	0
  1908     0480  3400               	retlw	0
  1909     0481  3400               	retlw	0
  1910     0482  3400               	retlw	0
  1911     0483  3400               	retlw	0
  1912     0484  3400               	retlw	0
  1913     0485                     __end_of_MATRIZ_LED:
  1914                           
  1915                           	psect	stringtext2
  1916     0800                     __pstringtext2:
  1917     0800                     _matrix_conf:
  1918     0800  3409               	retlw	9
  1919     0801  3400               	retlw	0
  1920     0802  340A               	retlw	10
  1921     0803  3400               	retlw	0
  1922     0804  340B               	retlw	11
  1923     0805  3407               	retlw	7
  1924     0806  340C               	retlw	12
  1925     0807  3401               	retlw	1
  1926     0808  340F               	retlw	15
  1927     0809  3401               	retlw	1
  1928     080A  340F               	retlw	15
  1929     080B  3400               	retlw	0
  1930     080C                     __end_of_matrix_conf:
  1931                           
  1932                           	psect	stringtext3
  1933     080C                     __pstringtext3:
  1934     080C                     _toint:
  1935     080C  3400               	retlw	0
  1936     080D  3400               	retlw	0
  1937     080E  3400               	retlw	0
  1938     080F  344B               	retlw	75
  1939     0810                     __end_of_toint:
  1940                           
  1941                           	psect	stringtext4
  1942     0810                     __pstringtext4:
  1943     0810                     _spi1_configuration:
  1944     0810  3401               	retlw	1
  1945     0811  3440               	retlw	64
  1946     0812  3401               	retlw	1
  1947     0813  3400               	retlw	0
  1948     0814                     __end_of_spi1_configuration:
  1949                           
  1950                           	psect	nvBANK1
  1951     00E8                     __pnvBANK1:
  1952     00E8                     _TMR1_InterruptHandler:
  1953     00E8                     	ds	2
  1954                           
  1955                           	psect	nvBANK2
  1956     0139                     __pnvBANK2:
  1957     0139                     _EUSART_ErrorHandler:
  1958     0139                     	ds	2
  1959     013B                     _EUSART_OverrunErrorHandler:
  1960     013B                     	ds	2
  1961     013D                     _EUSART_FramingErrorHandler:
  1962     013D                     	ds	2
  1963     000B                     _INTCONbits	set	11
  1964     0019                     _T1GCONbits	set	25
  1965     0018                     _T1CONbits	set	24
  1966     0018                     _T1CON	set	24
  1967     0016                     _TMR1L	set	22
  1968     0017                     _TMR1H	set	23
  1969     0019                     _T1GCON	set	25
  1970     0011                     _PIR1bits	set	17
  1971     0091                     _PIE1bits	set	145
  1972     0097                     _WDTCON	set	151
  1973     0098                     _OSCTUNE	set	152
  1974     0099                     _OSCCON	set	153
  1975     008D                     _TRISBbits	set	141
  1976     0095                     _OPTION_REGbits	set	149
  1977     008D                     _TRISB	set	141
  1978     008C                     _TRISA	set	140
  1979     010C                     _LATAbits	set	268
  1980     010D                     _LATBbits	set	269
  1981     0116                     _BORCON	set	278
  1982     011E                     _APFCON1	set	286
  1983     011D                     _APFCON0	set	285
  1984     010D                     _LATB	set	269
  1985     010C                     _LATA	set	268
  1986     019A                     _TXREG	set	410
  1987     0199                     _RCREG	set	409
  1988     019D                     _RCSTAbits	set	413
  1989     019E                     _TXSTAbits	set	414
  1990     019C                     _SPBRGH	set	412
  1991     019B                     _SPBRGL	set	411
  1992     019E                     _TXSTA	set	414
  1993     019D                     _RCSTA	set	413
  1994     019F                     _BAUDCON	set	415
  1995     018C                     _ANSELA	set	396
  1996     018D                     _ANSELB	set	397
  1997     0211                     _SSP1BUF	set	529
  1998     0216                     _SSP1CON2	set	534
  1999     0215                     _SSP1CON1bits	set	533
  2000     0212                     _SSP1ADD	set	530
  2001     0215                     _SSP1CON1	set	533
  2002     0214                     _SSP1STAT	set	532
  2003     020C                     _WPUA	set	524
  2004     020D                     _WPUB	set	525
  2005                           
  2006                           	psect	cinit
  2007     001B                     start_initialization:	
  2008                           ; #config settings
  2009                           
  2010     001B                     __initialization:
  2011                           
  2012                           ; Initialize objects allocated to BANK1
  2013     001B  0021               	movlb	1	; select bank1
  2014     001C  3189  2161  3180   	fcall	__pidataBANK1	;fetch initializer
  2015     001F  00E4               	movwf	__pdataBANK1& (0+127)
  2016     0020  3189  2162  3180   	fcall	__pidataBANK1+1	;fetch initializer
  2017     0023  00E5               	movwf	(__pdataBANK1+1)& (0+127)
  2018     0024  3189  2163  3180   	fcall	__pidataBANK1+2	;fetch initializer
  2019     0027  00E6               	movwf	(__pdataBANK1+2)& (0+127)
  2020     0028  3189  2164  3180   	fcall	__pidataBANK1+3	;fetch initializer
  2021     002B  00E7               	movwf	(__pdataBANK1+3)& (0+127)
  2022                           
  2023                           ; Clear objects allocated to BANK1
  2024     002C  30C9               	movlw	low __pbssBANK1
  2025     002D  0084               	movwf	4
  2026     002E  3000               	movlw	high __pbssBANK1
  2027     002F  0085               	movwf	5
  2028     0030  301B               	movlw	27
  2029     0031  3189  217C  3180   	fcall	clear_ram0
  2030                           
  2031                           ; Clear objects allocated to BANK2
  2032     0034  0022               	movlb	2	; select bank2
  2033     0035  01BF               	clrf	__pbssBANK2& (0+127)
  2034     0036                     end_of_initialization:	
  2035                           ;End of C runtime variable initialization code
  2036                           
  2037     0036                     __end_of__initialization:
  2038     0036  107E               	bcf	int$flags,0	;clear compiler interrupt flag (level 1)
  2039     0037  0020               	movlb	0
  2040     0038  318B  2BEC         	ljmp	_main	;jump to C main() function
  2041                           
  2042                           	psect	bssBANK1
  2043     00C9                     __pbssBANK1:
  2044     00C9                     roundf@F522:
  2045     00C9                     	ds	4
  2046     00CD                     verificaT@conta_ate_T:
  2047     00CD                     	ds	2
  2048     00CF                     AtualizaXY@guarda_posicaoY:
  2049     00CF                     	ds	2
  2050     00D1                     _timer1ReloadVal:
  2051     00D1                     	ds	2
  2052     00D3                     _gera_ys_anteriores:
  2053     00D3                     	ds	1
  2054     00D4                     _gera_xs_anteriores:
  2055     00D4                     	ds	1
  2056     00D5                     _T:
  2057     00D5                     	ds	1
  2058     00D6                     _conta_ate_T:
  2059     00D6                     	ds	1
  2060     00D7                     _incY:
  2061     00D7                     	ds	1
  2062     00D8                     _guarda_y_i_menos_1:
  2063     00D8                     	ds	1
  2064     00D9                     _guarda_y_i_menos_2:
  2065     00D9                     	ds	1
  2066     00DA                     _guarda_x_i_menos_1:
  2067     00DA                     	ds	1
  2068     00DB                     _guarda_x_i_menos_2:
  2069     00DB                     	ds	1
  2070     00DC                     _direcaoY:
  2071     00DC                     	ds	1
  2072     00DD                     _direcaoX:
  2073     00DD                     	ds	1
  2074     00DE                     _posicaoY:
  2075     00DE                     	ds	1
  2076     00DF                     _posicaoX:
  2077     00DF                     	ds	1
  2078     00E0                     _seed:
  2079     00E0                     	ds	4
  2080                           
  2081                           	psect	dataBANK1
  2082     00E4                     __pdataBANK1:
  2083     00E4                     _recalcula:
  2084     00E4                     	ds	1
  2085     00E5                     _primeiro_T:
  2086     00E5                     	ds	1
  2087     00E6                     _delay:
  2088     00E6                     	ds	1
  2089     00E7                     _incX:
  2090     00E7                     	ds	1
  2091                           
  2092                           	psect	bssBANK2
  2093     013F                     __pbssBANK2:
  2094     013F                     _eusartRxLastError:
  2095     013F                     	ds	1
  2096                           
  2097                           	psect	clrtext
  2098     097C                     clear_ram0:	
  2099                           ;	Called with FSR0 containing the base address, and
  2100                           ;	WREG with the size to clear
  2101                           
  2102     097C  0064               	clrwdt	;clear the watchdog before getting into this loop
  2103     097D                     clrloop0:
  2104     097D  0180               	clrf	0	;clear RAM location pointed to by FSR
  2105     097E  3101               	addfsr 0,1
  2106     097F  0B89               	decfsz	9,f	;Have we reached the end of clearing yet?
  2107     0980  297D               	goto	clrloop0	;have we reached the end yet?
  2108     0981  3400               	retlw	0	;all done for this memory range, return
  2109                           
  2110                           	psect	cstackBANK2
  2111     0120                     __pcstackBANK2:
  2112     0120                     ??_OSCILLATOR_Initialize:
  2113     0120                     ??_WDT_Initialize:	
  2114                           ; 1 bytes @ 0x0
  2115                           
  2116     0120                     ?_EUSART_SetFramingErrorHandler:	
  2117                           ; 1 bytes @ 0x0
  2118                           
  2119     0120                     ?_EUSART_SetOverrunErrorHandler:	
  2120                           ; 1 bytes @ 0x0
  2121                           
  2122     0120                     ?_EUSART_SetErrorHandler:	
  2123                           ; 1 bytes @ 0x0
  2124                           
  2125     0120                     ?_TMR1_SetInterruptHandler:	
  2126                           ; 1 bytes @ 0x0
  2127                           
  2128     0120                     ??_PIN_MANAGER_Initialize:	
  2129                           ; 1 bytes @ 0x0
  2130                           
  2131     0120                     ??_SPI1_Initialize:	
  2132                           ; 1 bytes @ 0x0
  2133                           
  2134     0120                     ??_SPI1_Open:	
  2135                           ; 1 bytes @ 0x0
  2136                           
  2137     0120                     ?_SPI1_ExchangeBlock:	
  2138                           ; 1 bytes @ 0x0
  2139                           
  2140     0120                     ??_EUSART_is_rx_ready:	
  2141                           ; 1 bytes @ 0x0
  2142                           
  2143     0120                     ??_EUSART_Read:	
  2144                           ; 1 bytes @ 0x0
  2145                           
  2146     0120                     SPI1_ExchangeBlock@block:	
  2147                           ; 1 bytes @ 0x0
  2148                           
  2149     0120                     EUSART_SetFramingErrorHandler@interruptHandler:	
  2150                           ; 2 bytes @ 0x0
  2151                           
  2152     0120                     EUSART_SetOverrunErrorHandler@interruptHandler:	
  2153                           ; 2 bytes @ 0x0
  2154                           
  2155     0120                     EUSART_SetErrorHandler@interruptHandler:	
  2156                           ; 2 bytes @ 0x0
  2157                           
  2158     0120                     TMR1_SetInterruptHandler@InterruptHandler:	
  2159                           ; 2 bytes @ 0x0
  2160                           
  2161                           
  2162                           ; 2 bytes @ 0x0
  2163     0120                     	ds	2
  2164     0122                     ??_TMR1_Initialize:
  2165     0122                     ??_EUSART_Initialize:	
  2166                           ; 1 bytes @ 0x2
  2167                           
  2168     0122                     ??_EUSART_SetFramingErrorHandler:	
  2169                           ; 1 bytes @ 0x2
  2170                           
  2171     0122                     ??_EUSART_SetOverrunErrorHandler:	
  2172                           ; 1 bytes @ 0x2
  2173                           
  2174     0122                     ??_EUSART_SetErrorHandler:	
  2175                           ; 1 bytes @ 0x2
  2176                           
  2177     0122                     ??_TMR1_SetInterruptHandler:	
  2178                           ; 1 bytes @ 0x2
  2179                           
  2180     0122                     ??_SYSTEM_Initialize:	
  2181                           ; 1 bytes @ 0x2
  2182                           
  2183     0122                     SPI1_ExchangeBlock@blockSize:	
  2184                           ; 1 bytes @ 0x2
  2185                           
  2186                           
  2187                           ; 2 bytes @ 0x2
  2188     0122                     	ds	1
  2189     0123                     SPI1_Open@spi1UniqueConfiguration:
  2190                           
  2191                           ; 1 bytes @ 0x3
  2192     0123                     	ds	1
  2193     0124                     ??_SPI1_ExchangeBlock:
  2194     0124                     SPI1_ExchangeBlock@data:	
  2195                           ; 1 bytes @ 0x4
  2196                           
  2197                           
  2198                           ; 2 bytes @ 0x4
  2199     0124                     	ds	2
  2200     0126                     ?_txSpi:
  2201     0126                     txSpi@data:	
  2202                           ; 1 bytes @ 0x6
  2203                           
  2204                           
  2205                           ; 2 bytes @ 0x6
  2206     0126                     	ds	2
  2207     0128                     txSpi@dataSize:
  2208                           
  2209                           ; 2 bytes @ 0x8
  2210     0128                     	ds	2
  2211     012A                     ??_txSpi:
  2212                           
  2213                           ; 1 bytes @ 0xA
  2214     012A                     	ds	2
  2215     012C                     txSpi@cs:
  2216                           
  2217                           ; 1 bytes @ 0xC
  2218     012C                     	ds	1
  2219     012D                     ??_initMatrix:
  2220                           
  2221                           ; 1 bytes @ 0xD
  2222     012D                     	ds	2
  2223     012F                     initMatrix@data:
  2224                           
  2225                           ; 4 bytes @ 0xF
  2226     012F                     	ds	4
  2227     0133                     initMatrix@k:
  2228                           
  2229                           ; 1 bytes @ 0x13
  2230     0133                     	ds	1
  2231     0134                     initMatrix@i:
  2232                           
  2233                           ; 1 bytes @ 0x14
  2234     0134                     	ds	1
  2235     0135                     initMatrix@j:
  2236                           
  2237                           ; 1 bytes @ 0x15
  2238     0135                     	ds	1
  2239     0136                     ??_main:
  2240                           
  2241                           ; 1 bytes @ 0x16
  2242     0136                     	ds	2
  2243     0138                     main@rxChar:
  2244                           
  2245                           ; 1 bytes @ 0x18
  2246     0138                     	ds	1
  2247                           
  2248                           	psect	cstackBANK1
  2249     00A0                     __pcstackBANK1:
  2250     00A0                     _roundf$1487:
  2251                           
  2252                           ; 4 bytes @ 0x0
  2253     00A0                     	ds	4
  2254     00A4                     roundf@z:
  2255                           
  2256                           ; 4 bytes @ 0x4
  2257     00A4                     	ds	4
  2258     00A8                     roundf@e:
  2259                           
  2260                           ; 2 bytes @ 0x8
  2261     00A8                     	ds	2
  2262     00AA                     roundf@u:
  2263                           
  2264                           ; 4 bytes @ 0xA
  2265     00AA                     	ds	4
  2266     00AE                     _roundf$1486:
  2267                           
  2268                           ; 4 bytes @ 0xE
  2269     00AE                     	ds	4
  2270     00B2                     roundf@sign:
  2271                           
  2272                           ; 1 bytes @ 0x12
  2273     00B2                     	ds	1
  2274     00B3                     roundf@y:
  2275                           
  2276                           ; 4 bytes @ 0x13
  2277     00B3                     	ds	4
  2278     00B7                     ?___fltol:
  2279     00B7                     ___fltol@f1:	
  2280                           ; 4 bytes @ 0x17
  2281                           
  2282                           
  2283                           ; 4 bytes @ 0x17
  2284     00B7                     	ds	4
  2285     00BB                     ??___fltol:
  2286                           
  2287                           ; 1 bytes @ 0x1B
  2288     00BB                     	ds	4
  2289     00BF                     ___fltol@sign1:
  2290                           
  2291                           ; 1 bytes @ 0x1F
  2292     00BF                     	ds	1
  2293     00C0                     ___fltol@exp1:
  2294                           
  2295                           ; 1 bytes @ 0x20
  2296     00C0                     	ds	1
  2297     00C1                     ??_AtualizaXY:
  2298     00C1                     ??_reinicia:	
  2299                           ; 1 bytes @ 0x21
  2300                           
  2301                           
  2302                           ; 1 bytes @ 0x21
  2303     00C1                     	ds	2
  2304     00C3                     reinicia@a:
  2305                           
  2306                           ; 4 bytes @ 0x23
  2307     00C3                     	ds	4
  2308     00C7                     ??_verificaT:
  2309                           
  2310                           ; 1 bytes @ 0x27
  2311     00C7                     	ds	2
  2312                           
  2313                           	psect	cstackCOMMON
  2314     0070                     __pcstackCOMMON:
  2315     0070                     ?___flge:
  2316     0070                     ?_OSCILLATOR_Initialize:	
  2317                           ; 1 bit 
  2318                           
  2319     0070                     ?_WDT_Initialize:	
  2320                           ; 1 bytes @ 0x0
  2321                           
  2322     0070                     ?_TMR1_Initialize:	
  2323                           ; 1 bytes @ 0x0
  2324                           
  2325     0070                     ?_EUSART_Initialize:	
  2326                           ; 1 bytes @ 0x0
  2327                           
  2328     0070                     ?_TMR1_DefaultInterruptHandler:	
  2329                           ; 1 bytes @ 0x0
  2330                           
  2331     0070                     ??_TMR1_DefaultInterruptHandler:	
  2332                           ; 1 bytes @ 0x0
  2333                           
  2334     0070                     ?_PIN_MANAGER_Initialize:	
  2335                           ; 1 bytes @ 0x0
  2336                           
  2337     0070                     ?_SPI1_Initialize:	
  2338                           ; 1 bytes @ 0x0
  2339                           
  2340     0070                     ?_SPI1_Open:	
  2341                           ; 1 bytes @ 0x0
  2342                           
  2343     0070                     ?_SYSTEM_Initialize:	
  2344                           ; 1 bytes @ 0x0
  2345                           
  2346     0070                     ?_EUSART_is_rx_ready:	
  2347                           ; 1 bytes @ 0x0
  2348                           
  2349     0070                     ?_EUSART_Read:	
  2350                           ; 1 bytes @ 0x0
  2351                           
  2352     0070                     ?_TMR1_WriteTimer:	
  2353                           ; 1 bytes @ 0x0
  2354                           
  2355     0070                     ?_TMR1_ISR:	
  2356                           ; 1 bytes @ 0x0
  2357                           
  2358     0070                     ?_INTERRUPT_InterruptManager:	
  2359                           ; 1 bytes @ 0x0
  2360                           
  2361     0070                     ?_initMatrix:	
  2362                           ; 1 bytes @ 0x0
  2363                           
  2364     0070                     ?_AtualizaXY:	
  2365                           ; 1 bytes @ 0x0
  2366                           
  2367     0070                     ?_reinicia:	
  2368                           ; 1 bytes @ 0x0
  2369                           
  2370     0070                     ?_verificaT:	
  2371                           ; 1 bytes @ 0x0
  2372                           
  2373     0070                     ?_main:	
  2374                           ; 1 bytes @ 0x0
  2375                           
  2376     0070                     ?i1_SPI1_ExchangeBlock:	
  2377                           ; 1 bytes @ 0x0
  2378                           
  2379     0070                     ?__Umul8_16:	
  2380                           ; 1 bytes @ 0x0
  2381                           
  2382     0070                     ?___lmul:	
  2383                           ; 2 bytes @ 0x0
  2384                           
  2385     0070                     ?___flneg:	
  2386                           ; 4 bytes @ 0x0
  2387                           
  2388     0070                     __Umul8_16@multiplicand:	
  2389                           ; 4 bytes @ 0x0
  2390                           
  2391     0070                     TMR1_WriteTimer@timerVal:	
  2392                           ; 1 bytes @ 0x0
  2393                           
  2394     0070                     i1SPI1_ExchangeBlock@block:	
  2395                           ; 2 bytes @ 0x0
  2396                           
  2397     0070                     ___lmul@multiplier:	
  2398                           ; 2 bytes @ 0x0
  2399                           
  2400     0070                     ___flge@ff1:	
  2401                           ; 4 bytes @ 0x0
  2402                           
  2403     0070                     ___flneg@f1:	
  2404                           ; 4 bytes @ 0x0
  2405                           
  2406                           
  2407                           ; 4 bytes @ 0x0
  2408     0070                     	ds	2
  2409     0072                     ??__Umul8_16:
  2410     0072                     ??_TMR1_WriteTimer:	
  2411                           ; 1 bytes @ 0x2
  2412                           
  2413     0072                     i1SPI1_ExchangeBlock@blockSize:	
  2414                           ; 1 bytes @ 0x2
  2415                           
  2416                           
  2417                           ; 2 bytes @ 0x2
  2418     0072                     	ds	2
  2419     0074                     ??___flneg:
  2420     0074                     ??i1_SPI1_ExchangeBlock:	
  2421                           ; 1 bytes @ 0x4
  2422                           
  2423     0074                     __Umul8_16@product:	
  2424                           ; 1 bytes @ 0x4
  2425                           
  2426     0074                     i1SPI1_ExchangeBlock@data:	
  2427                           ; 2 bytes @ 0x4
  2428                           
  2429     0074                     ___lmul@multiplicand:	
  2430                           ; 2 bytes @ 0x4
  2431                           
  2432     0074                     ___flge@ff2:	
  2433                           ; 4 bytes @ 0x4
  2434                           
  2435                           
  2436                           ; 4 bytes @ 0x4
  2437     0074                     	ds	2
  2438     0076                     ?i1_txSpi:
  2439     0076                     __Umul8_16@word_mpld:	
  2440                           ; 1 bytes @ 0x6
  2441                           
  2442     0076                     i1txSpi@data:	
  2443                           ; 2 bytes @ 0x6
  2444                           
  2445                           
  2446                           ; 2 bytes @ 0x6
  2447     0076                     	ds	2
  2448     0078                     ??___lmul:
  2449     0078                     ??___flge:	
  2450                           ; 1 bytes @ 0x8
  2451                           
  2452     0078                     __Umul8_16@multiplier:	
  2453                           ; 1 bytes @ 0x8
  2454                           
  2455     0078                     i1txSpi@dataSize:	
  2456                           ; 1 bytes @ 0x8
  2457                           
  2458     0078                     ___lmul@product:	
  2459                           ; 2 bytes @ 0x8
  2460                           
  2461                           
  2462                           ; 4 bytes @ 0x8
  2463     0078                     	ds	2
  2464     007A                     ??i1_txSpi:
  2465                           
  2466                           ; 1 bytes @ 0xA
  2467     007A                     	ds	2
  2468     007C                     ?_rand:
  2469     007C                     i1txSpi@cs:	
  2470                           ; 2 bytes @ 0xC
  2471                           
  2472                           
  2473                           ; 1 bytes @ 0xC
  2474     007C                     	ds	1
  2475     007D                     ?_matrixPosicao:
  2476     007D                     matrixPosicao@posicaoY:	
  2477                           ; 1 bytes @ 0xD
  2478                           
  2479                           
  2480                           ; 1 bytes @ 0xD
  2481     007D                     	ds	1
  2482     007E                     ??_TMR1_ISR:
  2483     007E                     ??_INTERRUPT_InterruptManager:	
  2484                           ; 1 bytes @ 0xE
  2485                           
  2486     007E                     ??___flsub:	
  2487                           ; 1 bytes @ 0xE
  2488                           
  2489                           
  2490                           	psect	cstackBANK0
  2491     0020                     __pcstackBANK0:	
  2492                           ; 1 bytes @ 0xE
  2493                           
  2494     0020                     ??_matrixPosicao:
  2495     0020                     ??_rand:	
  2496                           ; 1 bytes @ 0x0
  2497                           
  2498                           
  2499                           ; 1 bytes @ 0x0
  2500     0020                     	ds	1
  2501     0021                     matrixPosicao@data:
  2502                           
  2503                           ; 4 bytes @ 0x1
  2504     0021                     	ds	3
  2505     0024                     ?___xxtofl:
  2506     0024                     ___xxtofl@val:	
  2507                           ; 4 bytes @ 0x4
  2508                           
  2509                           
  2510                           ; 4 bytes @ 0x4
  2511     0024                     	ds	1
  2512     0025                     matrixPosicao@posicaoX:
  2513                           
  2514                           ; 1 bytes @ 0x5
  2515     0025                     	ds	1
  2516     0026                     matrixPosicao@i:
  2517                           
  2518                           ; 1 bytes @ 0x6
  2519     0026                     	ds	2
  2520     0028                     ??___xxtofl:
  2521                           
  2522                           ; 1 bytes @ 0x8
  2523     0028                     	ds	4
  2524     002C                     ___xxtofl@sign:
  2525                           
  2526                           ; 1 bytes @ 0xC
  2527     002C                     	ds	1
  2528     002D                     ___xxtofl@exp:
  2529                           
  2530                           ; 1 bytes @ 0xD
  2531     002D                     	ds	1
  2532     002E                     ___xxtofl@arg:
  2533                           
  2534                           ; 4 bytes @ 0xE
  2535     002E                     	ds	4
  2536     0032                     ?___flmul:
  2537     0032                     ___flmul@b:	
  2538                           ; 4 bytes @ 0x12
  2539                           
  2540                           
  2541                           ; 4 bytes @ 0x12
  2542     0032                     	ds	4
  2543     0036                     ___flmul@a:
  2544                           
  2545                           ; 4 bytes @ 0x16
  2546     0036                     	ds	4
  2547     003A                     ??___flmul:
  2548                           
  2549                           ; 1 bytes @ 0x1A
  2550     003A                     	ds	5
  2551     003F                     ___flmul@sign:
  2552                           
  2553                           ; 1 bytes @ 0x1F
  2554     003F                     	ds	1
  2555     0040                     ___flmul@grs:
  2556                           
  2557                           ; 4 bytes @ 0x20
  2558     0040                     	ds	4
  2559     0044                     ___flmul@aexp:
  2560                           
  2561                           ; 1 bytes @ 0x24
  2562     0044                     	ds	1
  2563     0045                     ___flmul@bexp:
  2564                           
  2565                           ; 1 bytes @ 0x25
  2566     0045                     	ds	1
  2567     0046                     ___flmul@prod:
  2568                           
  2569                           ; 4 bytes @ 0x26
  2570     0046                     	ds	4
  2571     004A                     ___flmul@temp:
  2572                           
  2573                           ; 2 bytes @ 0x2A
  2574     004A                     	ds	2
  2575     004C                     ?___fladd:
  2576     004C                     ___fladd@b:	
  2577                           ; 4 bytes @ 0x2C
  2578                           
  2579                           
  2580                           ; 4 bytes @ 0x2C
  2581     004C                     	ds	4
  2582     0050                     ___fladd@a:
  2583                           
  2584                           ; 4 bytes @ 0x30
  2585     0050                     	ds	4
  2586     0054                     ??___fladd:
  2587                           
  2588                           ; 1 bytes @ 0x34
  2589     0054                     	ds	8
  2590     005C                     ___fladd@signs:
  2591                           
  2592                           ; 1 bytes @ 0x3C
  2593     005C                     	ds	1
  2594     005D                     ___fladd@aexp:
  2595                           
  2596                           ; 1 bytes @ 0x3D
  2597     005D                     	ds	1
  2598     005E                     ___fladd@bexp:
  2599                           
  2600                           ; 1 bytes @ 0x3E
  2601     005E                     	ds	1
  2602     005F                     ___fladd@grs:
  2603                           
  2604                           ; 1 bytes @ 0x3F
  2605     005F                     	ds	1
  2606     0060                     ?___flsub:
  2607     0060                     ___flsub@a:	
  2608                           ; 4 bytes @ 0x40
  2609                           
  2610                           
  2611                           ; 4 bytes @ 0x40
  2612     0060                     	ds	4
  2613     0064                     ___flsub@b:
  2614                           
  2615                           ; 4 bytes @ 0x44
  2616     0064                     	ds	4
  2617     0068                     ?_roundf:
  2618     0068                     roundf@x:	
  2619                           ; 4 bytes @ 0x48
  2620                           
  2621                           
  2622                           ; 4 bytes @ 0x48
  2623     0068                     	ds	4
  2624     006C                     ??_roundf:
  2625                           
  2626                           ; 1 bytes @ 0x4C
  2627     006C                     	ds	4
  2628                           
  2629                           	psect	maintext
  2630     0BEC                     __pmaintext:	
  2631 ;;
  2632 ;;Main: autosize = 0, tempsize = 2, incstack = 0, save=0
  2633 ;;
  2634 ;; *************** function _main *****************
  2635 ;; Defined at:
  2636 ;;		line 167 in file "main.c"
  2637 ;; Parameters:    Size  Location     Type
  2638 ;;		None
  2639 ;; Auto vars:     Size  Location     Type
  2640 ;;  rxChar          1   24[BANK2 ] unsigned char 
  2641 ;; Return value:  Size  Location     Type
  2642 ;;                  1    wreg      void 
  2643 ;; Registers used:
  2644 ;;		wreg, fsr0l, fsr0h, fsr1l, fsr1h, status,2, status,0, pclath, cstack
  2645 ;; Tracked objects:
  2646 ;;		On entry : B1F/0
  2647 ;;		On exit  : 0/0
  2648 ;;		Unchanged: 0/0
  2649 ;; Data sizes:     COMMON   BANK0   BANK1   BANK2   BANK3   BANK4
  2650 ;;      Params:         0       0       0       0       0       0
  2651 ;;      Locals:         0       0       0       1       0       0
  2652 ;;      Temps:          0       0       0       2       0       0
  2653 ;;      Totals:         0       0       0       3       0       0
  2654 ;;Total ram usage:        3 bytes
  2655 ;; Hardware stack levels required when called: 10
  2656 ;; This function calls:
  2657 ;;		_EUSART_Read
  2658 ;;		_EUSART_is_rx_ready
  2659 ;;		_SPI1_Open
  2660 ;;		_SYSTEM_Initialize
  2661 ;;		_TMR1_SetInterruptHandler
  2662 ;;		_initMatrix
  2663 ;; This function is called by:
  2664 ;;		Startup code after reset
  2665 ;; This function uses a non-reentrant model
  2666 ;;
  2667                           
  2668     0BEC                     _main:	
  2669                           ;psect for function _main
  2670                           
  2671     0BEC                     l3147:	
  2672                           ;incstack = 0
  2673                           ; Regs used in _main: [wreg-fsr1h+status,2+status,0+pclath+cstack]
  2674                           
  2675                           
  2676                           ;main.c: 170:     SYSTEM_Initialize();
  2677     0BEC  3189  21CA  318B   	fcall	_SYSTEM_Initialize
  2678                           
  2679                           ;main.c: 173:     TMR1_SetInterruptHandler(verificaT);
  2680     0BEF  306A               	movlw	low _verificaT
  2681     0BF0  0022               	movlb	2	; select bank2
  2682     0BF1  00A0               	movwf	TMR1_SetInterruptHandler@InterruptHandler^(0+256)
  2683     0BF2  300A               	movlw	high _verificaT
  2684     0BF3  00A1               	movwf	(TMR1_SetInterruptHandler@InterruptHandler^(0+256)+1)
  2685     0BF4  3189  2189  318B   	fcall	_TMR1_SetInterruptHandler
  2686     0BF7                     l3149:
  2687     0BF7  0022               	movlb	2	; select bank2
  2688     0BF8  158D               	bsf	13,3	;volatile
  2689     0BF9                     l3151:
  2690     0BF9  160C               	bsf	12,4	;volatile
  2691     0BFA                     l3153:
  2692                           
  2693                           ;main.c: 177:     SPI1_Open(SPI1_DEFAULT);
  2694     0BFA  3000               	movlw	0
  2695     0BFB  318C  2481  318B   	fcall	_SPI1_Open
  2696     0BFE                     l3155:
  2697                           
  2698                           ;main.c: 179:     initMatrix();
  2699     0BFE  318C  2429  318B   	fcall	_initMatrix
  2700     0C01                     l3157:
  2701                           
  2702                           ;main.c: 180:     _delay((unsigned long)((1000)*(16000000/4000.0)));
  2703     0C01  3015               	movlw	21
  2704     0C02  0022               	movlb	2	; select bank2
  2705     0C03  00B7               	movwf	(??_main^(0+256)+1)
  2706     0C04  304B               	movlw	75
  2707     0C05  00B6               	movwf	??_main^(0+256)
  2708     0C06  30BE               	movlw	190
  2709     0C07                     u3167:
  2710     0C07  0B89               	decfsz	9,f
  2711     0C08  2C07               	goto	u3167
  2712     0C09  0BB6               	decfsz	??_main^(0+256),f
  2713     0C0A  2C07               	goto	u3167
  2714     0C0B  0BB7               	decfsz	(??_main^(0+256)+1),f
  2715     0C0C  2C07               	goto	u3167
  2716     0C0D  0000               	nop
  2717     0C0E                     l3159:
  2718                           
  2719                           ;main.c: 186:     (INTCONbits.GIE = 1);
  2720     0C0E  178B               	bsf	11,7	;volatile
  2721     0C0F                     l3161:
  2722                           
  2723                           ;main.c: 189:     (INTCONbits.PEIE = 1);
  2724     0C0F  170B               	bsf	11,6	;volatile
  2725     0C10                     l3163:
  2726                           
  2727                           ;main.c: 198:     {;main.c: 199:         if(EUSART_is_rx_ready()){
  2728     0C10  3189  2165  318B   	fcall	_EUSART_is_rx_ready
  2729     0C13  3A00               	xorlw	0
  2730     0C14  1903               	skipnz
  2731     0C15  2C17               	goto	u3141
  2732     0C16  2C18               	goto	u3140
  2733     0C17                     u3141:
  2734     0C17  2C10               	goto	l3163
  2735     0C18                     u3140:
  2736     0C18                     l3165:
  2737                           
  2738                           ;main.c: 200:             uint8_t rxChar = EUSART_Read();
  2739     0C18  3189  21A9  318B   	fcall	_EUSART_Read
  2740     0C1B  0022               	movlb	2	; select bank2
  2741     0C1C  00B8               	movwf	main@rxChar^(0+256)
  2742     0C1D                     l3167:
  2743                           
  2744                           ;main.c: 201:             if(rxChar == 0x55){
  2745     0C1D  3055               	movlw	85
  2746     0C1E  0638               	xorwf	main@rxChar^(0+256),w
  2747     0C1F  1D03               	btfss	3,2
  2748     0C20  2C22               	goto	u3151
  2749     0C21  2C23               	goto	u3150
  2750     0C22                     u3151:
  2751     0C22  2C10               	goto	l3163
  2752     0C23                     u3150:
  2753     0C23                     l3169:
  2754                           
  2755                           ;main.c: 202:                 recalcula = 1 ;
  2756     0C23  0021               	movlb	1	; select bank1
  2757     0C24  01E4               	clrf	_recalcula^(0+128)
  2758     0C25  0AE4               	incf	_recalcula^(0+128),f
  2759     0C26  2C10               	goto	l3163
  2760     0C27  3180  2819         	ljmp	start
  2761     0C29                     __end_of_main:
  2762                           
  2763                           	psect	text1
  2764     0C29                     __ptext1:	
  2765 ;; *************** function _initMatrix *****************
  2766 ;; Defined at:
  2767 ;;		line 52 in file "main.c"
  2768 ;; Parameters:    Size  Location     Type
  2769 ;;		None
  2770 ;; Auto vars:     Size  Location     Type
  2771 ;;  j               1   21[BANK2 ] unsigned char 
  2772 ;;  i               1   20[BANK2 ] unsigned char 
  2773 ;;  data            4   15[BANK2 ] unsigned char [4]
  2774 ;;  k               1   19[BANK2 ] unsigned char 
  2775 ;; Return value:  Size  Location     Type
  2776 ;;                  1    wreg      void 
  2777 ;; Registers used:
  2778 ;;		wreg, fsr0l, fsr0h, fsr1l, fsr1h, status,2, status,0, pclath, cstack
  2779 ;; Tracked objects:
  2780 ;;		On entry : 0/0
  2781 ;;		On exit  : 0/0
  2782 ;;		Unchanged: 0/0
  2783 ;; Data sizes:     COMMON   BANK0   BANK1   BANK2   BANK3   BANK4
  2784 ;;      Params:         0       0       0       0       0       0
  2785 ;;      Locals:         0       0       0       7       0       0
  2786 ;;      Temps:          0       0       0       2       0       0
  2787 ;;      Totals:         0       0       0       9       0       0
  2788 ;;Total ram usage:        9 bytes
  2789 ;; Hardware stack levels used: 1
  2790 ;; Hardware stack levels required when called: 9
  2791 ;; This function calls:
  2792 ;;		_txSpi
  2793 ;; This function is called by:
  2794 ;;		_main
  2795 ;; This function uses a non-reentrant model
  2796 ;;
  2797                           
  2798     0C29                     _initMatrix:	
  2799                           ;psect for function _initMatrix
  2800                           
  2801     0C29                     l3109:	
  2802                           ;incstack = 0
  2803                           ; Regs used in _initMatrix: [wreg-fsr1h+status,2+status,0+pclath+cstack]
  2804                           
  2805                           
  2806                           ;main.c: 53:     uint8_t data[4];;main.c: 54:     uint8_t k=0;
  2807     0C29  0022               	movlb	2	; select bank2
  2808     0C2A  01B3               	clrf	initMatrix@k^(0+256)
  2809                           
  2810                           ;main.c: 56:     for(uint8_t i=0;i<6;i++){
  2811     0C2B  01B4               	clrf	initMatrix@i^(0+256)
  2812     0C2C                     l3115:
  2813                           
  2814                           ;main.c: 57:         for(uint8_t j=0;j<4;j=j+2){
  2815     0C2C  01B5               	clrf	initMatrix@j^(0+256)
  2816     0C2D                     l3121:
  2817                           
  2818                           ;main.c: 58:             data[j]= matrix_conf[k];
  2819     0C2D  0835               	movf	initMatrix@j^(0+256),w
  2820     0C2E  3E2F               	addlw	(low (initMatrix@data| (0+256)))& (0+255)
  2821     0C2F  0086               	movwf	6
  2822     0C30  3001               	movlw	1	; select bank2/3
  2823     0C31  0087               	movwf	7
  2824     0C32  0833               	movf	initMatrix@k^(0+256),w
  2825     0C33  3E00               	addlw	low (_matrix_conf| (0+32768))
  2826     0C34  0084               	movwf	4
  2827     0C35  3088               	movlw	high (_matrix_conf| (0+32768))
  2828     0C36  1803               	skipnc
  2829     0C37  3E01               	addlw	1
  2830     0C38  0085               	movwf	5
  2831     0C39  0800               	movf	0,w	;code access
  2832     0C3A  0081               	movwf	1
  2833                           
  2834                           ;main.c: 59:             data[j+1]= matrix_conf[k+1];
  2835     0C3B  0835               	movf	initMatrix@j^(0+256),w
  2836     0C3C  3E01               	addlw	1
  2837     0C3D  3E2F               	addlw	(low (initMatrix@data| (0+256)))& (0+255)
  2838     0C3E  0086               	movwf	6
  2839     0C3F  3001               	movlw	1	; select bank2/3
  2840     0C40  0087               	movwf	7
  2841     0C41  0833               	movf	initMatrix@k^(0+256),w
  2842     0C42  3E01               	addlw	low ((_matrix_conf+1)| (0+32768))
  2843     0C43  0084               	movwf	4
  2844     0C44  3088               	movlw	high ((_matrix_conf+1)| (0+32768))
  2845     0C45  1803               	skipnc
  2846     0C46  3E01               	addlw	1
  2847     0C47  0085               	movwf	5
  2848     0C48  0800               	movf	0,w	;code access
  2849     0C49  0081               	movwf	1
  2850     0C4A                     l3123:
  2851                           
  2852                           ;main.c: 60:         }
  2853     0C4A  0835               	movf	initMatrix@j^(0+256),w
  2854     0C4B  3E02               	addlw	2
  2855     0C4C  00B5               	movwf	initMatrix@j^(0+256)
  2856     0C4D                     l3125:
  2857     0C4D  3004               	movlw	4
  2858     0C4E  0235               	subwf	initMatrix@j^(0+256),w
  2859     0C4F  1C03               	skipc
  2860     0C50  2C52               	goto	u3081
  2861     0C51  2C53               	goto	u3080
  2862     0C52                     u3081:
  2863     0C52  2C2D               	goto	l3121
  2864     0C53                     u3080:
  2865     0C53                     l3127:
  2866                           
  2867                           ;main.c: 61:         k=k+2;
  2868     0C53  0833               	movf	initMatrix@k^(0+256),w
  2869     0C54  3E02               	addlw	2
  2870     0C55  00B3               	movwf	initMatrix@k^(0+256)
  2871     0C56                     l3129:
  2872                           
  2873                           ;main.c: 62:         txSpi(spiCS1, data, 4);
  2874     0C56  302F               	movlw	low initMatrix@data
  2875     0C57  00A6               	movwf	txSpi@data^(0+256)
  2876     0C58  3001               	movlw	high initMatrix@data
  2877     0C59  00A7               	movwf	(txSpi@data+1)^(0+256)
  2878     0C5A  3004               	movlw	4
  2879     0C5B  00A8               	movwf	txSpi@dataSize^(0+256)
  2880     0C5C  3000               	movlw	0
  2881     0C5D  00A9               	movwf	(txSpi@dataSize^(0+256)+1)
  2882     0C5E  3000               	movlw	0
  2883     0C5F  318B  233C  318C   	fcall	_txSpi
  2884     0C62                     l3131:
  2885                           
  2886                           ;main.c: 63:         if(i==4){
  2887     0C62  3004               	movlw	4
  2888     0C63  0022               	movlb	2	; select bank2
  2889     0C64  0634               	xorwf	initMatrix@i^(0+256),w
  2890     0C65  1D03               	btfss	3,2
  2891     0C66  2C68               	goto	u3091
  2892     0C67  2C69               	goto	u3090
  2893     0C68                     u3091:
  2894     0C68  2C75               	goto	l3135
  2895     0C69                     u3090:
  2896     0C69                     l3133:
  2897                           
  2898                           ;main.c: 64:             _delay((unsigned long)((800)*(16000000/4000.0)));
  2899     0C69  3011               	movlw	17
  2900     0C6A  0022               	movlb	2	; select bank2
  2901     0C6B  00AE               	movwf	(??_initMatrix^(0+256)+1)
  2902     0C6C  303C               	movlw	60
  2903     0C6D  00AD               	movwf	??_initMatrix^(0+256)
  2904     0C6E  30CB               	movlw	203
  2905     0C6F                     u3177:
  2906     0C6F  0B89               	decfsz	9,f
  2907     0C70  2C6F               	goto	u3177
  2908     0C71  0BAD               	decfsz	??_initMatrix^(0+256),f
  2909     0C72  2C6F               	goto	u3177
  2910     0C73  0BAE               	decfsz	(??_initMatrix^(0+256)+1),f
  2911     0C74  2C6F               	goto	u3177
  2912     0C75                     l3135:
  2913                           
  2914                           ;main.c: 66:     }
  2915     0C75  3001               	movlw	1
  2916     0C76  0022               	movlb	2	; select bank2
  2917     0C77  00AD               	movwf	??_initMatrix^(0+256)
  2918     0C78  082D               	movf	??_initMatrix^(0+256),w
  2919     0C79  07B4               	addwf	initMatrix@i^(0+256),f
  2920     0C7A                     l3137:
  2921     0C7A  3006               	movlw	6
  2922     0C7B  0234               	subwf	initMatrix@i^(0+256),w
  2923     0C7C  1C03               	skipc
  2924     0C7D  2C7F               	goto	u3101
  2925     0C7E  2C80               	goto	u3100
  2926     0C7F                     u3101:
  2927     0C7F  2C2C               	goto	l3115
  2928     0C80                     u3100:
  2929     0C80                     l357:
  2930     0C80  0008               	return
  2931     0C81                     __end_of_initMatrix:
  2932                           
  2933                           	psect	text2
  2934     0B3C                     __ptext2:	
  2935 ;; *************** function _txSpi *****************
  2936 ;; Defined at:
  2937 ;;		line 106 in file "main.c"
  2938 ;; Parameters:    Size  Location     Type
  2939 ;;  cs              1    wreg     enum E2884
  2940 ;;  data            2    6[BANK2 ] PTR unsigned char 
  2941 ;;		 -> matrixPosicao@data(4), initMatrix@data(4), 
  2942 ;;  dataSize        2    8[BANK2 ] unsigned int 
  2943 ;; Auto vars:     Size  Location     Type
  2944 ;;  cs              1   12[BANK2 ] enum E2884
  2945 ;; Return value:  Size  Location     Type
  2946 ;;                  1    wreg      void 
  2947 ;; Registers used:
  2948 ;;		wreg, fsr0l, fsr0h, fsr1l, fsr1h, status,2, status,0, pclath, cstack
  2949 ;; Tracked objects:
  2950 ;;		On entry : 0/0
  2951 ;;		On exit  : 0/0
  2952 ;;		Unchanged: 0/0
  2953 ;; Data sizes:     COMMON   BANK0   BANK1   BANK2   BANK3   BANK4
  2954 ;;      Params:         0       0       0       4       0       0
  2955 ;;      Locals:         0       0       0       1       0       0
  2956 ;;      Temps:          0       0       0       2       0       0
  2957 ;;      Totals:         0       0       0       7       0       0
  2958 ;;Total ram usage:        7 bytes
  2959 ;; Hardware stack levels used: 1
  2960 ;; Hardware stack levels required when called: 8
  2961 ;; This function calls:
  2962 ;;		_SPI1_ExchangeBlock
  2963 ;; This function is called by:
  2964 ;;		_initMatrix
  2965 ;; This function uses a non-reentrant model
  2966 ;;
  2967                           
  2968     0B3C                     _txSpi:	
  2969                           ;psect for function _txSpi
  2970                           
  2971                           
  2972                           ;incstack = 0
  2973                           ; Regs used in _txSpi: [wreg-fsr1h+status,2+status,0+pclath+cstack]
  2974                           ;txSpi@cs stored from wreg
  2975     0B3C  0022               	movlb	2	; select bank2
  2976     0B3D  00AC               	movwf	txSpi@cs^(0+256)
  2977     0B3E                     l3063:
  2978                           
  2979                           ;main.c: 107:     switch(cs){
  2980     0B3E  2B43               	goto	l3067
  2981     0B3F                     l375:	
  2982                           ;main.c: 109:             do { LATBbits.LATB3 = 0; } while(0);
  2983                           
  2984     0B3F  118D               	bcf	13,3	;volatile
  2985     0B40  2B53               	goto	l3069
  2986     0B41                     l379:	
  2987                           ;main.c: 112:             do { LATAbits.LATA4 = 0; } while(0);
  2988                           
  2989     0B41  120C               	bcf	12,4	;volatile
  2990     0B42  2B53               	goto	l3069
  2991     0B43                     l3067:
  2992     0B43  082C               	movf	txSpi@cs^(0+256),w
  2993     0B44  00AA               	movwf	??_txSpi^(0+256)
  2994     0B45  01AB               	clrf	(??_txSpi^(0+256)+1)
  2995                           
  2996                           ; Switch on 2 bytes has been partitioned into a top level switch of size 1, and 1 sub-sw
      +                          itches
  2997                           ; Switch size 1, requested type "simple"
  2998                           ; Number of cases is 1, Range of values is 0 to 0
  2999                           ; switch strategies available:
  3000                           ; Name         Instructions Cycles
  3001                           ; simple_byte            4     3 (average)
  3002                           ; direct_byte            8     6 (fixed)
  3003                           ; jumptable            260     6 (fixed)
  3004                           ;	Chosen strategy is simple_byte
  3005     0B46  082B               	movf	(??_txSpi+1)^(0+256),w
  3006     0B47  3A00               	xorlw	0	; case 0
  3007     0B48  1903               	skipnz
  3008     0B49  2B4B               	goto	l3271
  3009     0B4A  2B53               	goto	l3069
  3010     0B4B                     l3271:
  3011                           
  3012                           ; Switch size 1, requested type "simple"
  3013                           ; Number of cases is 2, Range of values is 0 to 1
  3014                           ; switch strategies available:
  3015                           ; Name         Instructions Cycles
  3016                           ; simple_byte            7     4 (average)
  3017                           ; direct_byte           10     6 (fixed)
  3018                           ; jumptable            260     6 (fixed)
  3019                           ;	Chosen strategy is simple_byte
  3020     0B4B  082A               	movf	??_txSpi^(0+256),w
  3021     0B4C  3A00               	xorlw	0	; case 0
  3022     0B4D  1903               	skipnz
  3023     0B4E  2B3F               	goto	l375
  3024     0B4F  3A01               	xorlw	1	; case 1
  3025     0B50  1903               	skipnz
  3026     0B51  2B41               	goto	l379
  3027     0B52  2B53               	goto	l3069
  3028     0B53                     l3069:
  3029                           
  3030                           ;main.c: 115:     SPI1_ExchangeBlock(data,dataSize);
  3031     0B53  0827               	movf	(txSpi@data+1)^(0+256),w
  3032     0B54  00A1               	movwf	(SPI1_ExchangeBlock@block+1)^(0+256)
  3033     0B55  0826               	movf	txSpi@data^(0+256),w
  3034     0B56  00A0               	movwf	SPI1_ExchangeBlock@block^(0+256)
  3035     0B57  0829               	movf	(txSpi@dataSize+1)^(0+256),w
  3036     0B58  00A3               	movwf	(SPI1_ExchangeBlock@blockSize+1)^(0+256)
  3037     0B59  0828               	movf	txSpi@dataSize^(0+256),w
  3038     0B5A  00A2               	movwf	SPI1_ExchangeBlock@blockSize^(0+256)
  3039     0B5B  318A  22DC  318B   	fcall	_SPI1_ExchangeBlock
  3040                           
  3041                           ;main.c: 116:     switch(cs){
  3042     0B5E  2B63               	goto	l3073
  3043     0B5F                     l383:	
  3044                           ;main.c: 118:             do { LATBbits.LATB3 = 1; } while(0);
  3045                           
  3046     0B5F  158D               	bsf	13,3	;volatile
  3047     0B60  2B74               	goto	l389
  3048     0B61                     l387:	
  3049                           ;main.c: 121:             do { LATAbits.LATA4 = 1; } while(0);
  3050                           
  3051     0B61  160C               	bsf	12,4	;volatile
  3052     0B62  2B74               	goto	l389
  3053     0B63                     l3073:
  3054     0B63  0022               	movlb	2	; select bank2
  3055     0B64  082C               	movf	txSpi@cs^(0+256),w
  3056     0B65  00AA               	movwf	??_txSpi^(0+256)
  3057     0B66  01AB               	clrf	(??_txSpi^(0+256)+1)
  3058                           
  3059                           ; Switch on 2 bytes has been partitioned into a top level switch of size 1, and 1 sub-sw
      +                          itches
  3060                           ; Switch size 1, requested type "simple"
  3061                           ; Number of cases is 1, Range of values is 0 to 0
  3062                           ; switch strategies available:
  3063                           ; Name         Instructions Cycles
  3064                           ; simple_byte            4     3 (average)
  3065                           ; direct_byte            8     6 (fixed)
  3066                           ; jumptable            260     6 (fixed)
  3067                           ;	Chosen strategy is simple_byte
  3068     0B67  082B               	movf	(??_txSpi+1)^(0+256),w
  3069     0B68  3A00               	xorlw	0	; case 0
  3070     0B69  1903               	skipnz
  3071     0B6A  2B6C               	goto	l3273
  3072     0B6B  2B74               	goto	l389
  3073     0B6C                     l3273:
  3074                           
  3075                           ; Switch size 1, requested type "simple"
  3076                           ; Number of cases is 2, Range of values is 0 to 1
  3077                           ; switch strategies available:
  3078                           ; Name         Instructions Cycles
  3079                           ; simple_byte            7     4 (average)
  3080                           ; direct_byte           10     6 (fixed)
  3081                           ; jumptable            260     6 (fixed)
  3082                           ;	Chosen strategy is simple_byte
  3083     0B6C  082A               	movf	??_txSpi^(0+256),w
  3084     0B6D  3A00               	xorlw	0	; case 0
  3085     0B6E  1903               	skipnz
  3086     0B6F  2B5F               	goto	l383
  3087     0B70  3A01               	xorlw	1	; case 1
  3088     0B71  1903               	skipnz
  3089     0B72  2B61               	goto	l387
  3090     0B73  2B74               	goto	l389
  3091     0B74                     l389:
  3092     0B74  0008               	return
  3093     0B75                     __end_of_txSpi:
  3094                           
  3095                           	psect	text3
  3096     0ADC                     __ptext3:	
  3097 ;; *************** function _SPI1_ExchangeBlock *****************
  3098 ;; Defined at:
  3099 ;;		line 100 in file "mcc_generated_files/spi1.c"
  3100 ;; Parameters:    Size  Location     Type
  3101 ;;  block           2    0[BANK2 ] PTR void 
  3102 ;;		 -> matrixPosicao@data(4), initMatrix@data(4), 
  3103 ;;  blockSize       2    2[BANK2 ] unsigned int 
  3104 ;; Auto vars:     Size  Location     Type
  3105 ;;  data            2    4[BANK2 ] PTR unsigned char 
  3106 ;;		 -> matrixPosicao@data(4), initMatrix@data(4), 
  3107 ;; Return value:  Size  Location     Type
  3108 ;;                  1    wreg      void 
  3109 ;; Registers used:
  3110 ;;		wreg, fsr1l, fsr1h, status,2, status,0
  3111 ;; Tracked objects:
  3112 ;;		On entry : 0/0
  3113 ;;		On exit  : 0/0
  3114 ;;		Unchanged: 0/0
  3115 ;; Data sizes:     COMMON   BANK0   BANK1   BANK2   BANK3   BANK4
  3116 ;;      Params:         0       0       0       4       0       0
  3117 ;;      Locals:         0       0       0       2       0       0
  3118 ;;      Temps:          0       0       0       0       0       0
  3119 ;;      Totals:         0       0       0       6       0       0
  3120 ;;Total ram usage:        6 bytes
  3121 ;; Hardware stack levels used: 1
  3122 ;; Hardware stack levels required when called: 7
  3123 ;; This function calls:
  3124 ;;		Nothing
  3125 ;; This function is called by:
  3126 ;;		_txSpi
  3127 ;; This function uses a non-reentrant model
  3128 ;;
  3129                           
  3130     0ADC                     _SPI1_ExchangeBlock:	
  3131                           ;psect for function _SPI1_ExchangeBlock
  3132                           
  3133     0ADC                     l3031:	
  3134                           ;incstack = 0
  3135                           ; Regs used in _SPI1_ExchangeBlock: [wreg+fsr1l+fsr1h+status,2+status,0]
  3136                           
  3137                           
  3138                           ;mcc_generated_files/spi1.c: 100: void SPI1_ExchangeBlock(void *block, size_t blockSize)
      +                          ;mcc_generated_files/spi1.c: 101: {;mcc_generated_files/spi1.c: 102:     uint8_t *data =
      +                           block;
  3139     0ADC  0022               	movlb	2	; select bank2
  3140     0ADD  0821               	movf	(SPI1_ExchangeBlock@block+1)^(0+256),w
  3141     0ADE  00A5               	movwf	(SPI1_ExchangeBlock@data+1)^(0+256)
  3142     0ADF  0820               	movf	SPI1_ExchangeBlock@block^(0+256),w
  3143     0AE0  00A4               	movwf	SPI1_ExchangeBlock@data^(0+256)
  3144                           
  3145                           ;mcc_generated_files/spi1.c: 103:     while(blockSize--)
  3146     0AE1  2AFC               	goto	l3039
  3147     0AE2                     l3033:
  3148                           
  3149                           ;mcc_generated_files/spi1.c: 104:     {;mcc_generated_files/spi1.c: 105:         SSP1BUF
      +                           = *data;
  3150     0AE2  0824               	movf	SPI1_ExchangeBlock@data^(0+256),w
  3151     0AE3  0086               	movwf	6
  3152     0AE4  0825               	movf	(SPI1_ExchangeBlock@data+1)^(0+256),w
  3153     0AE5  0087               	movwf	7
  3154     0AE6  0801               	movf	1,w
  3155     0AE7  0024               	movlb	4	; select bank4
  3156     0AE8  0091               	movwf	17	;volatile
  3157     0AE9                     l67:	
  3158                           ;mcc_generated_files/spi1.c: 106:         while(!PIR1bits.SSP1IF);
  3159                           
  3160     0AE9  0020               	movlb	0	; select bank0
  3161     0AEA  1D91               	btfss	17,3	;volatile
  3162     0AEB  2AED               	goto	u2991
  3163     0AEC  2AEE               	goto	u2990
  3164     0AED                     u2991:
  3165     0AED  2AE9               	goto	l67
  3166     0AEE                     u2990:
  3167     0AEE                     l69:
  3168                           
  3169                           ;mcc_generated_files/spi1.c: 107:         PIR1bits.SSP1IF = 0;
  3170     0AEE  1191               	bcf	17,3	;volatile
  3171     0AEF                     l3035:
  3172                           
  3173                           ;mcc_generated_files/spi1.c: 108:         *data++ = SSP1BUF;
  3174     0AEF  0022               	movlb	2	; select bank2
  3175     0AF0  0824               	movf	SPI1_ExchangeBlock@data^(0+256),w
  3176     0AF1  0086               	movwf	6
  3177     0AF2  0825               	movf	(SPI1_ExchangeBlock@data+1)^(0+256),w
  3178     0AF3  0087               	movwf	7
  3179     0AF4  0024               	movlb	4	; select bank4
  3180     0AF5  0811               	movf	17,w	;volatile
  3181     0AF6  0081               	movwf	1
  3182     0AF7                     l3037:
  3183     0AF7  3001               	movlw	1
  3184     0AF8  0022               	movlb	2	; select bank2
  3185     0AF9  07A4               	addwf	SPI1_ExchangeBlock@data^(0+256),f
  3186     0AFA  3000               	movlw	0
  3187     0AFB  3DA5               	addwfc	(SPI1_ExchangeBlock@data+1)^(0+256),f
  3188     0AFC                     l3039:
  3189                           
  3190                           ;mcc_generated_files/spi1.c: 103:     while(blockSize--)
  3191     0AFC  3001               	movlw	1
  3192     0AFD  02A2               	subwf	SPI1_ExchangeBlock@blockSize^(0+256),f
  3193     0AFE  3000               	movlw	0
  3194     0AFF  3BA3               	subwfb	(SPI1_ExchangeBlock@blockSize+1)^(0+256),f
  3195     0B00  0A22               	incf	SPI1_ExchangeBlock@blockSize^(0+256),w
  3196     0B01  1D03               	skipz
  3197     0B02  2B07               	goto	u3001
  3198     0B03  0A23               	incf	(SPI1_ExchangeBlock@blockSize+1)^(0+256),w
  3199     0B04  1D03               	btfss	3,2
  3200     0B05  2B07               	goto	u3001
  3201     0B06  2B08               	goto	u3000
  3202     0B07                     u3001:
  3203     0B07  2AE2               	goto	l3033
  3204     0B08                     u3000:
  3205     0B08                     l71:
  3206     0B08  0008               	return
  3207     0B09                     __end_of_SPI1_ExchangeBlock:
  3208                           
  3209                           	psect	text4
  3210     09CA                     __ptext4:	
  3211 ;; *************** function _SYSTEM_Initialize *****************
  3212 ;; Defined at:
  3213 ;;		line 50 in file "mcc_generated_files/mcc.c"
  3214 ;; Parameters:    Size  Location     Type
  3215 ;;		None
  3216 ;; Auto vars:     Size  Location     Type
  3217 ;;		None
  3218 ;; Return value:  Size  Location     Type
  3219 ;;                  1    wreg      void 
  3220 ;; Registers used:
  3221 ;;		wreg, status,2, status,0, pclath, cstack
  3222 ;; Tracked objects:
  3223 ;;		On entry : 0/0
  3224 ;;		On exit  : 0/0
  3225 ;;		Unchanged: 0/0
  3226 ;; Data sizes:     COMMON   BANK0   BANK1   BANK2   BANK3   BANK4
  3227 ;;      Params:         0       0       0       0       0       0
  3228 ;;      Locals:         0       0       0       0       0       0
  3229 ;;      Temps:          0       0       0       0       0       0
  3230 ;;      Totals:         0       0       0       0       0       0
  3231 ;;Total ram usage:        0 bytes
  3232 ;; Hardware stack levels used: 1
  3233 ;; Hardware stack levels required when called: 9
  3234 ;; This function calls:
  3235 ;;		_EUSART_Initialize
  3236 ;;		_OSCILLATOR_Initialize
  3237 ;;		_PIN_MANAGER_Initialize
  3238 ;;		_SPI1_Initialize
  3239 ;;		_TMR1_Initialize
  3240 ;;		_WDT_Initialize
  3241 ;; This function is called by:
  3242 ;;		_main
  3243 ;; This function uses a non-reentrant model
  3244 ;;
  3245                           
  3246     09CA                     _SYSTEM_Initialize:	
  3247                           ;psect for function _SYSTEM_Initialize
  3248                           
  3249     09CA                     l2789:	
  3250                           ;incstack = 0
  3251                           ; Regs used in _SYSTEM_Initialize: [wreg+status,2+status,0+pclath+cstack]
  3252                           
  3253                           
  3254                           ;mcc_generated_files/mcc.c: 53:     SPI1_Initialize();
  3255     09CA  3189  219D  3189   	fcall	_SPI1_Initialize
  3256                           
  3257                           ;mcc_generated_files/mcc.c: 54:     PIN_MANAGER_Initialize();
  3258     09CD  3189  21F4  3189   	fcall	_PIN_MANAGER_Initialize
  3259                           
  3260                           ;mcc_generated_files/mcc.c: 55:     OSCILLATOR_Initialize();
  3261     09D0  3189  2182  3189   	fcall	_OSCILLATOR_Initialize
  3262                           
  3263                           ;mcc_generated_files/mcc.c: 56:     WDT_Initialize();
  3264     09D3  3189  215D  3189   	fcall	_WDT_Initialize
  3265                           
  3266                           ;mcc_generated_files/mcc.c: 57:     TMR1_Initialize();
  3267     09D6  318A  220C  3189   	fcall	_TMR1_Initialize
  3268                           
  3269                           ;mcc_generated_files/mcc.c: 58:     EUSART_Initialize();
  3270     09D9  318A  228D  3189   	fcall	_EUSART_Initialize
  3271     09DC                     l112:
  3272     09DC  0008               	return
  3273     09DD                     __end_of_SYSTEM_Initialize:
  3274                           
  3275                           	psect	text5
  3276     095D                     __ptext5:	
  3277 ;; *************** function _WDT_Initialize *****************
  3278 ;; Defined at:
  3279 ;;		line 71 in file "mcc_generated_files/mcc.c"
  3280 ;; Parameters:    Size  Location     Type
  3281 ;;		None
  3282 ;; Auto vars:     Size  Location     Type
  3283 ;;		None
  3284 ;; Return value:  Size  Location     Type
  3285 ;;                  1    wreg      void 
  3286 ;; Registers used:
  3287 ;;		wreg
  3288 ;; Tracked objects:
  3289 ;;		On entry : 0/0
  3290 ;;		On exit  : 0/0
  3291 ;;		Unchanged: 0/0
  3292 ;; Data sizes:     COMMON   BANK0   BANK1   BANK2   BANK3   BANK4
  3293 ;;      Params:         0       0       0       0       0       0
  3294 ;;      Locals:         0       0       0       0       0       0
  3295 ;;      Temps:          0       0       0       0       0       0
  3296 ;;      Totals:         0       0       0       0       0       0
  3297 ;;Total ram usage:        0 bytes
  3298 ;; Hardware stack levels used: 1
  3299 ;; Hardware stack levels required when called: 7
  3300 ;; This function calls:
  3301 ;;		Nothing
  3302 ;; This function is called by:
  3303 ;;		_SYSTEM_Initialize
  3304 ;; This function uses a non-reentrant model
  3305 ;;
  3306                           
  3307     095D                     _WDT_Initialize:	
  3308                           ;psect for function _WDT_Initialize
  3309                           
  3310     095D                     l2693:	
  3311                           ;incstack = 0
  3312                           ; Regs used in _WDT_Initialize: [wreg]
  3313                           
  3314                           
  3315                           ;mcc_generated_files/mcc.c: 74:     WDTCON = 0x16;
  3316     095D  3016               	movlw	22
  3317     095E  0021               	movlb	1	; select bank1
  3318     095F  0097               	movwf	23	;volatile
  3319     0960                     l118:
  3320     0960  0008               	return
  3321     0961                     __end_of_WDT_Initialize:
  3322                           
  3323                           	psect	text6
  3324     0A0C                     __ptext6:	
  3325 ;; *************** function _TMR1_Initialize *****************
  3326 ;; Defined at:
  3327 ;;		line 64 in file "mcc_generated_files/tmr1.c"
  3328 ;; Parameters:    Size  Location     Type
  3329 ;;		None
  3330 ;; Auto vars:     Size  Location     Type
  3331 ;;		None
  3332 ;; Return value:  Size  Location     Type
  3333 ;;                  1    wreg      void 
  3334 ;; Registers used:
  3335 ;;		wreg, status,2, status,0, pclath, cstack
  3336 ;; Tracked objects:
  3337 ;;		On entry : 0/0
  3338 ;;		On exit  : 0/0
  3339 ;;		Unchanged: 0/0
  3340 ;; Data sizes:     COMMON   BANK0   BANK1   BANK2   BANK3   BANK4
  3341 ;;      Params:         0       0       0       0       0       0
  3342 ;;      Locals:         0       0       0       0       0       0
  3343 ;;      Temps:          0       0       0       0       0       0
  3344 ;;      Totals:         0       0       0       0       0       0
  3345 ;;Total ram usage:        0 bytes
  3346 ;; Hardware stack levels used: 1
  3347 ;; Hardware stack levels required when called: 8
  3348 ;; This function calls:
  3349 ;;		_TMR1_SetInterruptHandler
  3350 ;; This function is called by:
  3351 ;;		_SYSTEM_Initialize
  3352 ;; This function uses a non-reentrant model
  3353 ;;
  3354                           
  3355     0A0C                     _TMR1_Initialize:	
  3356                           ;psect for function _TMR1_Initialize
  3357                           
  3358     0A0C                     l2695:	
  3359                           ;incstack = 0
  3360                           ; Regs used in _TMR1_Initialize: [wreg+status,2+status,0+pclath+cstack]
  3361                           
  3362                           
  3363                           ;mcc_generated_files/tmr1.c: 69:     T1GCON = 0x00;
  3364     0A0C  0020               	movlb	0	; select bank0
  3365     0A0D  0199               	clrf	25	;volatile
  3366     0A0E                     l2697:
  3367                           
  3368                           ;mcc_generated_files/tmr1.c: 72:     TMR1H = 0x3C;
  3369     0A0E  303C               	movlw	60
  3370     0A0F  0097               	movwf	23	;volatile
  3371     0A10                     l2699:
  3372                           
  3373                           ;mcc_generated_files/tmr1.c: 75:     TMR1L = 0xB0;
  3374     0A10  30B0               	movlw	176
  3375     0A11  0096               	movwf	22	;volatile
  3376     0A12                     l2701:
  3377                           
  3378                           ;mcc_generated_files/tmr1.c: 78:     PIR1bits.TMR1IF = 0;
  3379     0A12  1011               	bcf	17,0	;volatile
  3380     0A13                     l2703:
  3381                           
  3382                           ;mcc_generated_files/tmr1.c: 81:     timer1ReloadVal=(uint16_t)((TMR1H << 8) | TMR1L);
  3383     0A13  0817               	movf	23,w	;volatile
  3384     0A14  0021               	movlb	1	; select bank1
  3385     0A15  00D2               	movwf	(_timer1ReloadVal+1)^(0+128)	;volatile
  3386     0A16  0020               	movlb	0	; select bank0
  3387     0A17  0816               	movf	22,w	;volatile
  3388     0A18  0021               	movlb	1	; select bank1
  3389     0A19  00D1               	movwf	_timer1ReloadVal^(0+128)	;volatile
  3390     0A1A                     l2705:
  3391                           
  3392                           ;mcc_generated_files/tmr1.c: 84:     PIE1bits.TMR1IE = 1;
  3393     0A1A  1411               	bsf	17,0	;volatile
  3394     0A1B                     l2707:
  3395                           
  3396                           ;mcc_generated_files/tmr1.c: 87:     TMR1_SetInterruptHandler(TMR1_DefaultInterruptHandl
      +                          er);
  3397     0A1B  3003               	movlw	low _TMR1_DefaultInterruptHandler
  3398     0A1C  0022               	movlb	2	; select bank2
  3399     0A1D  00A0               	movwf	TMR1_SetInterruptHandler@InterruptHandler^(0+256)
  3400     0A1E  3000               	movlw	high _TMR1_DefaultInterruptHandler
  3401     0A1F  00A1               	movwf	(TMR1_SetInterruptHandler@InterruptHandler^(0+256)+1)
  3402     0A20  3189  2189  318A   	fcall	_TMR1_SetInterruptHandler
  3403     0A23                     l2709:
  3404                           
  3405                           ;mcc_generated_files/tmr1.c: 90:     T1CON = 0x11;
  3406     0A23  3011               	movlw	17
  3407     0A24  0020               	movlb	0	; select bank0
  3408     0A25  0098               	movwf	24	;volatile
  3409     0A26                     l233:
  3410     0A26  0008               	return
  3411     0A27                     __end_of_TMR1_Initialize:
  3412                           
  3413                           	psect	text7
  3414     0989                     __ptext7:	
  3415 ;; *************** function _TMR1_SetInterruptHandler *****************
  3416 ;; Defined at:
  3417 ;;		line 171 in file "mcc_generated_files/tmr1.c"
  3418 ;; Parameters:    Size  Location     Type
  3419 ;;  InterruptHan    2    0[BANK2 ] PTR FTN()void 
  3420 ;;		 -> verificaT(1), TMR1_DefaultInterruptHandler(1), 
  3421 ;; Auto vars:     Size  Location     Type
  3422 ;;		None
  3423 ;; Return value:  Size  Location     Type
  3424 ;;                  1    wreg      void 
  3425 ;; Registers used:
  3426 ;;		wreg
  3427 ;; Tracked objects:
  3428 ;;		On entry : 0/0
  3429 ;;		On exit  : 0/0
  3430 ;;		Unchanged: 0/0
  3431 ;; Data sizes:     COMMON   BANK0   BANK1   BANK2   BANK3   BANK4
  3432 ;;      Params:         0       0       0       2       0       0
  3433 ;;      Locals:         0       0       0       0       0       0
  3434 ;;      Temps:          0       0       0       0       0       0
  3435 ;;      Totals:         0       0       0       2       0       0
  3436 ;;Total ram usage:        2 bytes
  3437 ;; Hardware stack levels used: 1
  3438 ;; Hardware stack levels required when called: 7
  3439 ;; This function calls:
  3440 ;;		Nothing
  3441 ;; This function is called by:
  3442 ;;		_TMR1_Initialize
  3443 ;;		_main
  3444 ;; This function uses a non-reentrant model
  3445 ;;
  3446                           
  3447     0989                     _TMR1_SetInterruptHandler:	
  3448                           ;psect for function _TMR1_SetInterruptHandler
  3449                           
  3450     0989                     l2639:	
  3451                           ;incstack = 0
  3452                           ; Regs used in _TMR1_SetInterruptHandler: [wreg]
  3453                           
  3454                           
  3455                           ;mcc_generated_files/tmr1.c: 172:     TMR1_InterruptHandler = InterruptHandler;
  3456     0989  0022               	movlb	2	; select bank2
  3457     098A  0821               	movf	(TMR1_SetInterruptHandler@InterruptHandler+1)^(0+256),w
  3458     098B  0021               	movlb	1	; select bank1
  3459     098C  00E9               	movwf	(_TMR1_InterruptHandler+1)^(0+128)
  3460     098D  0022               	movlb	2	; select bank2
  3461     098E  0820               	movf	TMR1_SetInterruptHandler@InterruptHandler^(0+256),w
  3462     098F  0021               	movlb	1	; select bank1
  3463     0990  00E8               	movwf	_TMR1_InterruptHandler^(0+128)
  3464     0991                     l263:
  3465     0991  0008               	return
  3466     0992                     __end_of_TMR1_SetInterruptHandler:
  3467                           
  3468                           	psect	text8
  3469     099D                     __ptext8:	
  3470 ;; *************** function _SPI1_Initialize *****************
  3471 ;; Defined at:
  3472 ;;		line 62 in file "mcc_generated_files/spi1.c"
  3473 ;; Parameters:    Size  Location     Type
  3474 ;;		None
  3475 ;; Auto vars:     Size  Location     Type
  3476 ;;		None
  3477 ;; Return value:  Size  Location     Type
  3478 ;;                  1    wreg      void 
  3479 ;; Registers used:
  3480 ;;		wreg
  3481 ;; Tracked objects:
  3482 ;;		On entry : 0/0
  3483 ;;		On exit  : 0/0
  3484 ;;		Unchanged: 0/0
  3485 ;; Data sizes:     COMMON   BANK0   BANK1   BANK2   BANK3   BANK4
  3486 ;;      Params:         0       0       0       0       0       0
  3487 ;;      Locals:         0       0       0       0       0       0
  3488 ;;      Temps:          0       0       0       0       0       0
  3489 ;;      Totals:         0       0       0       0       0       0
  3490 ;;Total ram usage:        0 bytes
  3491 ;; Hardware stack levels used: 1
  3492 ;; Hardware stack levels required when called: 7
  3493 ;; This function calls:
  3494 ;;		Nothing
  3495 ;; This function is called by:
  3496 ;;		_SYSTEM_Initialize
  3497 ;; This function uses a non-reentrant model
  3498 ;;
  3499                           
  3500     099D                     _SPI1_Initialize:	
  3501                           ;psect for function _SPI1_Initialize
  3502                           
  3503     099D                     l2681:	
  3504                           ;incstack = 0
  3505                           ; Regs used in _SPI1_Initialize: [wreg]
  3506                           
  3507                           
  3508                           ;mcc_generated_files/spi1.c: 65:     SSP1STAT = 0x40;
  3509     099D  3040               	movlw	64
  3510     099E  0024               	movlb	4	; select bank4
  3511     099F  0094               	movwf	20	;volatile
  3512                           
  3513                           ;mcc_generated_files/spi1.c: 66:     SSP1CON1 = 0x01;
  3514     09A0  3001               	movlw	1
  3515     09A1  0095               	movwf	21	;volatile
  3516                           
  3517                           ;mcc_generated_files/spi1.c: 67:     SSP1ADD = 0x01;
  3518     09A2  3001               	movlw	1
  3519     09A3  0092               	movwf	18	;volatile
  3520     09A4                     l2683:
  3521                           
  3522                           ;mcc_generated_files/spi1.c: 68:     TRISBbits.TRISB4 = 0;
  3523     09A4  0021               	movlb	1	; select bank1
  3524     09A5  120D               	bcf	13,4	;volatile
  3525     09A6                     l2685:
  3526                           
  3527                           ;mcc_generated_files/spi1.c: 69:     SSP1CON1bits.SSPEN = 0;
  3528     09A6  0024               	movlb	4	; select bank4
  3529     09A7  1295               	bcf	21,5	;volatile
  3530     09A8                     l49:
  3531     09A8  0008               	return
  3532     09A9                     __end_of_SPI1_Initialize:
  3533                           
  3534                           	psect	text9
  3535     09F4                     __ptext9:	
  3536 ;; *************** function _PIN_MANAGER_Initialize *****************
  3537 ;; Defined at:
  3538 ;;		line 55 in file "mcc_generated_files/pin_manager.c"
  3539 ;; Parameters:    Size  Location     Type
  3540 ;;		None
  3541 ;; Auto vars:     Size  Location     Type
  3542 ;;		None
  3543 ;; Return value:  Size  Location     Type
  3544 ;;                  1    wreg      void 
  3545 ;; Registers used:
  3546 ;;		wreg, status,2
  3547 ;; Tracked objects:
  3548 ;;		On entry : 0/0
  3549 ;;		On exit  : 0/0
  3550 ;;		Unchanged: 0/0
  3551 ;; Data sizes:     COMMON   BANK0   BANK1   BANK2   BANK3   BANK4
  3552 ;;      Params:         0       0       0       0       0       0
  3553 ;;      Locals:         0       0       0       0       0       0
  3554 ;;      Temps:          0       0       0       0       0       0
  3555 ;;      Totals:         0       0       0       0       0       0
  3556 ;;Total ram usage:        0 bytes
  3557 ;; Hardware stack levels used: 1
  3558 ;; Hardware stack levels required when called: 7
  3559 ;; This function calls:
  3560 ;;		Nothing
  3561 ;; This function is called by:
  3562 ;;		_SYSTEM_Initialize
  3563 ;; This function uses a non-reentrant model
  3564 ;;
  3565                           
  3566     09F4                     _PIN_MANAGER_Initialize:	
  3567                           ;psect for function _PIN_MANAGER_Initialize
  3568                           
  3569     09F4                     l2665:	
  3570                           ;incstack = 0
  3571                           ; Regs used in _PIN_MANAGER_Initialize: [wreg+status,2]
  3572                           
  3573                           
  3574                           ;mcc_generated_files/pin_manager.c: 60:     LATA = 0x00;
  3575     09F4  0022               	movlb	2	; select bank2
  3576     09F5  018C               	clrf	12	;volatile
  3577                           
  3578                           ;mcc_generated_files/pin_manager.c: 61:     LATB = 0x00;
  3579     09F6  018D               	clrf	13	;volatile
  3580     09F7                     l2667:
  3581                           
  3582                           ;mcc_generated_files/pin_manager.c: 66:     TRISA = 0xBF;
  3583     09F7  30BF               	movlw	191
  3584     09F8  0021               	movlb	1	; select bank1
  3585     09F9  008C               	movwf	12	;volatile
  3586     09FA                     l2669:
  3587                           
  3588                           ;mcc_generated_files/pin_manager.c: 67:     TRISB = 0xEF;
  3589     09FA  30EF               	movlw	239
  3590     09FB  008D               	movwf	13	;volatile
  3591     09FC                     l2671:
  3592                           
  3593                           ;mcc_generated_files/pin_manager.c: 72:     ANSELB = 0xC8;
  3594     09FC  30C8               	movlw	200
  3595     09FD  0023               	movlb	3	; select bank3
  3596     09FE  008D               	movwf	13	;volatile
  3597     09FF                     l2673:
  3598                           
  3599                           ;mcc_generated_files/pin_manager.c: 73:     ANSELA = 0x1F;
  3600     09FF  301F               	movlw	31
  3601     0A00  008C               	movwf	12	;volatile
  3602                           
  3603                           ;mcc_generated_files/pin_manager.c: 78:     WPUB = 0x00;
  3604     0A01  0024               	movlb	4	; select bank4
  3605     0A02  018D               	clrf	13	;volatile
  3606                           
  3607                           ;mcc_generated_files/pin_manager.c: 79:     WPUA = 0x00;
  3608     0A03  018C               	clrf	12	;volatile
  3609     0A04                     l2675:
  3610                           
  3611                           ;mcc_generated_files/pin_manager.c: 80:     OPTION_REGbits.nWPUEN = 1;
  3612     0A04  0021               	movlb	1	; select bank1
  3613     0A05  1795               	bsf	21,7	;volatile
  3614     0A06                     l2677:
  3615                           
  3616                           ;mcc_generated_files/pin_manager.c: 86:     APFCON0 = 0xC0;
  3617     0A06  30C0               	movlw	192
  3618     0A07  0022               	movlb	2	; select bank2
  3619     0A08  009D               	movwf	29	;volatile
  3620     0A09                     l2679:
  3621                           
  3622                           ;mcc_generated_files/pin_manager.c: 87:     APFCON1 = 0x01;
  3623     0A09  3001               	movlw	1
  3624     0A0A  009E               	movwf	30	;volatile
  3625     0A0B                     l25:
  3626     0A0B  0008               	return
  3627     0A0C                     __end_of_PIN_MANAGER_Initialize:
  3628                           
  3629                           	psect	text10
  3630     0982                     __ptext10:	
  3631 ;; *************** function _OSCILLATOR_Initialize *****************
  3632 ;; Defined at:
  3633 ;;		line 61 in file "mcc_generated_files/mcc.c"
  3634 ;; Parameters:    Size  Location     Type
  3635 ;;		None
  3636 ;; Auto vars:     Size  Location     Type
  3637 ;;		None
  3638 ;; Return value:  Size  Location     Type
  3639 ;;                  1    wreg      void 
  3640 ;; Registers used:
  3641 ;;		wreg, status,2
  3642 ;; Tracked objects:
  3643 ;;		On entry : 0/0
  3644 ;;		On exit  : 0/0
  3645 ;;		Unchanged: 0/0
  3646 ;; Data sizes:     COMMON   BANK0   BANK1   BANK2   BANK3   BANK4
  3647 ;;      Params:         0       0       0       0       0       0
  3648 ;;      Locals:         0       0       0       0       0       0
  3649 ;;      Temps:          0       0       0       0       0       0
  3650 ;;      Totals:         0       0       0       0       0       0
  3651 ;;Total ram usage:        0 bytes
  3652 ;; Hardware stack levels used: 1
  3653 ;; Hardware stack levels required when called: 7
  3654 ;; This function calls:
  3655 ;;		Nothing
  3656 ;; This function is called by:
  3657 ;;		_SYSTEM_Initialize
  3658 ;; This function uses a non-reentrant model
  3659 ;;
  3660                           
  3661     0982                     _OSCILLATOR_Initialize:	
  3662                           ;psect for function _OSCILLATOR_Initialize
  3663                           
  3664     0982                     l2687:	
  3665                           ;incstack = 0
  3666                           ; Regs used in _OSCILLATOR_Initialize: [wreg+status,2]
  3667                           
  3668                           
  3669                           ;mcc_generated_files/mcc.c: 64:     OSCCON = 0x78;
  3670     0982  3078               	movlw	120
  3671     0983  0021               	movlb	1	; select bank1
  3672     0984  0099               	movwf	25	;volatile
  3673     0985                     l2689:
  3674                           
  3675                           ;mcc_generated_files/mcc.c: 66:     OSCTUNE = 0x00;
  3676     0985  0198               	clrf	24	;volatile
  3677     0986                     l2691:
  3678                           
  3679                           ;mcc_generated_files/mcc.c: 68:     BORCON = 0x00;
  3680     0986  0022               	movlb	2	; select bank2
  3681     0987  0196               	clrf	22	;volatile
  3682     0988                     l115:
  3683     0988  0008               	return
  3684     0989                     __end_of_OSCILLATOR_Initialize:
  3685                           
  3686                           	psect	text11
  3687     0A8D                     __ptext11:	
  3688 ;; *************** function _EUSART_Initialize *****************
  3689 ;; Defined at:
  3690 ;;		line 66 in file "mcc_generated_files/eusart.c"
  3691 ;; Parameters:    Size  Location     Type
  3692 ;;		None
  3693 ;; Auto vars:     Size  Location     Type
  3694 ;;		None
  3695 ;; Return value:  Size  Location     Type
  3696 ;;                  1    wreg      void 
  3697 ;; Registers used:
  3698 ;;		wreg, status,2, status,0, pclath, cstack
  3699 ;; Tracked objects:
  3700 ;;		On entry : 0/0
  3701 ;;		On exit  : 0/0
  3702 ;;		Unchanged: 0/0
  3703 ;; Data sizes:     COMMON   BANK0   BANK1   BANK2   BANK3   BANK4
  3704 ;;      Params:         0       0       0       0       0       0
  3705 ;;      Locals:         0       0       0       0       0       0
  3706 ;;      Temps:          0       0       0       0       0       0
  3707 ;;      Totals:         0       0       0       0       0       0
  3708 ;;Total ram usage:        0 bytes
  3709 ;; Hardware stack levels used: 1
  3710 ;; Hardware stack levels required when called: 8
  3711 ;; This function calls:
  3712 ;;		_EUSART_SetErrorHandler
  3713 ;;		_EUSART_SetFramingErrorHandler
  3714 ;;		_EUSART_SetOverrunErrorHandler
  3715 ;; This function is called by:
  3716 ;;		_SYSTEM_Initialize
  3717 ;; This function uses a non-reentrant model
  3718 ;;
  3719                           
  3720     0A8D                     _EUSART_Initialize:	
  3721                           ;psect for function _EUSART_Initialize
  3722                           
  3723     0A8D                     l2711:	
  3724                           ;incstack = 0
  3725                           ; Regs used in _EUSART_Initialize: [wreg+status,2+status,0+pclath+cstack]
  3726                           
  3727                           
  3728                           ;mcc_generated_files/eusart.c: 71:     BAUDCON = 0x08;
  3729     0A8D  3008               	movlw	8
  3730     0A8E  0023               	movlb	3	; select bank3
  3731     0A8F  009F               	movwf	31	;volatile
  3732                           
  3733                           ;mcc_generated_files/eusart.c: 74:     RCSTA = 0x90;
  3734     0A90  3090               	movlw	144
  3735     0A91  009D               	movwf	29	;volatile
  3736                           
  3737                           ;mcc_generated_files/eusart.c: 77:     TXSTA = 0x24;
  3738     0A92  3024               	movlw	36
  3739     0A93  009E               	movwf	30	;volatile
  3740                           
  3741                           ;mcc_generated_files/eusart.c: 80:     SPBRGL = 0x22;
  3742     0A94  3022               	movlw	34
  3743     0A95  009B               	movwf	27	;volatile
  3744     0A96                     l2713:
  3745                           
  3746                           ;mcc_generated_files/eusart.c: 83:     SPBRGH = 0x00;
  3747     0A96  019C               	clrf	28	;volatile
  3748     0A97                     l2715:
  3749                           
  3750                           ;mcc_generated_files/eusart.c: 86:     EUSART_SetFramingErrorHandler(EUSART_DefaultFrami
      +                          ngErrorHandler);
  3751     0A97  3000               	movlw	0
  3752     0A98  0022               	movlb	2	; select bank2
  3753     0A99  00A0               	movwf	EUSART_SetFramingErrorHandler@interruptHandler^(0+256)
  3754     0A9A  3000               	movlw	0
  3755     0A9B  00A1               	movwf	(EUSART_SetFramingErrorHandler@interruptHandler^(0+256)+1)
  3756     0A9C  3189  2170  318A   	fcall	_EUSART_SetFramingErrorHandler
  3757     0A9F                     l2717:
  3758                           
  3759                           ;mcc_generated_files/eusart.c: 87:     EUSART_SetOverrunErrorHandler(EUSART_DefaultOverr
      +                          unErrorHandler);
  3760     0A9F  3000               	movlw	0
  3761     0AA0  0022               	movlb	2	; select bank2
  3762     0AA1  00A0               	movwf	EUSART_SetOverrunErrorHandler@interruptHandler^(0+256)
  3763     0AA2  3000               	movlw	0
  3764     0AA3  00A1               	movwf	(EUSART_SetOverrunErrorHandler@interruptHandler^(0+256)+1)
  3765     0AA4  3189  2176  318A   	fcall	_EUSART_SetOverrunErrorHandler
  3766     0AA7                     l2719:
  3767                           
  3768                           ;mcc_generated_files/eusart.c: 88:     EUSART_SetErrorHandler(EUSART_DefaultErrorHandler
      +                          );
  3769     0AA7  3000               	movlw	0
  3770     0AA8  0022               	movlb	2	; select bank2
  3771     0AA9  00A0               	movwf	EUSART_SetErrorHandler@interruptHandler^(0+256)
  3772     0AAA  3000               	movlw	0
  3773     0AAB  00A1               	movwf	(EUSART_SetErrorHandler@interruptHandler^(0+256)+1)
  3774     0AAC  3189  216A  318A   	fcall	_EUSART_SetErrorHandler
  3775     0AAF                     l2721:
  3776                           
  3777                           ;mcc_generated_files/eusart.c: 90:     eusartRxLastError.status = 0;
  3778     0AAF  0022               	movlb	2	; select bank2
  3779     0AB0  01BF               	clrf	_eusartRxLastError^(0+256)	;volatile
  3780     0AB1                     l161:
  3781     0AB1  0008               	return
  3782     0AB2                     __end_of_EUSART_Initialize:
  3783                           
  3784                           	psect	text12
  3785     0976                     __ptext12:	
  3786 ;; *************** function _EUSART_SetOverrunErrorHandler *****************
  3787 ;; Defined at:
  3788 ;;		line 161 in file "mcc_generated_files/eusart.c"
  3789 ;; Parameters:    Size  Location     Type
  3790 ;;  interruptHan    2    0[BANK2 ] PTR FTN()void 
  3791 ;;		 -> EUSART_DefaultOverrunErrorHandler(1), 
  3792 ;; Auto vars:     Size  Location     Type
  3793 ;;		None
  3794 ;; Return value:  Size  Location     Type
  3795 ;;                  1    wreg      void 
  3796 ;; Registers used:
  3797 ;;		wreg
  3798 ;; Tracked objects:
  3799 ;;		On entry : 0/0
  3800 ;;		On exit  : 0/0
  3801 ;;		Unchanged: 0/0
  3802 ;; Data sizes:     COMMON   BANK0   BANK1   BANK2   BANK3   BANK4
  3803 ;;      Params:         0       0       0       2       0       0
  3804 ;;      Locals:         0       0       0       0       0       0
  3805 ;;      Temps:          0       0       0       0       0       0
  3806 ;;      Totals:         0       0       0       2       0       0
  3807 ;;Total ram usage:        2 bytes
  3808 ;; Hardware stack levels used: 1
  3809 ;; Hardware stack levels required when called: 7
  3810 ;; This function calls:
  3811 ;;		Nothing
  3812 ;; This function is called by:
  3813 ;;		_EUSART_Initialize
  3814 ;; This function uses a non-reentrant model
  3815 ;;
  3816                           
  3817     0976                     _EUSART_SetOverrunErrorHandler:	
  3818                           ;psect for function _EUSART_SetOverrunErrorHandler
  3819                           
  3820     0976                     l2635:	
  3821                           ;incstack = 0
  3822                           ; Regs used in _EUSART_SetOverrunErrorHandler: [wreg]
  3823                           
  3824                           
  3825                           ;mcc_generated_files/eusart.c: 162:     EUSART_OverrunErrorHandler = interruptHandler;
  3826     0976  0022               	movlb	2	; select bank2
  3827     0977  0821               	movf	(EUSART_SetOverrunErrorHandler@interruptHandler+1)^(0+256),w
  3828     0978  00BC               	movwf	(_EUSART_OverrunErrorHandler+1)^(0+256)
  3829     0979  0820               	movf	EUSART_SetOverrunErrorHandler@interruptHandler^(0+256),w
  3830     097A  00BB               	movwf	_EUSART_OverrunErrorHandler^(0+256)
  3831     097B                     l203:
  3832     097B  0008               	return
  3833     097C                     __end_of_EUSART_SetOverrunErrorHandler:
  3834                           
  3835                           	psect	text13
  3836     0970                     __ptext13:	
  3837 ;; *************** function _EUSART_SetFramingErrorHandler *****************
  3838 ;; Defined at:
  3839 ;;		line 157 in file "mcc_generated_files/eusart.c"
  3840 ;; Parameters:    Size  Location     Type
  3841 ;;  interruptHan    2    0[BANK2 ] PTR FTN()void 
  3842 ;;		 -> EUSART_DefaultFramingErrorHandler(1), 
  3843 ;; Auto vars:     Size  Location     Type
  3844 ;;		None
  3845 ;; Return value:  Size  Location     Type
  3846 ;;                  1    wreg      void 
  3847 ;; Registers used:
  3848 ;;		wreg
  3849 ;; Tracked objects:
  3850 ;;		On entry : 0/0
  3851 ;;		On exit  : 0/0
  3852 ;;		Unchanged: 0/0
  3853 ;; Data sizes:     COMMON   BANK0   BANK1   BANK2   BANK3   BANK4
  3854 ;;      Params:         0       0       0       2       0       0
  3855 ;;      Locals:         0       0       0       0       0       0
  3856 ;;      Temps:          0       0       0       0       0       0
  3857 ;;      Totals:         0       0       0       2       0       0
  3858 ;;Total ram usage:        2 bytes
  3859 ;; Hardware stack levels used: 1
  3860 ;; Hardware stack levels required when called: 7
  3861 ;; This function calls:
  3862 ;;		Nothing
  3863 ;; This function is called by:
  3864 ;;		_EUSART_Initialize
  3865 ;; This function uses a non-reentrant model
  3866 ;;
  3867                           
  3868     0970                     _EUSART_SetFramingErrorHandler:	
  3869                           ;psect for function _EUSART_SetFramingErrorHandler
  3870                           
  3871     0970                     l2633:	
  3872                           ;incstack = 0
  3873                           ; Regs used in _EUSART_SetFramingErrorHandler: [wreg]
  3874                           
  3875                           
  3876                           ;mcc_generated_files/eusart.c: 158:     EUSART_FramingErrorHandler = interruptHandler;
  3877     0970  0022               	movlb	2	; select bank2
  3878     0971  0821               	movf	(EUSART_SetFramingErrorHandler@interruptHandler+1)^(0+256),w
  3879     0972  00BE               	movwf	(_EUSART_FramingErrorHandler+1)^(0+256)
  3880     0973  0820               	movf	EUSART_SetFramingErrorHandler@interruptHandler^(0+256),w
  3881     0974  00BD               	movwf	_EUSART_FramingErrorHandler^(0+256)
  3882     0975                     l200:
  3883     0975  0008               	return
  3884     0976                     __end_of_EUSART_SetFramingErrorHandler:
  3885                           
  3886                           	psect	text14
  3887     096A                     __ptext14:	
  3888 ;; *************** function _EUSART_SetErrorHandler *****************
  3889 ;; Defined at:
  3890 ;;		line 165 in file "mcc_generated_files/eusart.c"
  3891 ;; Parameters:    Size  Location     Type
  3892 ;;  interruptHan    2    0[BANK2 ] PTR FTN()void 
  3893 ;;		 -> EUSART_DefaultErrorHandler(1), 
  3894 ;; Auto vars:     Size  Location     Type
  3895 ;;		None
  3896 ;; Return value:  Size  Location     Type
  3897 ;;                  1    wreg      void 
  3898 ;; Registers used:
  3899 ;;		wreg
  3900 ;; Tracked objects:
  3901 ;;		On entry : 0/0
  3902 ;;		On exit  : 0/0
  3903 ;;		Unchanged: 0/0
  3904 ;; Data sizes:     COMMON   BANK0   BANK1   BANK2   BANK3   BANK4
  3905 ;;      Params:         0       0       0       2       0       0
  3906 ;;      Locals:         0       0       0       0       0       0
  3907 ;;      Temps:          0       0       0       0       0       0
  3908 ;;      Totals:         0       0       0       2       0       0
  3909 ;;Total ram usage:        2 bytes
  3910 ;; Hardware stack levels used: 1
  3911 ;; Hardware stack levels required when called: 7
  3912 ;; This function calls:
  3913 ;;		Nothing
  3914 ;; This function is called by:
  3915 ;;		_EUSART_Initialize
  3916 ;; This function uses a non-reentrant model
  3917 ;;
  3918                           
  3919     096A                     _EUSART_SetErrorHandler:	
  3920                           ;psect for function _EUSART_SetErrorHandler
  3921                           
  3922     096A                     l2637:	
  3923                           ;incstack = 0
  3924                           ; Regs used in _EUSART_SetErrorHandler: [wreg]
  3925                           
  3926                           
  3927                           ;mcc_generated_files/eusart.c: 166:     EUSART_ErrorHandler = interruptHandler;
  3928     096A  0022               	movlb	2	; select bank2
  3929     096B  0821               	movf	(EUSART_SetErrorHandler@interruptHandler+1)^(0+256),w
  3930     096C  00BA               	movwf	(_EUSART_ErrorHandler+1)^(0+256)
  3931     096D  0820               	movf	EUSART_SetErrorHandler@interruptHandler^(0+256),w
  3932     096E  00B9               	movwf	_EUSART_ErrorHandler^(0+256)
  3933     096F                     l206:
  3934     096F  0008               	return
  3935     0970                     __end_of_EUSART_SetErrorHandler:
  3936                           
  3937                           	psect	text15
  3938     0C81                     __ptext15:	
  3939 ;; *************** function _SPI1_Open *****************
  3940 ;; Defined at:
  3941 ;;		line 72 in file "mcc_generated_files/spi1.c"
  3942 ;; Parameters:    Size  Location     Type
  3943 ;;  spi1UniqueCo    1    wreg     enum E358
  3944 ;; Auto vars:     Size  Location     Type
  3945 ;;  spi1UniqueCo    1    3[BANK2 ] enum E358
  3946 ;; Return value:  Size  Location     Type
  3947 ;;                  1    wreg      _Bool 
  3948 ;; Registers used:
  3949 ;;		wreg, fsr0l, fsr0h, status,2, status,0, pclath
  3950 ;; Tracked objects:
  3951 ;;		On entry : 0/0
  3952 ;;		On exit  : 0/0
  3953 ;;		Unchanged: 0/0
  3954 ;; Data sizes:     COMMON   BANK0   BANK1   BANK2   BANK3   BANK4
  3955 ;;      Params:         0       0       0       0       0       0
  3956 ;;      Locals:         0       0       0       1       0       0
  3957 ;;      Temps:          0       0       0       3       0       0
  3958 ;;      Totals:         0       0       0       4       0       0
  3959 ;;Total ram usage:        4 bytes
  3960 ;; Hardware stack levels used: 1
  3961 ;; Hardware stack levels required when called: 7
  3962 ;; This function calls:
  3963 ;;		Nothing
  3964 ;; This function is called by:
  3965 ;;		_main
  3966 ;; This function uses a non-reentrant model
  3967 ;;
  3968                           
  3969     0C81                     _SPI1_Open:	
  3970                           ;psect for function _SPI1_Open
  3971                           
  3972                           
  3973                           ;incstack = 0
  3974                           ; Regs used in _SPI1_Open: [wreg-fsr0h+status,2+status,0+pclath]
  3975                           ;SPI1_Open@spi1UniqueConfiguration stored from wreg
  3976     0C81  0022               	movlb	2	; select bank2
  3977     0C82  00A3               	movwf	SPI1_Open@spi1UniqueConfiguration^(0+256)
  3978     0C83                     l2775:
  3979                           
  3980                           ;mcc_generated_files/spi1.c: 72: _Bool SPI1_Open(spi1_modes_t spi1UniqueConfiguration);m
      +                          cc_generated_files/spi1.c: 73: {;mcc_generated_files/spi1.c: 74:     if(!SSP1CON1bits.SS
      +                          PEN)
  3981     0C83  0024               	movlb	4	; select bank4
  3982     0C84  1A95               	btfsc	21,5	;volatile
  3983     0C85  2C87               	goto	u2811
  3984     0C86  2C88               	goto	u2810
  3985     0C87                     u2811:
  3986     0C87  2CDB               	goto	l53
  3987     0C88                     u2810:
  3988     0C88                     l2777:
  3989                           
  3990                           ;mcc_generated_files/spi1.c: 75:     {;mcc_generated_files/spi1.c: 76:         SSP1STAT 
      +                          = spi1_configuration[spi1UniqueConfiguration].stat;
  3991     0C88  0022               	movlb	2	; select bank2
  3992     0C89  0823               	movf	SPI1_Open@spi1UniqueConfiguration^(0+256),w
  3993     0C8A  00A0               	movwf	??_SPI1_Open^(0+256)
  3994     0C8B  01A1               	clrf	(??_SPI1_Open^(0+256)+1)
  3995     0C8C  35A0               	lslf	??_SPI1_Open^(0+256),f
  3996     0C8D  0DA1               	rlf	(??_SPI1_Open^(0+256)+1),f
  3997     0C8E  35A0               	lslf	??_SPI1_Open^(0+256),f
  3998     0C8F  0DA1               	rlf	(??_SPI1_Open^(0+256)+1),f
  3999     0C90  3011               	movlw	low (_spi1_configuration+1)
  4000     0C91  0720               	addwf	??_SPI1_Open^(0+256),w
  4001     0C92  0084               	movwf	4
  4002     0C93  3008               	movlw	high (_spi1_configuration+1)
  4003     0C94  3D21               	addwfc	(??_SPI1_Open+1)^(0+256),w
  4004     0C95  3880               	iorlw	128
  4005     0C96  0085               	movwf	5
  4006     0C97  0800               	movf	0,w	;code access
  4007     0C98  0024               	movlb	4	; select bank4
  4008     0C99  0094               	movwf	20	;volatile
  4009                           
  4010                           ;mcc_generated_files/spi1.c: 77:         SSP1CON1 = spi1_configuration[spi1UniqueConfigu
      +                          ration].con1;
  4011     0C9A  0022               	movlb	2	; select bank2
  4012     0C9B  0823               	movf	SPI1_Open@spi1UniqueConfiguration^(0+256),w
  4013     0C9C  00A0               	movwf	??_SPI1_Open^(0+256)
  4014     0C9D  01A1               	clrf	(??_SPI1_Open^(0+256)+1)
  4015     0C9E  35A0               	lslf	??_SPI1_Open^(0+256),f
  4016     0C9F  0DA1               	rlf	(??_SPI1_Open^(0+256)+1),f
  4017     0CA0  35A0               	lslf	??_SPI1_Open^(0+256),f
  4018     0CA1  0DA1               	rlf	(??_SPI1_Open^(0+256)+1),f
  4019     0CA2  3010               	movlw	low _spi1_configuration
  4020     0CA3  0720               	addwf	??_SPI1_Open^(0+256),w
  4021     0CA4  0084               	movwf	4
  4022     0CA5  3008               	movlw	high _spi1_configuration
  4023     0CA6  3D21               	addwfc	(??_SPI1_Open+1)^(0+256),w
  4024     0CA7  3880               	iorlw	128
  4025     0CA8  0085               	movwf	5
  4026     0CA9  0800               	movf	0,w	;code access
  4027     0CAA  0024               	movlb	4	; select bank4
  4028     0CAB  0095               	movwf	21	;volatile
  4029     0CAC                     l2779:
  4030                           
  4031                           ;mcc_generated_files/spi1.c: 78:         SSP1CON2 = 0x00;
  4032     0CAC  0196               	clrf	22	;volatile
  4033     0CAD                     l2781:
  4034                           
  4035                           ;mcc_generated_files/spi1.c: 79:         SSP1ADD = spi1_configuration[spi1UniqueConfigur
      +                          ation].add;
  4036     0CAD  0022               	movlb	2	; select bank2
  4037     0CAE  0823               	movf	SPI1_Open@spi1UniqueConfiguration^(0+256),w
  4038     0CAF  00A0               	movwf	??_SPI1_Open^(0+256)
  4039     0CB0  01A1               	clrf	(??_SPI1_Open^(0+256)+1)
  4040     0CB1  35A0               	lslf	??_SPI1_Open^(0+256),f
  4041     0CB2  0DA1               	rlf	(??_SPI1_Open^(0+256)+1),f
  4042     0CB3  35A0               	lslf	??_SPI1_Open^(0+256),f
  4043     0CB4  0DA1               	rlf	(??_SPI1_Open^(0+256)+1),f
  4044     0CB5  3012               	movlw	low (_spi1_configuration+2)
  4045     0CB6  0720               	addwf	??_SPI1_Open^(0+256),w
  4046     0CB7  0084               	movwf	4
  4047     0CB8  3008               	movlw	high (_spi1_configuration+2)
  4048     0CB9  3D21               	addwfc	(??_SPI1_Open+1)^(0+256),w
  4049     0CBA  3880               	iorlw	128
  4050     0CBB  0085               	movwf	5
  4051     0CBC  0800               	movf	0,w	;code access
  4052     0CBD  0024               	movlb	4	; select bank4
  4053     0CBE  0092               	movwf	18	;volatile
  4054     0CBF                     l2783:
  4055                           
  4056                           ;mcc_generated_files/spi1.c: 80:         TRISBbits.TRISB4 = spi1_configuration[spi1Uniqu
      +                          eConfiguration].operation;
  4057     0CBF  0022               	movlb	2	; select bank2
  4058     0CC0  0823               	movf	SPI1_Open@spi1UniqueConfiguration^(0+256),w
  4059     0CC1  00A0               	movwf	??_SPI1_Open^(0+256)
  4060     0CC2  01A1               	clrf	(??_SPI1_Open^(0+256)+1)
  4061     0CC3  35A0               	lslf	??_SPI1_Open^(0+256),f
  4062     0CC4  0DA1               	rlf	(??_SPI1_Open^(0+256)+1),f
  4063     0CC5  35A0               	lslf	??_SPI1_Open^(0+256),f
  4064     0CC6  0DA1               	rlf	(??_SPI1_Open^(0+256)+1),f
  4065     0CC7  3013               	movlw	low (_spi1_configuration+3)
  4066     0CC8  0720               	addwf	??_SPI1_Open^(0+256),w
  4067     0CC9  0084               	movwf	4
  4068     0CCA  3008               	movlw	high (_spi1_configuration+3)
  4069     0CCB  3D21               	addwfc	(??_SPI1_Open+1)^(0+256),w
  4070     0CCC  3880               	iorlw	128
  4071     0CCD  0085               	movwf	5
  4072     0CCE  0800               	movf	0,w	;code access
  4073     0CCF  00A2               	movwf	(??_SPI1_Open+2)^(0+256)
  4074     0CD0  0EA2               	swapf	(??_SPI1_Open+2)^(0+256),f
  4075     0CD1  0021               	movlb	1	; select bank1
  4076     0CD2  080D               	movf	13,w	;volatile
  4077     0CD3  0022               	movlb	2	; select bank2
  4078     0CD4  0622               	xorwf	(??_SPI1_Open+2)^(0+256),w
  4079     0CD5  39EF               	andlw	-17
  4080     0CD6  0622               	xorwf	(??_SPI1_Open+2)^(0+256),w
  4081     0CD7  0021               	movlb	1	; select bank1
  4082     0CD8  008D               	movwf	13	;volatile
  4083     0CD9                     l2785:
  4084                           
  4085                           ;mcc_generated_files/spi1.c: 81:         SSP1CON1bits.SSPEN = 1;
  4086     0CD9  0024               	movlb	4	; select bank4
  4087     0CDA  1695               	bsf	21,5	;volatile
  4088     0CDB                     l53:
  4089     0CDB  0008               	return
  4090     0CDC                     __end_of_SPI1_Open:
  4091                           
  4092                           	psect	text16
  4093     0965                     __ptext16:	
  4094 ;; *************** function _EUSART_is_rx_ready *****************
  4095 ;; Defined at:
  4096 ;;		line 99 in file "mcc_generated_files/eusart.c"
  4097 ;; Parameters:    Size  Location     Type
  4098 ;;		None
  4099 ;; Auto vars:     Size  Location     Type
  4100 ;;		None
  4101 ;; Return value:  Size  Location     Type
  4102 ;;                  1    wreg      _Bool 
  4103 ;; Registers used:
  4104 ;;		wreg, status,2, status,0
  4105 ;; Tracked objects:
  4106 ;;		On entry : 0/0
  4107 ;;		On exit  : 0/0
  4108 ;;		Unchanged: 0/0
  4109 ;; Data sizes:     COMMON   BANK0   BANK1   BANK2   BANK3   BANK4
  4110 ;;      Params:         0       0       0       0       0       0
  4111 ;;      Locals:         0       0       0       0       0       0
  4112 ;;      Temps:          0       0       0       0       0       0
  4113 ;;      Totals:         0       0       0       0       0       0
  4114 ;;Total ram usage:        0 bytes
  4115 ;; Hardware stack levels used: 1
  4116 ;; Hardware stack levels required when called: 7
  4117 ;; This function calls:
  4118 ;;		Nothing
  4119 ;; This function is called by:
  4120 ;;		_main
  4121 ;; This function uses a non-reentrant model
  4122 ;;
  4123                           
  4124     0965                     _EUSART_is_rx_ready:	
  4125                           ;psect for function _EUSART_is_rx_ready
  4126                           
  4127     0965                     l2791:	
  4128                           ;incstack = 0
  4129                           ; Regs used in _EUSART_is_rx_ready: [wreg+status,2+status,0]
  4130                           
  4131                           
  4132                           ;mcc_generated_files/eusart.c: 101:     return (_Bool)(PIR1bits.RCIF);
  4133     0965  0020               	movlb	0	; select bank0
  4134     0966  0E11               	swapf	17,w	;volatile
  4135     0967  0C89               	rrf	9,f
  4136     0968  3901               	andlw	1
  4137     0969                     l169:
  4138     0969  0008               	return
  4139     096A                     __end_of_EUSART_is_rx_ready:
  4140                           
  4141                           	psect	text17
  4142     09A9                     __ptext17:	
  4143 ;; *************** function _EUSART_Read *****************
  4144 ;; Defined at:
  4145 ;;		line 113 in file "mcc_generated_files/eusart.c"
  4146 ;; Parameters:    Size  Location     Type
  4147 ;;		None
  4148 ;; Auto vars:     Size  Location     Type
  4149 ;;		None
  4150 ;; Return value:  Size  Location     Type
  4151 ;;                  1    wreg      unsigned char 
  4152 ;; Registers used:
  4153 ;;		wreg, status,2
  4154 ;; Tracked objects:
  4155 ;;		On entry : 0/0
  4156 ;;		On exit  : 0/0
  4157 ;;		Unchanged: 0/0
  4158 ;; Data sizes:     COMMON   BANK0   BANK1   BANK2   BANK3   BANK4
  4159 ;;      Params:         0       0       0       0       0       0
  4160 ;;      Locals:         0       0       0       0       0       0
  4161 ;;      Temps:          0       0       0       0       0       0
  4162 ;;      Totals:         0       0       0       0       0       0
  4163 ;;Total ram usage:        0 bytes
  4164 ;; Hardware stack levels used: 1
  4165 ;; Hardware stack levels required when called: 7
  4166 ;; This function calls:
  4167 ;;		Nothing
  4168 ;; This function is called by:
  4169 ;;		_main
  4170 ;; This function uses a non-reentrant model
  4171 ;;
  4172                           
  4173     09A9                     _EUSART_Read:	
  4174                           ;psect for function _EUSART_Read
  4175                           
  4176     09A9                     l2795:	
  4177                           ;incstack = 0
  4178                           ; Regs used in _EUSART_Read: [wreg+status,2]
  4179                           
  4180     09A9                     l178:	
  4181                           ;mcc_generated_files/eusart.c: 116:     {;mcc_generated_files/eusart.c: 117:     }
  4182                           
  4183                           
  4184                           ;mcc_generated_files/eusart.c: 115:     while(!PIR1bits.RCIF)
  4185     09A9  0020               	movlb	0	; select bank0
  4186     09AA  1E91               	btfss	17,5	;volatile
  4187     09AB  29AD               	goto	u2821
  4188     09AC  29AE               	goto	u2820
  4189     09AD                     u2821:
  4190     09AD  29A9               	goto	l178
  4191     09AE                     u2820:
  4192     09AE                     l2797:
  4193                           
  4194                           ;mcc_generated_files/eusart.c: 119:     eusartRxLastError.status = 0;
  4195     09AE  0022               	movlb	2	; select bank2
  4196     09AF  01BF               	clrf	_eusartRxLastError^(0+256)	;volatile
  4197     09B0                     l2799:
  4198                           
  4199                           ;mcc_generated_files/eusart.c: 121:     if(1 == RCSTAbits.OERR)
  4200     09B0  0023               	movlb	3	; select bank3
  4201     09B1  1C9D               	btfss	29,1	;volatile
  4202     09B2  29B4               	goto	u2831
  4203     09B3  29B5               	goto	u2830
  4204     09B4                     u2831:
  4205     09B4  29B7               	goto	l2803
  4206     09B5                     u2830:
  4207     09B5                     l2801:
  4208                           
  4209                           ;mcc_generated_files/eusart.c: 122:     {;mcc_generated_files/eusart.c: 125:         RCS
      +                          TAbits.CREN = 0;
  4210     09B5  121D               	bcf	29,4	;volatile
  4211                           
  4212                           ;mcc_generated_files/eusart.c: 126:         RCSTAbits.CREN = 1;
  4213     09B6  161D               	bsf	29,4	;volatile
  4214     09B7                     l2803:
  4215                           
  4216                           ;mcc_generated_files/eusart.c: 129:     return RCREG;
  4217     09B7  0819               	movf	25,w	;volatile
  4218     09B8                     l182:
  4219     09B8  0008               	return
  4220     09B9                     __end_of_EUSART_Read:
  4221                           
  4222                           	psect	intentry
  4223     0004                     __pintentry:	
  4224 ;; *************** function _INTERRUPT_InterruptManager *****************
  4225 ;; Defined at:
  4226 ;;		line 52 in file "mcc_generated_files/interrupt_manager.c"
  4227 ;; Parameters:    Size  Location     Type
  4228 ;;		None
  4229 ;; Auto vars:     Size  Location     Type
  4230 ;;		None
  4231 ;; Return value:  Size  Location     Type
  4232 ;;                  1    wreg      void 
  4233 ;; Registers used:
  4234 ;;		wreg, fsr0l, fsr0h, fsr1l, fsr1h, status,2, status,0, pclath, cstack
  4235 ;; Tracked objects:
  4236 ;;		On entry : 0/0
  4237 ;;		On exit  : 0/0
  4238 ;;		Unchanged: 0/0
  4239 ;; Data sizes:     COMMON   BANK0   BANK1   BANK2   BANK3   BANK4
  4240 ;;      Params:         0       0       0       0       0       0
  4241 ;;      Locals:         0       0       0       0       0       0
  4242 ;;      Temps:          0       0       0       0       0       0
  4243 ;;      Totals:         0       0       0       0       0       0
  4244 ;;Total ram usage:        0 bytes
  4245 ;; Hardware stack levels used: 1
  4246 ;; Hardware stack levels required when called: 6
  4247 ;; This function calls:
  4248 ;;		_TMR1_ISR
  4249 ;; This function is called by:
  4250 ;;		Interrupt level 1
  4251 ;; This function uses a non-reentrant model
  4252 ;;
  4253                           
  4254     0004                     _INTERRUPT_InterruptManager:
  4255                           
  4256                           ;incstack = 0
  4257     0004  147E               	bsf	int$flags,0	;set compiler interrupt flag (level 1)
  4258                           
  4259                           ; Regs used in _INTERRUPT_InterruptManager: [wreg-fsr1h+status,2+status,0+pclath+cstack]
  4260     0005  3180               	pagesel	$
  4261     0006                     i1l3139:
  4262                           
  4263                           ;mcc_generated_files/interrupt_manager.c: 55:     if(INTCONbits.PEIE == 1)
  4264     0006  1F0B               	btfss	11,6	;volatile
  4265     0007  2809               	goto	u311_21
  4266     0008  280A               	goto	u311_20
  4267     0009                     u311_21:
  4268     0009  2817               	goto	i1l283
  4269     000A                     u311_20:
  4270     000A                     i1l3141:
  4271                           
  4272                           ;mcc_generated_files/interrupt_manager.c: 56:     {;mcc_generated_files/interrupt_manage
      +                          r.c: 57:         if(PIE1bits.TMR1IE == 1 && PIR1bits.TMR1IF == 1)
  4273     000A  0021               	movlb	1	; select bank1
  4274     000B  1C11               	btfss	17,0	;volatile
  4275     000C  280E               	goto	u312_21
  4276     000D  280F               	goto	u312_20
  4277     000E                     u312_21:
  4278     000E  2817               	goto	i1l283
  4279     000F                     u312_20:
  4280     000F                     i1l3143:
  4281     000F  0020               	movlb	0	; select bank0
  4282     0010  1C11               	btfss	17,0	;volatile
  4283     0011  2813               	goto	u313_21
  4284     0012  2814               	goto	u313_20
  4285     0013                     u313_21:
  4286     0013  2817               	goto	i1l283
  4287     0014                     u313_20:
  4288     0014                     i1l3145:
  4289                           
  4290                           ;mcc_generated_files/interrupt_manager.c: 58:         {;mcc_generated_files/interrupt_ma
      +                          nager.c: 59:             TMR1_ISR();
  4291     0014  3189  21DD  3180   	fcall	_TMR1_ISR
  4292     0017                     i1l283:	
  4293                           ;mcc_generated_files/interrupt_manager.c: 60:         }
  4294                           
  4295     0017  107E               	bcf	int$flags,0	;clear compiler interrupt flag (level 1)
  4296     0018  0009               	retfie
  4297     0019                     __end_of_INTERRUPT_InterruptManager:
  4298                           
  4299                           	psect	text19
  4300     09DD                     __ptext19:	
  4301 ;; *************** function _TMR1_ISR *****************
  4302 ;; Defined at:
  4303 ;;		line 157 in file "mcc_generated_files/tmr1.c"
  4304 ;; Parameters:    Size  Location     Type
  4305 ;;		None
  4306 ;; Auto vars:     Size  Location     Type
  4307 ;;		None
  4308 ;; Return value:  Size  Location     Type
  4309 ;;                  1    wreg      void 
  4310 ;; Registers used:
  4311 ;;		wreg, fsr0l, fsr0h, fsr1l, fsr1h, status,2, status,0, pclath, cstack
  4312 ;; Tracked objects:
  4313 ;;		On entry : 0/0
  4314 ;;		On exit  : 0/0
  4315 ;;		Unchanged: 0/0
  4316 ;; Data sizes:     COMMON   BANK0   BANK1   BANK2   BANK3   BANK4
  4317 ;;      Params:         0       0       0       0       0       0
  4318 ;;      Locals:         0       0       0       0       0       0
  4319 ;;      Temps:          0       0       0       0       0       0
  4320 ;;      Totals:         0       0       0       0       0       0
  4321 ;;Total ram usage:        0 bytes
  4322 ;; Hardware stack levels used: 1
  4323 ;; Hardware stack levels required when called: 5
  4324 ;; This function calls:
  4325 ;;		NULL
  4326 ;;		_TMR1_DefaultInterruptHandler
  4327 ;;		_TMR1_WriteTimer
  4328 ;;		_verificaT
  4329 ;; This function is called by:
  4330 ;;		_INTERRUPT_InterruptManager
  4331 ;; This function uses a non-reentrant model
  4332 ;;
  4333                           
  4334     09DD                     _TMR1_ISR:	
  4335                           ;psect for function _TMR1_ISR
  4336                           
  4337     09DD                     i1l3101:	
  4338                           ;incstack = 0
  4339                           ; Regs used in _TMR1_ISR: [wreg-fsr1h+status,2+status,0+pclath+cstack]
  4340                           
  4341                           
  4342                           ;mcc_generated_files/tmr1.c: 161:     PIR1bits.TMR1IF = 0;
  4343     09DD  0020               	movlb	0	; select bank0
  4344     09DE  1011               	bcf	17,0	;volatile
  4345     09DF                     i1l3103:
  4346                           
  4347                           ;mcc_generated_files/tmr1.c: 162:     TMR1_WriteTimer(timer1ReloadVal);
  4348     09DF  0021               	movlb	1	; select bank1
  4349     09E0  0852               	movf	(_timer1ReloadVal+1)^(0+128),w	;volatile
  4350     09E1  00F1               	movwf	TMR1_WriteTimer@timerVal+1
  4351     09E2  0851               	movf	_timer1ReloadVal^(0+128),w	;volatile
  4352     09E3  00F0               	movwf	TMR1_WriteTimer@timerVal
  4353     09E4  3189  21B9  3189   	fcall	_TMR1_WriteTimer
  4354     09E7                     i1l3105:
  4355                           
  4356                           ;mcc_generated_files/tmr1.c: 164:     if(TMR1_InterruptHandler)
  4357     09E7  0021               	movlb	1	; select bank1
  4358     09E8  0868               	movf	_TMR1_InterruptHandler^(0+128),w
  4359     09E9  0469               	iorwf	(_TMR1_InterruptHandler+1)^(0+128),w
  4360     09EA  1903               	btfsc	3,2
  4361     09EB  29ED               	goto	u307_21
  4362     09EC  29EE               	goto	u307_20
  4363     09ED                     u307_21:
  4364     09ED  29F3               	goto	i1l260
  4365     09EE                     u307_20:
  4366     09EE                     i1l3107:
  4367                           
  4368                           ;mcc_generated_files/tmr1.c: 165:     {;mcc_generated_files/tmr1.c: 166:         TMR1_In
      +                          terruptHandler();
  4369     09EE  0869               	movf	(_TMR1_InterruptHandler+1)^(0+128),w
  4370     09EF  008A               	movwf	10
  4371     09F0  0868               	movf	_TMR1_InterruptHandler^(0+128),w
  4372     09F1  000A               	callw
  4373     09F2  3189               	pagesel	$
  4374     09F3                     i1l260:
  4375     09F3  0008               	return
  4376     09F4                     __end_of_TMR1_ISR:
  4377                           
  4378                           	psect	text20
  4379     0003                     __ptext20:	
  4380 ;; *************** function _TMR1_DefaultInterruptHandler *****************
  4381 ;; Defined at:
  4382 ;;		line 175 in file "mcc_generated_files/tmr1.c"
  4383 ;; Parameters:    Size  Location     Type
  4384 ;;		None
  4385 ;; Auto vars:     Size  Location     Type
  4386 ;;		None
  4387 ;; Return value:  Size  Location     Type
  4388 ;;                  1    wreg      void 
  4389 ;; Registers used:
  4390 ;;		None
  4391 ;; Tracked objects:
  4392 ;;		On entry : 0/0
  4393 ;;		On exit  : 0/0
  4394 ;;		Unchanged: 0/0
  4395 ;; Data sizes:     COMMON   BANK0   BANK1   BANK2   BANK3   BANK4
  4396 ;;      Params:         0       0       0       0       0       0
  4397 ;;      Locals:         0       0       0       0       0       0
  4398 ;;      Temps:          0       0       0       0       0       0
  4399 ;;      Totals:         0       0       0       0       0       0
  4400 ;;Total ram usage:        0 bytes
  4401 ;; Hardware stack levels used: 1
  4402 ;; This function calls:
  4403 ;;		Nothing
  4404 ;; This function is called by:
  4405 ;;		_TMR1_Initialize
  4406 ;;		_TMR1_ISR
  4407 ;; This function uses a non-reentrant model
  4408 ;;
  4409                           
  4410     0003                     _TMR1_DefaultInterruptHandler:	
  4411                           ;psect for function _TMR1_DefaultInterruptHandler
  4412                           
  4413     0003                     i1l266:	
  4414                           ;incstack = 0
  4415                           ; Regs used in _TMR1_DefaultInterruptHandler: []
  4416                           
  4417     0003  0008               	return
  4418     0004                     __end_of_TMR1_DefaultInterruptHandler:
  4419                           
  4420                           	psect	text21
  4421     0A6A                     __ptext21:	
  4422 ;; *************** function _verificaT *****************
  4423 ;; Defined at:
  4424 ;;		line 154 in file "main.c"
  4425 ;; Parameters:    Size  Location     Type
  4426 ;;		None
  4427 ;; Auto vars:     Size  Location     Type
  4428 ;;		None
  4429 ;; Return value:  Size  Location     Type
  4430 ;;                  1    wreg      void 
  4431 ;; Registers used:
  4432 ;;		wreg, fsr0l, fsr0h, fsr1l, fsr1h, status,2, status,0, pclath, cstack
  4433 ;; Tracked objects:
  4434 ;;		On entry : 0/0
  4435 ;;		On exit  : 0/0
  4436 ;;		Unchanged: 0/0
  4437 ;; Data sizes:     COMMON   BANK0   BANK1   BANK2   BANK3   BANK4
  4438 ;;      Params:         0       0       0       0       0       0
  4439 ;;      Locals:         0       0       0       0       0       0
  4440 ;;      Temps:          0       0       2       0       0       0
  4441 ;;      Totals:         0       0       2       0       0       0
  4442 ;;Total ram usage:        2 bytes
  4443 ;; Hardware stack levels used: 1
  4444 ;; Hardware stack levels required when called: 4
  4445 ;; This function calls:
  4446 ;;		_AtualizaXY
  4447 ;;		_reinicia
  4448 ;; This function is called by:
  4449 ;;		_main
  4450 ;;		_TMR1_ISR
  4451 ;; This function uses a non-reentrant model
  4452 ;;
  4453                           
  4454     0A6A                     _verificaT:	
  4455                           ;psect for function _verificaT
  4456                           
  4457     0A6A                     i1l3087:	
  4458                           ;incstack = 0
  4459                           ; Regs used in _verificaT: [wreg-fsr1h+status,2+status,0+pclath+cstack]
  4460                           
  4461                           
  4462                           ;main.c: 155:     static conta_ate_T = 0;;main.c: 156:     if(recalcula){
  4463     0A6A  0021               	movlb	1	; select bank1
  4464     0A6B  0864               	movf	_recalcula^(0+128),w
  4465     0A6C  1903               	btfsc	3,2
  4466     0A6D  2A6F               	goto	u305_21
  4467     0A6E  2A70               	goto	u305_20
  4468     0A6F                     u305_21:
  4469     0A6F  2A75               	goto	i1l3093
  4470     0A70                     u305_20:
  4471     0A70                     i1l3089:
  4472                           
  4473                           ;main.c: 157:         reinicia();
  4474     0A70  318C  24DC  318A   	fcall	_reinicia
  4475     0A73                     i1l3091:
  4476                           
  4477                           ;main.c: 158:         recalcula = 0;
  4478     0A73  0021               	movlb	1	; select bank1
  4479     0A74  01E4               	clrf	_recalcula^(0+128)
  4480     0A75                     i1l3093:
  4481                           
  4482                           ;main.c: 160:    if(conta_ate_T == T){
  4483     0A75  0855               	movf	_T^(0+128),w
  4484     0A76  00C7               	movwf	??_verificaT^(0+128)
  4485     0A77  01C8               	clrf	(??_verificaT^(0+128)+1)
  4486     0A78  084E               	movf	(verificaT@conta_ate_T+1)^(0+128),w
  4487     0A79  0648               	xorwf	(??_verificaT+1)^(0+128),w
  4488     0A7A  1D03               	skipz
  4489     0A7B  2A7E               	goto	u306_25
  4490     0A7C  084D               	movf	verificaT@conta_ate_T^(0+128),w
  4491     0A7D  0647               	xorwf	??_verificaT^(0+128),w
  4492     0A7E                     u306_25:
  4493     0A7E  1D03               	skipz
  4494     0A7F  2A81               	goto	u306_21
  4495     0A80  2A82               	goto	u306_20
  4496     0A81                     u306_21:
  4497     0A81  2A88               	goto	i1l3099
  4498     0A82                     u306_20:
  4499     0A82                     i1l3095:
  4500                           
  4501                           ;main.c: 161:         AtualizaXY();
  4502     0A82  318D  25B6  318A   	fcall	_AtualizaXY
  4503     0A85                     i1l3097:
  4504                           
  4505                           ;main.c: 162:         conta_ate_T = 0;
  4506     0A85  0021               	movlb	1	; select bank1
  4507     0A86  01CD               	clrf	verificaT@conta_ate_T^(0+128)
  4508     0A87  01CE               	clrf	(verificaT@conta_ate_T+1)^(0+128)
  4509     0A88                     i1l3099:
  4510                           
  4511                           ;main.c: 164:     conta_ate_T++;
  4512     0A88  3001               	movlw	1
  4513     0A89  07CD               	addwf	verificaT@conta_ate_T^(0+128),f
  4514     0A8A  3000               	movlw	0
  4515     0A8B  3DCE               	addwfc	(verificaT@conta_ate_T+1)^(0+128),f
  4516     0A8C                     i1l403:
  4517     0A8C  0008               	return
  4518     0A8D                     __end_of_verificaT:
  4519                           
  4520                           	psect	text22
  4521     0CDC                     __ptext22:	
  4522 ;; *************** function _reinicia *****************
  4523 ;; Defined at:
  4524 ;;		line 97 in file "main.c"
  4525 ;; Parameters:    Size  Location     Type
  4526 ;;		None
  4527 ;; Auto vars:     Size  Location     Type
  4528 ;;  a               4   35[BANK1 ] float 
  4529 ;; Return value:  Size  Location     Type
  4530 ;;                  1    wreg      void 
  4531 ;; Registers used:
  4532 ;;		wreg, status,2, status,0, pclath, cstack
  4533 ;; Tracked objects:
  4534 ;;		On entry : 0/0
  4535 ;;		On exit  : 0/0
  4536 ;;		Unchanged: 0/0
  4537 ;; Data sizes:     COMMON   BANK0   BANK1   BANK2   BANK3   BANK4
  4538 ;;      Params:         0       0       0       0       0       0
  4539 ;;      Locals:         0       0       4       0       0       0
  4540 ;;      Temps:          0       0       2       0       0       0
  4541 ;;      Totals:         0       0       6       0       0       0
  4542 ;;Total ram usage:        6 bytes
  4543 ;; Hardware stack levels used: 1
  4544 ;; Hardware stack levels required when called: 2
  4545 ;; This function calls:
  4546 ;;		___fladd
  4547 ;;		___flmul
  4548 ;;		___fltol
  4549 ;;		___xxtofl
  4550 ;;		_rand
  4551 ;; This function is called by:
  4552 ;;		_verificaT
  4553 ;; This function uses a non-reentrant model
  4554 ;;
  4555                           
  4556     0CDC                     _reinicia:	
  4557                           ;psect for function _reinicia
  4558                           
  4559     0CDC                     i1l2663:	
  4560                           ;incstack = 0
  4561                           ; Regs used in _reinicia: [wreg+status,2+status,0+pclath+cstack]
  4562                           
  4563                           
  4564                           ;main.c: 98:     T = (uint8_t)(rand() & 0x0F);
  4565     0CDC  318B  23B0  318C   	fcall	_rand
  4566     0CDF  087C               	movf	?_rand,w
  4567     0CE0  390F               	andlw	15
  4568     0CE1  0021               	movlb	1	; select bank1
  4569     0CE2  00D5               	movwf	_T^(0+128)
  4570                           
  4571                           ;main.c: 99:     float a;;main.c: 101:     a = -1.6 + (rand()&0x1F)*0.1;
  4572     0CE3  30BF               	movlw	191
  4573     0CE4  0020               	movlb	0	; select bank0
  4574     0CE5  00CF               	movwf	___fladd@b+3
  4575     0CE6  30CC               	movlw	204
  4576     0CE7  00CE               	movwf	___fladd@b+2
  4577     0CE8  30CC               	movlw	204
  4578     0CE9  00CD               	movwf	___fladd@b+1
  4579     0CEA  30CD               	movlw	205
  4580     0CEB  00CC               	movwf	___fladd@b
  4581     0CEC  303D               	movlw	61
  4582     0CED  00B5               	movwf	___flmul@b+3
  4583     0CEE  30CC               	movlw	204
  4584     0CEF  00B4               	movwf	___flmul@b+2
  4585     0CF0  30CC               	movlw	204
  4586     0CF1  00B3               	movwf	___flmul@b+1
  4587     0CF2  30CD               	movlw	205
  4588     0CF3  00B2               	movwf	___flmul@b
  4589     0CF4  318B  23B0  318C   	fcall	_rand
  4590     0CF7  301F               	movlw	31
  4591     0CF8  057C               	andwf	?_rand,w
  4592     0CF9  0021               	movlb	1	; select bank1
  4593     0CFA  00C1               	movwf	??_reinicia^(0+128)
  4594     0CFB  3000               	movlw	0
  4595     0CFC  057D               	andwf	?_rand+1,w
  4596     0CFD  00C2               	movwf	(??_reinicia+1)^(0+128)
  4597     0CFE  0841               	movf	??_reinicia^(0+128),w
  4598     0CFF  0020               	movlb	0	; select bank0
  4599     0D00  00A4               	movwf	___xxtofl@val
  4600     0D01  0021               	movlb	1	; select bank1
  4601     0D02  0842               	movf	(??_reinicia+1)^(0+128),w
  4602     0D03  0020               	movlb	0	; select bank0
  4603     0D04  00A5               	movwf	___xxtofl@val+1
  4604     0D05  0D89               	rlf	9,f
  4605     0D06  3B89               	subwfb	9,f
  4606     0D07  0989               	comf	9,f
  4607     0D08  00A6               	movwf	___xxtofl@val+2
  4608     0D09  00A7               	movwf	___xxtofl@val+3
  4609     0D0A  3001               	movlw	1
  4610     0D0B  3186  268D  318C   	fcall	___xxtofl
  4611     0D0E  0020               	movlb	0	; select bank0
  4612     0D0F  0827               	movf	?___xxtofl+3,w
  4613     0D10  00B9               	movwf	___flmul@a+3
  4614     0D11  0826               	movf	?___xxtofl+2,w
  4615     0D12  00B8               	movwf	___flmul@a+2
  4616     0D13  0825               	movf	?___xxtofl+1,w
  4617     0D14  00B7               	movwf	___flmul@a+1
  4618     0D15  0824               	movf	?___xxtofl,w
  4619     0D16  00B6               	movwf	___flmul@a
  4620     0D17  3180  203A  318C   	fcall	___flmul
  4621     0D1A  0020               	movlb	0	; select bank0
  4622     0D1B  0835               	movf	?___flmul+3,w
  4623     0D1C  00D3               	movwf	___fladd@a+3
  4624     0D1D  0834               	movf	?___flmul+2,w
  4625     0D1E  00D2               	movwf	___fladd@a+2
  4626     0D1F  0833               	movf	?___flmul+1,w
  4627     0D20  00D1               	movwf	___fladd@a+1
  4628     0D21  0832               	movf	?___flmul,w
  4629     0D22  00D0               	movwf	___fladd@a
  4630     0D23  3184  2485  318C   	fcall	___fladd
  4631     0D26  0020               	movlb	0	; select bank0
  4632     0D27  084F               	movf	?___fladd+3,w
  4633     0D28  0021               	movlb	1	; select bank1
  4634     0D29  00C6               	movwf	(reinicia@a+3)^(0+128)
  4635     0D2A  0020               	movlb	0	; select bank0
  4636     0D2B  084E               	movf	?___fladd+2,w
  4637     0D2C  0021               	movlb	1	; select bank1
  4638     0D2D  00C5               	movwf	(reinicia@a+2)^(0+128)
  4639     0D2E  0020               	movlb	0	; select bank0
  4640     0D2F  084D               	movf	?___fladd+1,w
  4641     0D30  0021               	movlb	1	; select bank1
  4642     0D31  00C4               	movwf	(reinicia@a+1)^(0+128)
  4643     0D32  0020               	movlb	0	; select bank0
  4644     0D33  084C               	movf	?___fladd,w
  4645     0D34  0021               	movlb	1	; select bank1
  4646     0D35  00C3               	movwf	reinicia@a^(0+128)
  4647                           
  4648                           ;main.c: 102:     incY = a;
  4649     0D36  0846               	movf	(reinicia@a+3)^(0+128),w
  4650     0D37  00BA               	movwf	(___fltol@f1+3)^(0+128)
  4651     0D38  0845               	movf	(reinicia@a+2)^(0+128),w
  4652     0D39  00B9               	movwf	(___fltol@f1+2)^(0+128)
  4653     0D3A  0844               	movf	(reinicia@a+1)^(0+128),w
  4654     0D3B  00B8               	movwf	(___fltol@f1+1)^(0+128)
  4655     0D3C  0843               	movf	reinicia@a^(0+128),w
  4656     0D3D  00B7               	movwf	___fltol@f1^(0+128)
  4657     0D3E  318D  2545  318C   	fcall	___fltol
  4658     0D41  0021               	movlb	1	; select bank1
  4659     0D42  0837               	movf	?___fltol^(0+128),w
  4660     0D43  00D7               	movwf	_incY^(0+128)
  4661     0D44                     i1l370:
  4662     0D44  0008               	return
  4663     0D45                     __end_of_reinicia:
  4664                           
  4665                           	psect	text23
  4666     0BB0                     __ptext23:	
  4667 ;; *************** function _rand *****************
  4668 ;; Defined at:
  4669 ;;		line 11 in file "C:\Program Files\Microchip\xc8\v2.46\pic\sources\c99\common\rand.c"
  4670 ;; Parameters:    Size  Location     Type
  4671 ;;		None
  4672 ;; Auto vars:     Size  Location     Type
  4673 ;;		None
  4674 ;; Return value:  Size  Location     Type
  4675 ;;                  2   12[COMMON] int 
  4676 ;; Registers used:
  4677 ;;		wreg, status,2, status,0, pclath, cstack
  4678 ;; Tracked objects:
  4679 ;;		On entry : 0/0
  4680 ;;		On exit  : 0/0
  4681 ;;		Unchanged: 0/0
  4682 ;; Data sizes:     COMMON   BANK0   BANK1   BANK2   BANK3   BANK4
  4683 ;;      Params:         2       0       0       0       0       0
  4684 ;;      Locals:         0       0       0       0       0       0
  4685 ;;      Temps:          0       4       0       0       0       0
  4686 ;;      Totals:         2       4       0       0       0       0
  4687 ;;Total ram usage:        6 bytes
  4688 ;; Hardware stack levels used: 1
  4689 ;; Hardware stack levels required when called: 1
  4690 ;; This function calls:
  4691 ;;		___lmul
  4692 ;; This function is called by:
  4693 ;;		_reinicia
  4694 ;; This function uses a non-reentrant model
  4695 ;;
  4696                           
  4697     0BB0                     _rand:	
  4698                           ;psect for function _rand
  4699                           
  4700     0BB0                     i1l2397:	
  4701                           ;incstack = 0
  4702                           ; Regs used in _rand: [wreg+status,2+status,0+pclath+cstack]
  4703                           
  4704     0BB0  0021               	movlb	1	; select bank1
  4705     0BB1  0863               	movf	(_seed+3)^(0+128),w
  4706     0BB2  00F3               	movwf	___lmul@multiplier+3
  4707     0BB3  0862               	movf	(_seed+2)^(0+128),w
  4708     0BB4  00F2               	movwf	___lmul@multiplier+2
  4709     0BB5  0861               	movf	(_seed+1)^(0+128),w
  4710     0BB6  00F1               	movwf	___lmul@multiplier+1
  4711     0BB7  0860               	movf	_seed^(0+128),w
  4712     0BB8  00F0               	movwf	___lmul@multiplier
  4713     0BB9  304C               	movlw	76
  4714     0BBA  00F7               	movwf	___lmul@multiplicand+3
  4715     0BBB  3095               	movlw	149
  4716     0BBC  00F6               	movwf	___lmul@multiplicand+2
  4717     0BBD  307F               	movlw	127
  4718     0BBE  00F5               	movwf	___lmul@multiplicand+1
  4719     0BBF  302D               	movlw	45
  4720     0BC0  00F4               	movwf	___lmul@multiplicand
  4721     0BC1  318B  2309  318B   	fcall	___lmul
  4722     0BC4  3001               	movlw	1
  4723     0BC5  0770               	addwf	?___lmul,w
  4724     0BC6  0021               	movlb	1	; select bank1
  4725     0BC7  00E0               	movwf	_seed^(0+128)
  4726     0BC8  3000               	movlw	0
  4727     0BC9  3D71               	addwfc	?___lmul+1,w
  4728     0BCA  00E1               	movwf	(_seed+1)^(0+128)
  4729     0BCB  3000               	movlw	0
  4730     0BCC  3D72               	addwfc	?___lmul+2,w
  4731     0BCD  00E2               	movwf	(_seed+2)^(0+128)
  4732     0BCE  3000               	movlw	0
  4733     0BCF  3D73               	addwfc	?___lmul+3,w
  4734     0BD0  00E3               	movwf	(_seed+3)^(0+128)
  4735     0BD1                     i1l2399:
  4736     0BD1  0860               	movf	_seed^(0+128),w
  4737     0BD2  0020               	movlb	0	; select bank0
  4738     0BD3  00A0               	movwf	??_rand
  4739     0BD4  0021               	movlb	1	; select bank1
  4740     0BD5  0861               	movf	(_seed+1)^(0+128),w
  4741     0BD6  0020               	movlb	0	; select bank0
  4742     0BD7  00A1               	movwf	??_rand+1
  4743     0BD8  0021               	movlb	1	; select bank1
  4744     0BD9  0862               	movf	(_seed+2)^(0+128),w
  4745     0BDA  0020               	movlb	0	; select bank0
  4746     0BDB  00A2               	movwf	??_rand+2
  4747     0BDC  0021               	movlb	1	; select bank1
  4748     0BDD  0863               	movf	(_seed+3)^(0+128),w
  4749     0BDE  0020               	movlb	0	; select bank0
  4750     0BDF  00A3               	movwf	??_rand+3
  4751     0BE0  3011               	movlw	17
  4752     0BE1                     u221_25:
  4753     0BE1  36A3               	lsrf	??_rand+3,f
  4754     0BE2  0CA2               	rrf	??_rand+2,f
  4755     0BE3  0CA1               	rrf	??_rand+1,f
  4756     0BE4  0CA0               	rrf	??_rand,f
  4757     0BE5                     u221_20:
  4758     0BE5  0B89               	decfsz	9,f
  4759     0BE6  2BE1               	goto	u221_25
  4760     0BE7  0821               	movf	??_rand+1,w
  4761     0BE8  00FD               	movwf	?_rand+1
  4762     0BE9  0820               	movf	??_rand,w
  4763     0BEA  00FC               	movwf	?_rand
  4764     0BEB                     i1l1031:
  4765     0BEB  0008               	return
  4766     0BEC                     __end_of_rand:
  4767                           
  4768                           	psect	text24
  4769     0B09                     __ptext24:	
  4770 ;; *************** function ___lmul *****************
  4771 ;; Defined at:
  4772 ;;		line 15 in file "C:\Program Files\Microchip\xc8\v2.46\pic\sources\c99\common\Umul32.c"
  4773 ;; Parameters:    Size  Location     Type
  4774 ;;  multiplier      4    0[COMMON] unsigned long 
  4775 ;;  multiplicand    4    4[COMMON] unsigned long 
  4776 ;; Auto vars:     Size  Location     Type
  4777 ;;  product         4    8[COMMON] unsigned long 
  4778 ;; Return value:  Size  Location     Type
  4779 ;;                  4    0[COMMON] unsigned long 
  4780 ;; Registers used:
  4781 ;;		wreg, status,2, status,0
  4782 ;; Tracked objects:
  4783 ;;		On entry : 0/0
  4784 ;;		On exit  : 0/0
  4785 ;;		Unchanged: 0/0
  4786 ;; Data sizes:     COMMON   BANK0   BANK1   BANK2   BANK3   BANK4
  4787 ;;      Params:         8       0       0       0       0       0
  4788 ;;      Locals:         4       0       0       0       0       0
  4789 ;;      Temps:          0       0       0       0       0       0
  4790 ;;      Totals:        12       0       0       0       0       0
  4791 ;;Total ram usage:       12 bytes
  4792 ;; Hardware stack levels used: 1
  4793 ;; This function calls:
  4794 ;;		Nothing
  4795 ;; This function is called by:
  4796 ;;		_rand
  4797 ;; This function uses a non-reentrant model
  4798 ;;
  4799                           
  4800     0B09                     ___lmul:	
  4801                           ;psect for function ___lmul
  4802                           
  4803     0B09                     i1l2249:	
  4804                           ;incstack = 0
  4805                           ; Regs used in ___lmul: [wreg+status,2+status,0]
  4806                           
  4807     0B09  3000               	movlw	0
  4808     0B0A  00FB               	movwf	___lmul@product+3
  4809     0B0B  3000               	movlw	0
  4810     0B0C  00FA               	movwf	___lmul@product+2
  4811     0B0D  3000               	movlw	0
  4812     0B0E  00F9               	movwf	___lmul@product+1
  4813     0B0F  3000               	movlw	0
  4814     0B10  00F8               	movwf	___lmul@product
  4815     0B11                     i1l2251:
  4816     0B11  1C70               	btfss	___lmul@multiplier,0
  4817     0B12  2B14               	goto	u195_21
  4818     0B13  2B15               	goto	u195_20
  4819     0B14                     u195_21:
  4820     0B14  2B1D               	goto	i1l2255
  4821     0B15                     u195_20:
  4822     0B15                     i1l2253:
  4823     0B15  0874               	movf	___lmul@multiplicand,w
  4824     0B16  07F8               	addwf	___lmul@product,f
  4825     0B17  0875               	movf	___lmul@multiplicand+1,w
  4826     0B18  3DF9               	addwfc	___lmul@product+1,f
  4827     0B19  0876               	movf	___lmul@multiplicand+2,w
  4828     0B1A  3DFA               	addwfc	___lmul@product+2,f
  4829     0B1B  0877               	movf	___lmul@multiplicand+3,w
  4830     0B1C  3DFB               	addwfc	___lmul@product+3,f
  4831     0B1D                     i1l2255:
  4832     0B1D  3001               	movlw	1
  4833     0B1E                     u196_25:
  4834     0B1E  35F4               	lslf	___lmul@multiplicand,f
  4835     0B1F  0DF5               	rlf	___lmul@multiplicand+1,f
  4836     0B20  0DF6               	rlf	___lmul@multiplicand+2,f
  4837     0B21  0DF7               	rlf	___lmul@multiplicand+3,f
  4838     0B22  0B89               	decfsz	9,f
  4839     0B23  2B1E               	goto	u196_25
  4840     0B24                     i1l2257:
  4841     0B24  3001               	movlw	1
  4842     0B25                     u197_25:
  4843     0B25  36F3               	lsrf	___lmul@multiplier+3,f
  4844     0B26  0CF2               	rrf	___lmul@multiplier+2,f
  4845     0B27  0CF1               	rrf	___lmul@multiplier+1,f
  4846     0B28  0CF0               	rrf	___lmul@multiplier,f
  4847     0B29  0B89               	decfsz	9,f
  4848     0B2A  2B25               	goto	u197_25
  4849     0B2B  0873               	movf	___lmul@multiplier+3,w
  4850     0B2C  0472               	iorwf	___lmul@multiplier+2,w
  4851     0B2D  0471               	iorwf	___lmul@multiplier+1,w
  4852     0B2E  0470               	iorwf	___lmul@multiplier,w
  4853     0B2F  1D03               	skipz
  4854     0B30  2B32               	goto	u198_21
  4855     0B31  2B33               	goto	u198_20
  4856     0B32                     u198_21:
  4857     0B32  2B11               	goto	i1l2251
  4858     0B33                     u198_20:
  4859     0B33                     i1l2259:
  4860     0B33  087B               	movf	___lmul@product+3,w
  4861     0B34  00F3               	movwf	?___lmul+3
  4862     0B35  087A               	movf	___lmul@product+2,w
  4863     0B36  00F2               	movwf	?___lmul+2
  4864     0B37  0879               	movf	___lmul@product+1,w
  4865     0B38  00F1               	movwf	?___lmul+1
  4866     0B39  0878               	movf	___lmul@product,w
  4867     0B3A  00F0               	movwf	?___lmul
  4868     0B3B                     i1l581:
  4869     0B3B  0008               	return
  4870     0B3C                     __end_of___lmul:
  4871                           
  4872                           	psect	text25
  4873     003A                     __ptext25:	
  4874 ;; *************** function ___flmul *****************
  4875 ;; Defined at:
  4876 ;;		line 8 in file "C:\Program Files\Microchip\xc8\v2.46\pic\sources\c99\common\sprcmul.c"
  4877 ;; Parameters:    Size  Location     Type
  4878 ;;  b               4   18[BANK0 ] unsigned long 
  4879 ;;  a               4   22[BANK0 ] unsigned long 
  4880 ;; Auto vars:     Size  Location     Type
  4881 ;;  prod            4   38[BANK0 ] struct .
  4882 ;;  grs             4   32[BANK0 ] unsigned long 
  4883 ;;  temp            2   42[BANK0 ] struct .
  4884 ;;  bexp            1   37[BANK0 ] unsigned char 
  4885 ;;  aexp            1   36[BANK0 ] unsigned char 
  4886 ;;  sign            1   31[BANK0 ] unsigned char 
  4887 ;; Return value:  Size  Location     Type
  4888 ;;                  4   18[BANK0 ] unsigned char 
  4889 ;; Registers used:
  4890 ;;		wreg, status,2, status,0, pclath, cstack
  4891 ;; Tracked objects:
  4892 ;;		On entry : 0/0
  4893 ;;		On exit  : 0/0
  4894 ;;		Unchanged: 0/0
  4895 ;; Data sizes:     COMMON   BANK0   BANK1   BANK2   BANK3   BANK4
  4896 ;;      Params:         0       8       0       0       0       0
  4897 ;;      Locals:         0      13       0       0       0       0
  4898 ;;      Temps:          0       5       0       0       0       0
  4899 ;;      Totals:         0      26       0       0       0       0
  4900 ;;Total ram usage:       26 bytes
  4901 ;; Hardware stack levels used: 1
  4902 ;; Hardware stack levels required when called: 1
  4903 ;; This function calls:
  4904 ;;		__Umul8_16
  4905 ;; This function is called by:
  4906 ;;		_reinicia
  4907 ;; This function uses a non-reentrant model
  4908 ;;
  4909                           
  4910     003A                     ___flmul:	
  4911                           ;psect for function ___flmul
  4912                           
  4913     003A                     i1l2439:	
  4914                           ;incstack = 0
  4915                           ; Regs used in ___flmul: [wreg+status,2+status,0+pclath+cstack]
  4916                           
  4917     003A  0020               	movlb	0	; select bank0
  4918     003B  0835               	movf	___flmul@b+3,w
  4919     003C  3980               	andlw	128
  4920     003D  00BF               	movwf	___flmul@sign
  4921     003E                     i1l2441:
  4922     003E  3535               	lslf	___flmul@b+3,w
  4923     003F  00C5               	movwf	___flmul@bexp
  4924     0040                     i1l2443:
  4925     0040  1FB4               	btfss	___flmul@b+2,7
  4926     0041  2843               	goto	u232_21
  4927     0042  2844               	goto	u232_20
  4928     0043                     u232_21:
  4929     0043  2845               	goto	i1l2447
  4930     0044                     u232_20:
  4931     0044                     i1l2445:
  4932     0044  1445               	bsf	___flmul@bexp,0
  4933     0045                     i1l2447:
  4934     0045  0845               	movf	___flmul@bexp,w
  4935     0046  1903               	btfsc	3,2
  4936     0047  2849               	goto	u233_21
  4937     0048  284A               	goto	u233_20
  4938     0049                     u233_21:
  4939     0049  2859               	goto	i1l2455
  4940     004A                     u233_20:
  4941     004A                     i1l2449:
  4942     004A  0A45               	incf	___flmul@bexp,w
  4943     004B  1D03               	btfss	3,2
  4944     004C  284E               	goto	u234_21
  4945     004D  284F               	goto	u234_20
  4946     004E                     u234_21:
  4947     004E  2857               	goto	i1l2453
  4948     004F                     u234_20:
  4949     004F                     i1l2451:
  4950     004F  3000               	movlw	0
  4951     0050  00B5               	movwf	___flmul@b+3
  4952     0051  3000               	movlw	0
  4953     0052  00B4               	movwf	___flmul@b+2
  4954     0053  3000               	movlw	0
  4955     0054  00B3               	movwf	___flmul@b+1
  4956     0055  3000               	movlw	0
  4957     0056  00B2               	movwf	___flmul@b
  4958     0057                     i1l2453:
  4959     0057  17B4               	bsf	___flmul@b+2,7
  4960     0058  2861               	goto	i1l2457
  4961     0059                     i1l2455:
  4962     0059  3000               	movlw	0
  4963     005A  00B5               	movwf	___flmul@b+3
  4964     005B  3000               	movlw	0
  4965     005C  00B4               	movwf	___flmul@b+2
  4966     005D  3000               	movlw	0
  4967     005E  00B3               	movwf	___flmul@b+1
  4968     005F  3000               	movlw	0
  4969     0060  00B2               	movwf	___flmul@b
  4970     0061                     i1l2457:
  4971     0061  0839               	movf	___flmul@a+3,w
  4972     0062  3980               	andlw	128
  4973     0063  00BA               	movwf	??___flmul
  4974     0064  083A               	movf	??___flmul,w
  4975     0065  06BF               	xorwf	___flmul@sign,f
  4976     0066                     i1l2459:
  4977     0066  3539               	lslf	___flmul@a+3,w
  4978     0067  00C4               	movwf	___flmul@aexp
  4979     0068                     i1l2461:
  4980     0068  1FB8               	btfss	___flmul@a+2,7
  4981     0069  286B               	goto	u235_21
  4982     006A  286C               	goto	u235_20
  4983     006B                     u235_21:
  4984     006B  286D               	goto	i1l2465
  4985     006C                     u235_20:
  4986     006C                     i1l2463:
  4987     006C  1444               	bsf	___flmul@aexp,0
  4988     006D                     i1l2465:
  4989     006D  0844               	movf	___flmul@aexp,w
  4990     006E  1903               	btfsc	3,2
  4991     006F  2871               	goto	u236_21
  4992     0070  2872               	goto	u236_20
  4993     0071                     u236_21:
  4994     0071  2881               	goto	i1l2473
  4995     0072                     u236_20:
  4996     0072                     i1l2467:
  4997     0072  0A44               	incf	___flmul@aexp,w
  4998     0073  1D03               	btfss	3,2
  4999     0074  2876               	goto	u237_21
  5000     0075  2877               	goto	u237_20
  5001     0076                     u237_21:
  5002     0076  287F               	goto	i1l2471
  5003     0077                     u237_20:
  5004     0077                     i1l2469:
  5005     0077  3000               	movlw	0
  5006     0078  00B9               	movwf	___flmul@a+3
  5007     0079  3000               	movlw	0
  5008     007A  00B8               	movwf	___flmul@a+2
  5009     007B  3000               	movlw	0
  5010     007C  00B7               	movwf	___flmul@a+1
  5011     007D  3000               	movlw	0
  5012     007E  00B6               	movwf	___flmul@a
  5013     007F                     i1l2471:
  5014     007F  17B8               	bsf	___flmul@a+2,7
  5015     0080  2889               	goto	i1l2475
  5016     0081                     i1l2473:
  5017     0081  3000               	movlw	0
  5018     0082  00B9               	movwf	___flmul@a+3
  5019     0083  3000               	movlw	0
  5020     0084  00B8               	movwf	___flmul@a+2
  5021     0085  3000               	movlw	0
  5022     0086  00B7               	movwf	___flmul@a+1
  5023     0087  3000               	movlw	0
  5024     0088  00B6               	movwf	___flmul@a
  5025     0089                     i1l2475:
  5026     0089  0844               	movf	___flmul@aexp,w
  5027     008A  1903               	btfsc	3,2
  5028     008B  288D               	goto	u238_21
  5029     008C  288E               	goto	u238_20
  5030     008D                     u238_21:
  5031     008D  2893               	goto	i1l2479
  5032     008E                     u238_20:
  5033     008E                     i1l2477:
  5034     008E  0845               	movf	___flmul@bexp,w
  5035     008F  1D03               	btfss	3,2
  5036     0090  2892               	goto	u239_21
  5037     0091  2893               	goto	u239_20
  5038     0092                     u239_21:
  5039     0092  289C               	goto	i1l2483
  5040     0093                     u239_20:
  5041     0093                     i1l2479:
  5042     0093  3000               	movlw	0
  5043     0094  00B5               	movwf	?___flmul+3
  5044     0095  3000               	movlw	0
  5045     0096  00B4               	movwf	?___flmul+2
  5046     0097  3000               	movlw	0
  5047     0098  00B3               	movwf	?___flmul+1
  5048     0099  3000               	movlw	0
  5049     009A  00B2               	movwf	?___flmul
  5050     009B  2A74               	goto	i1l964
  5051     009C                     i1l2483:
  5052     009C  0832               	movf	___flmul@b,w
  5053     009D  00F0               	movwf	__Umul8_16@multiplicand
  5054     009E  0838               	movf	___flmul@a+2,w
  5055     009F  318A  2247  3180   	fcall	__Umul8_16
  5056     00A2  0871               	movf	?__Umul8_16+1,w
  5057     00A3  0020               	movlb	0	; select bank0
  5058     00A4  00CB               	movwf	___flmul@temp+1
  5059     00A5  0870               	movf	?__Umul8_16,w
  5060     00A6  00CA               	movwf	___flmul@temp
  5061     00A7                     i1l2485:
  5062     00A7  084A               	movf	___flmul@temp,w
  5063     00A8  00BA               	movwf	??___flmul
  5064     00A9  01BB               	clrf	??___flmul+1
  5065     00AA  01BC               	clrf	??___flmul+2
  5066     00AB  01BD               	clrf	??___flmul+3
  5067     00AC  083D               	movf	??___flmul+3,w
  5068     00AD  00C3               	movwf	___flmul@grs+3
  5069     00AE  083C               	movf	??___flmul+2,w
  5070     00AF  00C2               	movwf	___flmul@grs+2
  5071     00B0  083B               	movf	??___flmul+1,w
  5072     00B1  00C1               	movwf	___flmul@grs+1
  5073     00B2  083A               	movf	??___flmul,w
  5074     00B3  00C0               	movwf	___flmul@grs
  5075     00B4                     i1l2487:
  5076     00B4  084B               	movf	___flmul@temp+1,w
  5077     00B5  00BA               	movwf	??___flmul
  5078     00B6  01BB               	clrf	??___flmul+1
  5079     00B7  01BC               	clrf	??___flmul+2
  5080     00B8  01BD               	clrf	??___flmul+3
  5081     00B9  083D               	movf	??___flmul+3,w
  5082     00BA  00C9               	movwf	___flmul@prod+3
  5083     00BB  083C               	movf	??___flmul+2,w
  5084     00BC  00C8               	movwf	___flmul@prod+2
  5085     00BD  083B               	movf	??___flmul+1,w
  5086     00BE  00C7               	movwf	___flmul@prod+1
  5087     00BF  083A               	movf	??___flmul,w
  5088     00C0  00C6               	movwf	___flmul@prod
  5089     00C1  0833               	movf	___flmul@b+1,w
  5090     00C2  00F0               	movwf	__Umul8_16@multiplicand
  5091     00C3  0837               	movf	___flmul@a+1,w
  5092     00C4  318A  2247  3180   	fcall	__Umul8_16
  5093     00C7  0871               	movf	?__Umul8_16+1,w
  5094     00C8  0020               	movlb	0	; select bank0
  5095     00C9  00CB               	movwf	___flmul@temp+1
  5096     00CA  0870               	movf	?__Umul8_16,w
  5097     00CB  00CA               	movwf	___flmul@temp
  5098     00CC                     i1l2489:
  5099     00CC  084A               	movf	___flmul@temp,w
  5100     00CD  00BA               	movwf	??___flmul
  5101     00CE  01BB               	clrf	??___flmul+1
  5102     00CF  01BC               	clrf	??___flmul+2
  5103     00D0  01BD               	clrf	??___flmul+3
  5104     00D1  083A               	movf	??___flmul,w
  5105     00D2  07C0               	addwf	___flmul@grs,f
  5106     00D3  083B               	movf	??___flmul+1,w
  5107     00D4  3DC1               	addwfc	___flmul@grs+1,f
  5108     00D5  083C               	movf	??___flmul+2,w
  5109     00D6  3DC2               	addwfc	___flmul@grs+2,f
  5110     00D7  083D               	movf	??___flmul+3,w
  5111     00D8  3DC3               	addwfc	___flmul@grs+3,f
  5112     00D9                     i1l2491:
  5113     00D9  084B               	movf	___flmul@temp+1,w
  5114     00DA  00BA               	movwf	??___flmul
  5115     00DB  01BB               	clrf	??___flmul+1
  5116     00DC  01BC               	clrf	??___flmul+2
  5117     00DD  01BD               	clrf	??___flmul+3
  5118     00DE  083A               	movf	??___flmul,w
  5119     00DF  07C6               	addwf	___flmul@prod,f
  5120     00E0  083B               	movf	??___flmul+1,w
  5121     00E1  3DC7               	addwfc	___flmul@prod+1,f
  5122     00E2  083C               	movf	??___flmul+2,w
  5123     00E3  3DC8               	addwfc	___flmul@prod+2,f
  5124     00E4  083D               	movf	??___flmul+3,w
  5125     00E5  3DC9               	addwfc	___flmul@prod+3,f
  5126     00E6  0834               	movf	___flmul@b+2,w
  5127     00E7  00F0               	movwf	__Umul8_16@multiplicand
  5128     00E8  0836               	movf	___flmul@a,w
  5129     00E9  318A  2247  3180   	fcall	__Umul8_16
  5130     00EC  0871               	movf	?__Umul8_16+1,w
  5131     00ED  0020               	movlb	0	; select bank0
  5132     00EE  00CB               	movwf	___flmul@temp+1
  5133     00EF  0870               	movf	?__Umul8_16,w
  5134     00F0  00CA               	movwf	___flmul@temp
  5135     00F1                     i1l2493:
  5136     00F1  084A               	movf	___flmul@temp,w
  5137     00F2  00BA               	movwf	??___flmul
  5138     00F3  01BB               	clrf	??___flmul+1
  5139     00F4  01BC               	clrf	??___flmul+2
  5140     00F5  01BD               	clrf	??___flmul+3
  5141     00F6  083A               	movf	??___flmul,w
  5142     00F7  07C0               	addwf	___flmul@grs,f
  5143     00F8  083B               	movf	??___flmul+1,w
  5144     00F9  3DC1               	addwfc	___flmul@grs+1,f
  5145     00FA  083C               	movf	??___flmul+2,w
  5146     00FB  3DC2               	addwfc	___flmul@grs+2,f
  5147     00FC  083D               	movf	??___flmul+3,w
  5148     00FD  3DC3               	addwfc	___flmul@grs+3,f
  5149     00FE                     i1l2495:
  5150     00FE  084B               	movf	___flmul@temp+1,w
  5151     00FF  00BA               	movwf	??___flmul
  5152     0100  01BB               	clrf	??___flmul+1
  5153     0101  01BC               	clrf	??___flmul+2
  5154     0102  01BD               	clrf	??___flmul+3
  5155     0103  083A               	movf	??___flmul,w
  5156     0104  07C6               	addwf	___flmul@prod,f
  5157     0105  083B               	movf	??___flmul+1,w
  5158     0106  3DC7               	addwfc	___flmul@prod+1,f
  5159     0107  083C               	movf	??___flmul+2,w
  5160     0108  3DC8               	addwfc	___flmul@prod+2,f
  5161     0109  083D               	movf	??___flmul+3,w
  5162     010A  3DC9               	addwfc	___flmul@prod+3,f
  5163     010B                     i1l2497:
  5164     010B  3008               	movlw	8
  5165     010C                     u240_25:
  5166     010C  35C0               	lslf	___flmul@grs,f
  5167     010D  0DC1               	rlf	___flmul@grs+1,f
  5168     010E  0DC2               	rlf	___flmul@grs+2,f
  5169     010F  0DC3               	rlf	___flmul@grs+3,f
  5170     0110  0B89               	decfsz	9,f
  5171     0111  290C               	goto	u240_25
  5172     0112                     i1l2499:
  5173     0112  0833               	movf	___flmul@b+1,w
  5174     0113  00F0               	movwf	__Umul8_16@multiplicand
  5175     0114  0836               	movf	___flmul@a,w
  5176     0115  318A  2247  3180   	fcall	__Umul8_16
  5177     0118  0871               	movf	?__Umul8_16+1,w
  5178     0119  0020               	movlb	0	; select bank0
  5179     011A  00CB               	movwf	___flmul@temp+1
  5180     011B  0870               	movf	?__Umul8_16,w
  5181     011C  00CA               	movwf	___flmul@temp
  5182     011D                     i1l2501:
  5183     011D  084A               	movf	___flmul@temp,w
  5184     011E  07C0               	addwf	___flmul@grs,f
  5185     011F  084B               	movf	___flmul@temp+1,w
  5186     0120  3DC1               	addwfc	___flmul@grs+1,f
  5187     0121  3000               	movlw	0
  5188     0122  3DC2               	addwfc	___flmul@grs+2,f
  5189     0123  3DC3               	addwfc	___flmul@grs+3,f
  5190     0124                     i1l2503:
  5191     0124  0832               	movf	___flmul@b,w
  5192     0125  00F0               	movwf	__Umul8_16@multiplicand
  5193     0126  0837               	movf	___flmul@a+1,w
  5194     0127  318A  2247  3180   	fcall	__Umul8_16
  5195     012A  0871               	movf	?__Umul8_16+1,w
  5196     012B  0020               	movlb	0	; select bank0
  5197     012C  00CB               	movwf	___flmul@temp+1
  5198     012D  0870               	movf	?__Umul8_16,w
  5199     012E  00CA               	movwf	___flmul@temp
  5200     012F                     i1l2505:
  5201     012F  084A               	movf	___flmul@temp,w
  5202     0130  07C0               	addwf	___flmul@grs,f
  5203     0131  084B               	movf	___flmul@temp+1,w
  5204     0132  3DC1               	addwfc	___flmul@grs+1,f
  5205     0133  3000               	movlw	0
  5206     0134  3DC2               	addwfc	___flmul@grs+2,f
  5207     0135  3DC3               	addwfc	___flmul@grs+3,f
  5208     0136                     i1l2507:
  5209     0136  3008               	movlw	8
  5210     0137                     u241_25:
  5211     0137  35C0               	lslf	___flmul@grs,f
  5212     0138  0DC1               	rlf	___flmul@grs+1,f
  5213     0139  0DC2               	rlf	___flmul@grs+2,f
  5214     013A  0DC3               	rlf	___flmul@grs+3,f
  5215     013B  0B89               	decfsz	9,f
  5216     013C  2937               	goto	u241_25
  5217     013D  0832               	movf	___flmul@b,w
  5218     013E  00F0               	movwf	__Umul8_16@multiplicand
  5219     013F  0836               	movf	___flmul@a,w
  5220     0140  318A  2247  3180   	fcall	__Umul8_16
  5221     0143  0871               	movf	?__Umul8_16+1,w
  5222     0144  0020               	movlb	0	; select bank0
  5223     0145  00CB               	movwf	___flmul@temp+1
  5224     0146  0870               	movf	?__Umul8_16,w
  5225     0147  00CA               	movwf	___flmul@temp
  5226     0148                     i1l2509:
  5227     0148  084A               	movf	___flmul@temp,w
  5228     0149  07C0               	addwf	___flmul@grs,f
  5229     014A  084B               	movf	___flmul@temp+1,w
  5230     014B  3DC1               	addwfc	___flmul@grs+1,f
  5231     014C  3000               	movlw	0
  5232     014D  3DC2               	addwfc	___flmul@grs+2,f
  5233     014E  3DC3               	addwfc	___flmul@grs+3,f
  5234     014F                     i1l2511:
  5235     014F  0833               	movf	___flmul@b+1,w
  5236     0150  00F0               	movwf	__Umul8_16@multiplicand
  5237     0151  0838               	movf	___flmul@a+2,w
  5238     0152  318A  2247  3180   	fcall	__Umul8_16
  5239     0155  0871               	movf	?__Umul8_16+1,w
  5240     0156  0020               	movlb	0	; select bank0
  5241     0157  00CB               	movwf	___flmul@temp+1
  5242     0158  0870               	movf	?__Umul8_16,w
  5243     0159  00CA               	movwf	___flmul@temp
  5244     015A  084A               	movf	___flmul@temp,w
  5245     015B  07C6               	addwf	___flmul@prod,f
  5246     015C  084B               	movf	___flmul@temp+1,w
  5247     015D  3DC7               	addwfc	___flmul@prod+1,f
  5248     015E  3000               	movlw	0
  5249     015F  3DC8               	addwfc	___flmul@prod+2,f
  5250     0160  3DC9               	addwfc	___flmul@prod+3,f
  5251     0161                     i1l2513:
  5252     0161  0834               	movf	___flmul@b+2,w
  5253     0162  00F0               	movwf	__Umul8_16@multiplicand
  5254     0163  0837               	movf	___flmul@a+1,w
  5255     0164  318A  2247  3180   	fcall	__Umul8_16
  5256     0167  0871               	movf	?__Umul8_16+1,w
  5257     0168  0020               	movlb	0	; select bank0
  5258     0169  00CB               	movwf	___flmul@temp+1
  5259     016A  0870               	movf	?__Umul8_16,w
  5260     016B  00CA               	movwf	___flmul@temp
  5261     016C                     i1l2515:
  5262     016C  084A               	movf	___flmul@temp,w
  5263     016D  07C6               	addwf	___flmul@prod,f
  5264     016E  084B               	movf	___flmul@temp+1,w
  5265     016F  3DC7               	addwfc	___flmul@prod+1,f
  5266     0170  3000               	movlw	0
  5267     0171  3DC8               	addwfc	___flmul@prod+2,f
  5268     0172  3DC9               	addwfc	___flmul@prod+3,f
  5269     0173  0834               	movf	___flmul@b+2,w
  5270     0174  00F0               	movwf	__Umul8_16@multiplicand
  5271     0175  0838               	movf	___flmul@a+2,w
  5272     0176  318A  2247  3180   	fcall	__Umul8_16
  5273     0179  0871               	movf	?__Umul8_16+1,w
  5274     017A  0020               	movlb	0	; select bank0
  5275     017B  00CB               	movwf	___flmul@temp+1
  5276     017C  0870               	movf	?__Umul8_16,w
  5277     017D  00CA               	movwf	___flmul@temp
  5278     017E                     i1l2517:
  5279     017E  084A               	movf	___flmul@temp,w
  5280     017F  00BA               	movwf	??___flmul
  5281     0180  084B               	movf	___flmul@temp+1,w
  5282     0181  00BB               	movwf	??___flmul+1
  5283     0182  01BC               	clrf	??___flmul+2
  5284     0183  01BD               	clrf	??___flmul+3
  5285     0184  3008               	movlw	8
  5286     0185                     u242_25:
  5287     0185  35BA               	lslf	??___flmul,f
  5288     0186  0DBB               	rlf	??___flmul+1,f
  5289     0187  0DBC               	rlf	??___flmul+2,f
  5290     0188  0DBD               	rlf	??___flmul+3,f
  5291     0189                     u242_20:
  5292     0189  0B89               	decfsz	9,f
  5293     018A  2985               	goto	u242_25
  5294     018B  083A               	movf	??___flmul,w
  5295     018C  07C6               	addwf	___flmul@prod,f
  5296     018D  083B               	movf	??___flmul+1,w
  5297     018E  3DC7               	addwfc	___flmul@prod+1,f
  5298     018F  083C               	movf	??___flmul+2,w
  5299     0190  3DC8               	addwfc	___flmul@prod+2,f
  5300     0191  083D               	movf	??___flmul+3,w
  5301     0192  3DC9               	addwfc	___flmul@prod+3,f
  5302     0193                     i1l2519:
  5303     0193  0840               	movf	___flmul@grs,w
  5304     0194  00BA               	movwf	??___flmul
  5305     0195  0841               	movf	___flmul@grs+1,w
  5306     0196  00BB               	movwf	??___flmul+1
  5307     0197  0842               	movf	___flmul@grs+2,w
  5308     0198  00BC               	movwf	??___flmul+2
  5309     0199  0843               	movf	___flmul@grs+3,w
  5310     019A  00BD               	movwf	??___flmul+3
  5311     019B  3018               	movlw	24
  5312     019C                     u243_25:
  5313     019C  36BD               	lsrf	??___flmul+3,f
  5314     019D  0CBC               	rrf	??___flmul+2,f
  5315     019E  0CBB               	rrf	??___flmul+1,f
  5316     019F  0CBA               	rrf	??___flmul,f
  5317     01A0                     u243_20:
  5318     01A0  0B89               	decfsz	9,f
  5319     01A1  299C               	goto	u243_25
  5320     01A2  083A               	movf	??___flmul,w
  5321     01A3  07C6               	addwf	___flmul@prod,f
  5322     01A4  083B               	movf	??___flmul+1,w
  5323     01A5  3DC7               	addwfc	___flmul@prod+1,f
  5324     01A6  083C               	movf	??___flmul+2,w
  5325     01A7  3DC8               	addwfc	___flmul@prod+2,f
  5326     01A8  083D               	movf	??___flmul+3,w
  5327     01A9  3DC9               	addwfc	___flmul@prod+3,f
  5328     01AA                     i1l2521:
  5329     01AA  3008               	movlw	8
  5330     01AB                     u244_25:
  5331     01AB  35C0               	lslf	___flmul@grs,f
  5332     01AC  0DC1               	rlf	___flmul@grs+1,f
  5333     01AD  0DC2               	rlf	___flmul@grs+2,f
  5334     01AE  0DC3               	rlf	___flmul@grs+3,f
  5335     01AF  0B89               	decfsz	9,f
  5336     01B0  29AB               	goto	u244_25
  5337     01B1                     i1l2523:
  5338     01B1  0845               	movf	___flmul@bexp,w
  5339     01B2  0744               	addwf	___flmul@aexp,w
  5340     01B3  00BA               	movwf	??___flmul
  5341     01B4  01BB               	clrf	??___flmul+1
  5342     01B5  0DBB               	rlf	??___flmul+1,f
  5343     01B6  083A               	movf	??___flmul,w
  5344     01B7  3E82               	addlw	130
  5345     01B8  00CA               	movwf	___flmul@temp
  5346     01B9  30FF               	movlw	255
  5347     01BA  3D3B               	addwfc	??___flmul+1,w
  5348     01BB  00CB               	movwf	___flmul@temp+1
  5349     01BC  29D4               	goto	i1l2535
  5350     01BD                     i1l2525:
  5351     01BD  3001               	movlw	1
  5352     01BE                     u245_25:
  5353     01BE  35C6               	lslf	___flmul@prod,f
  5354     01BF  0DC7               	rlf	___flmul@prod+1,f
  5355     01C0  0DC8               	rlf	___flmul@prod+2,f
  5356     01C1  0DC9               	rlf	___flmul@prod+3,f
  5357     01C2  0B89               	decfsz	9,f
  5358     01C3  29BE               	goto	u245_25
  5359     01C4                     i1l2527:
  5360     01C4  1FC3               	btfss	___flmul@grs+3,7
  5361     01C5  29C7               	goto	u246_21
  5362     01C6  29C8               	goto	u246_20
  5363     01C7                     u246_21:
  5364     01C7  29C9               	goto	i1l2531
  5365     01C8                     u246_20:
  5366     01C8                     i1l2529:
  5367     01C8  1446               	bsf	___flmul@prod,0
  5368     01C9                     i1l2531:
  5369     01C9  3001               	movlw	1
  5370     01CA                     u247_25:
  5371     01CA  35C0               	lslf	___flmul@grs,f
  5372     01CB  0DC1               	rlf	___flmul@grs+1,f
  5373     01CC  0DC2               	rlf	___flmul@grs+2,f
  5374     01CD  0DC3               	rlf	___flmul@grs+3,f
  5375     01CE  0B89               	decfsz	9,f
  5376     01CF  29CA               	goto	u247_25
  5377     01D0                     i1l2533:
  5378     01D0  30FF               	movlw	255
  5379     01D1  07CA               	addwf	___flmul@temp,f
  5380     01D2  30FF               	movlw	255
  5381     01D3  3DCB               	addwfc	___flmul@temp+1,f
  5382     01D4                     i1l2535:
  5383     01D4  1FC8               	btfss	___flmul@prod+2,7
  5384     01D5  29D7               	goto	u248_21
  5385     01D6  29D8               	goto	u248_20
  5386     01D7                     u248_21:
  5387     01D7  29BD               	goto	i1l2525
  5388     01D8                     u248_20:
  5389     01D8                     i1l2537:
  5390     01D8  01C4               	clrf	___flmul@aexp
  5391     01D9                     i1l2539:
  5392     01D9  1FC3               	btfss	___flmul@grs+3,7
  5393     01DA  29DC               	goto	u249_21
  5394     01DB  29DD               	goto	u249_20
  5395     01DC                     u249_21:
  5396     01DC  29F9               	goto	i1l2547
  5397     01DD                     u249_20:
  5398     01DD                     i1l2541:
  5399     01DD  30FF               	movlw	255
  5400     01DE  0540               	andwf	___flmul@grs,w
  5401     01DF  00BA               	movwf	??___flmul
  5402     01E0  30FF               	movlw	255
  5403     01E1  0541               	andwf	___flmul@grs+1,w
  5404     01E2  00BB               	movwf	??___flmul+1
  5405     01E3  30FF               	movlw	255
  5406     01E4  0542               	andwf	___flmul@grs+2,w
  5407     01E5  00BC               	movwf	??___flmul+2
  5408     01E6  307F               	movlw	127
  5409     01E7  0543               	andwf	___flmul@grs+3,w
  5410     01E8  00BD               	movwf	??___flmul+3
  5411     01E9  083D               	movf	??___flmul+3,w
  5412     01EA  043C               	iorwf	??___flmul+2,w
  5413     01EB  043B               	iorwf	??___flmul+1,w
  5414     01EC  043A               	iorwf	??___flmul,w
  5415     01ED  1903               	skipnz
  5416     01EE  29F0               	goto	u250_21
  5417     01EF  29F1               	goto	u250_20
  5418     01F0                     u250_21:
  5419     01F0  29F4               	goto	i1l970
  5420     01F1                     u250_20:
  5421     01F1                     i1l2543:
  5422     01F1  01C4               	clrf	___flmul@aexp
  5423     01F2  0AC4               	incf	___flmul@aexp,f
  5424     01F3  29F9               	goto	i1l2547
  5425     01F4                     i1l970:
  5426     01F4  1C46               	btfss	___flmul@prod,0
  5427     01F5  29F7               	goto	u251_21
  5428     01F6  29F8               	goto	u251_20
  5429     01F7                     u251_21:
  5430     01F7  29F9               	goto	i1l2547
  5431     01F8                     u251_20:
  5432     01F8  29F1               	goto	i1l2543
  5433     01F9                     i1l2547:
  5434     01F9  0844               	movf	___flmul@aexp,w
  5435     01FA  1903               	btfsc	3,2
  5436     01FB  29FD               	goto	u252_21
  5437     01FC  29FE               	goto	u252_20
  5438     01FD                     u252_21:
  5439     01FD  2A26               	goto	i1l2557
  5440     01FE                     u252_20:
  5441     01FE                     i1l2549:
  5442     01FE  3001               	movlw	1
  5443     01FF  07C6               	addwf	___flmul@prod,f
  5444     0200  3000               	movlw	0
  5445     0201  3DC7               	addwfc	___flmul@prod+1,f
  5446     0202  3000               	movlw	0
  5447     0203  3DC8               	addwfc	___flmul@prod+2,f
  5448     0204  3000               	movlw	0
  5449     0205  3DC9               	addwfc	___flmul@prod+3,f
  5450     0206                     i1l2551:
  5451     0206  1C49               	btfss	___flmul@prod+3,0
  5452     0207  2A09               	goto	u253_21
  5453     0208  2A0A               	goto	u253_20
  5454     0209                     u253_21:
  5455     0209  2A26               	goto	i1l2557
  5456     020A                     u253_20:
  5457     020A                     i1l2553:
  5458     020A  0846               	movf	___flmul@prod,w
  5459     020B  00BA               	movwf	??___flmul
  5460     020C  0847               	movf	___flmul@prod+1,w
  5461     020D  00BB               	movwf	??___flmul+1
  5462     020E  0848               	movf	___flmul@prod+2,w
  5463     020F  00BC               	movwf	??___flmul+2
  5464     0210  0849               	movf	___flmul@prod+3,w
  5465     0211  00BD               	movwf	??___flmul+3
  5466     0212  3001               	movlw	1
  5467     0213  00BE               	movwf	??___flmul+4
  5468     0214                     u254_25:
  5469     0214  37BD               	asrf	??___flmul+3,f
  5470     0215  0CBC               	rrf	??___flmul+2,f
  5471     0216  0CBB               	rrf	??___flmul+1,f
  5472     0217  0CBA               	rrf	??___flmul,f
  5473     0218                     u254_20:
  5474     0218  0BBE               	decfsz	??___flmul+4,f
  5475     0219  2A14               	goto	u254_25
  5476     021A  083D               	movf	??___flmul+3,w
  5477     021B  00C9               	movwf	___flmul@prod+3
  5478     021C  083C               	movf	??___flmul+2,w
  5479     021D  00C8               	movwf	___flmul@prod+2
  5480     021E  083B               	movf	??___flmul+1,w
  5481     021F  00C7               	movwf	___flmul@prod+1
  5482     0220  083A               	movf	??___flmul,w
  5483     0221  00C6               	movwf	___flmul@prod
  5484     0222                     i1l2555:
  5485     0222  3001               	movlw	1
  5486     0223  07CA               	addwf	___flmul@temp,f
  5487     0224  3000               	movlw	0
  5488     0225  3DCB               	addwfc	___flmul@temp+1,f
  5489     0226                     i1l2557:
  5490     0226  084B               	movf	___flmul@temp+1,w
  5491     0227  3A80               	xorlw	128
  5492     0228  00BA               	movwf	??___flmul
  5493     0229  3080               	movlw	128
  5494     022A  023A               	subwf	??___flmul,w
  5495     022B  1D03               	skipz
  5496     022C  2A2F               	goto	u255_25
  5497     022D  30FF               	movlw	255
  5498     022E  024A               	subwf	___flmul@temp,w
  5499     022F                     u255_25:
  5500     022F  1C03               	skipc
  5501     0230  2A32               	goto	u255_21
  5502     0231  2A33               	goto	u255_20
  5503     0232                     u255_21:
  5504     0232  2A3D               	goto	i1l2561
  5505     0233                     u255_20:
  5506     0233                     i1l2559:
  5507     0233  307F               	movlw	127
  5508     0234  0020               	movlb	0	; select bank0
  5509     0235  00C9               	movwf	___flmul@prod+3
  5510     0236  3080               	movlw	128
  5511     0237  00C8               	movwf	___flmul@prod+2
  5512     0238  3000               	movlw	0
  5513     0239  00C7               	movwf	___flmul@prod+1
  5514     023A  3000               	movlw	0
  5515     023B  00C6               	movwf	___flmul@prod
  5516     023C  2A68               	goto	i1l976
  5517     023D                     i1l2561:
  5518     023D  0020               	movlb	0	; select bank0
  5519     023E  084B               	movf	___flmul@temp+1,w
  5520     023F  3A80               	xorlw	128
  5521     0240  00BA               	movwf	??___flmul
  5522     0241  3080               	movlw	128
  5523     0242  023A               	subwf	??___flmul,w
  5524     0243  1D03               	skipz
  5525     0244  2A47               	goto	u256_25
  5526     0245  3001               	movlw	1
  5527     0246  024A               	subwf	___flmul@temp,w
  5528     0247                     u256_25:
  5529     0247  1803               	skipnc
  5530     0248  2A4A               	goto	u256_21
  5531     0249  2A4B               	goto	u256_20
  5532     024A                     u256_21:
  5533     024A  2A56               	goto	i1l2567
  5534     024B                     u256_20:
  5535     024B                     i1l2563:
  5536     024B  3000               	movlw	0
  5537     024C  0020               	movlb	0	; select bank0
  5538     024D  00C9               	movwf	___flmul@prod+3
  5539     024E  3000               	movlw	0
  5540     024F  00C8               	movwf	___flmul@prod+2
  5541     0250  3000               	movlw	0
  5542     0251  00C7               	movwf	___flmul@prod+1
  5543     0252  3000               	movlw	0
  5544     0253  00C6               	movwf	___flmul@prod
  5545     0254                     i1l2565:
  5546     0254  01BF               	clrf	___flmul@sign
  5547     0255  2A68               	goto	i1l976
  5548     0256                     i1l2567:
  5549     0256  0020               	movlb	0	; select bank0
  5550     0257  084A               	movf	___flmul@temp,w
  5551     0258  00C5               	movwf	___flmul@bexp
  5552     0259  30FF               	movlw	255
  5553     025A  05C6               	andwf	___flmul@prod,f
  5554     025B  30FF               	movlw	255
  5555     025C  05C7               	andwf	___flmul@prod+1,f
  5556     025D  307F               	movlw	127
  5557     025E  05C8               	andwf	___flmul@prod+2,f
  5558     025F  3000               	movlw	0
  5559     0260  05C9               	andwf	___flmul@prod+3,f
  5560     0261                     i1l2569:
  5561     0261  1C45               	btfss	___flmul@bexp,0
  5562     0262  2A64               	goto	u257_21
  5563     0263  2A65               	goto	u257_20
  5564     0264                     u257_21:
  5565     0264  2A66               	goto	i1l2573
  5566     0265                     u257_20:
  5567     0265                     i1l2571:
  5568     0265  17C8               	bsf	___flmul@prod+2,7
  5569     0266                     i1l2573:
  5570     0266  3645               	lsrf	___flmul@bexp,w
  5571     0267  00C9               	movwf	___flmul@prod+3
  5572     0268                     i1l976:
  5573     0268  083F               	movf	___flmul@sign,w
  5574     0269  00BA               	movwf	??___flmul
  5575     026A  083A               	movf	??___flmul,w
  5576     026B  04C9               	iorwf	___flmul@prod+3,f
  5577     026C                     i1l2575:
  5578     026C  0849               	movf	___flmul@prod+3,w
  5579     026D  00B5               	movwf	?___flmul+3
  5580     026E  0848               	movf	___flmul@prod+2,w
  5581     026F  00B4               	movwf	?___flmul+2
  5582     0270  0847               	movf	___flmul@prod+1,w
  5583     0271  00B3               	movwf	?___flmul+1
  5584     0272  0846               	movf	___flmul@prod,w
  5585     0273  00B2               	movwf	?___flmul
  5586     0274                     i1l964:
  5587     0274  0008               	return
  5588     0275                     __end_of___flmul:
  5589                           
  5590                           	psect	text26
  5591     0A47                     __ptext26:	
  5592 ;; *************** function __Umul8_16 *****************
  5593 ;; Defined at:
  5594 ;;		line 4 in file "C:\Program Files\Microchip\xc8\v2.46\pic\sources\c99\common\Umul8_16.c"
  5595 ;; Parameters:    Size  Location     Type
  5596 ;;  multiplier      1    wreg     unsigned char 
  5597 ;;  multiplicand    1    0[COMMON] unsigned char 
  5598 ;; Auto vars:     Size  Location     Type
  5599 ;;  multiplier      1    8[COMMON] unsigned char 
  5600 ;;  word_mpld       2    6[COMMON] unsigned short 
  5601 ;;  product         2    4[COMMON] unsigned short 
  5602 ;; Return value:  Size  Location     Type
  5603 ;;                  2    0[COMMON] unsigned int 
  5604 ;; Registers used:
  5605 ;;		wreg, status,2, status,0
  5606 ;; Tracked objects:
  5607 ;;		On entry : 0/0
  5608 ;;		On exit  : 0/0
  5609 ;;		Unchanged: 0/0
  5610 ;; Data sizes:     COMMON   BANK0   BANK1   BANK2   BANK3   BANK4
  5611 ;;      Params:         2       0       0       0       0       0
  5612 ;;      Locals:         5       0       0       0       0       0
  5613 ;;      Temps:          2       0       0       0       0       0
  5614 ;;      Totals:         9       0       0       0       0       0
  5615 ;;Total ram usage:        9 bytes
  5616 ;; Hardware stack levels used: 1
  5617 ;; This function calls:
  5618 ;;		Nothing
  5619 ;; This function is called by:
  5620 ;;		___flmul
  5621 ;; This function uses a non-reentrant model
  5622 ;;
  5623                           
  5624     0A47                     __Umul8_16:	
  5625                           ;psect for function __Umul8_16
  5626                           
  5627                           
  5628                           ;incstack = 0
  5629                           ; Regs used in __Umul8_16: [wreg+status,2+status,0]
  5630                           ;__Umul8_16@multiplier stored from wreg
  5631     0A47  00F8               	movwf	__Umul8_16@multiplier
  5632     0A48                     i1l2297:
  5633     0A48  01F4               	clrf	__Umul8_16@product
  5634     0A49  01F5               	clrf	__Umul8_16@product+1
  5635     0A4A                     i1l2299:
  5636     0A4A  0870               	movf	__Umul8_16@multiplicand,w
  5637     0A4B  00F2               	movwf	??__Umul8_16
  5638     0A4C  01F3               	clrf	??__Umul8_16+1
  5639     0A4D  0872               	movf	??__Umul8_16,w
  5640     0A4E  00F6               	movwf	__Umul8_16@word_mpld
  5641     0A4F  0873               	movf	??__Umul8_16+1,w
  5642     0A50  00F7               	movwf	__Umul8_16@word_mpld+1
  5643     0A51                     i1l2301:
  5644     0A51  1C78               	btfss	__Umul8_16@multiplier,0
  5645     0A52  2A54               	goto	u205_21
  5646     0A53  2A55               	goto	u205_20
  5647     0A54                     u205_21:
  5648     0A54  2A59               	goto	i1l983
  5649     0A55                     u205_20:
  5650     0A55                     i1l2303:
  5651     0A55  0876               	movf	__Umul8_16@word_mpld,w
  5652     0A56  07F4               	addwf	__Umul8_16@product,f
  5653     0A57  0877               	movf	__Umul8_16@word_mpld+1,w
  5654     0A58  3DF5               	addwfc	__Umul8_16@product+1,f
  5655     0A59                     i1l983:
  5656     0A59  3001               	movlw	1
  5657     0A5A                     u206_25:
  5658     0A5A  35F6               	lslf	__Umul8_16@word_mpld,f
  5659     0A5B  0DF7               	rlf	__Umul8_16@word_mpld+1,f
  5660     0A5C  0B89               	decfsz	9,f
  5661     0A5D  2A5A               	goto	u206_25
  5662     0A5E  1003               	clrc
  5663     0A5F  0CF8               	rrf	__Umul8_16@multiplier,f
  5664     0A60                     i1l2305:
  5665     0A60  0878               	movf	__Umul8_16@multiplier,w
  5666     0A61  1D03               	btfss	3,2
  5667     0A62  2A64               	goto	u207_21
  5668     0A63  2A65               	goto	u207_20
  5669     0A64                     u207_21:
  5670     0A64  2A51               	goto	i1l2301
  5671     0A65                     u207_20:
  5672     0A65                     i1l2307:
  5673     0A65  0875               	movf	__Umul8_16@product+1,w
  5674     0A66  00F1               	movwf	?__Umul8_16+1
  5675     0A67  0874               	movf	__Umul8_16@product,w
  5676     0A68  00F0               	movwf	?__Umul8_16
  5677     0A69                     i1l985:
  5678     0A69  0008               	return
  5679     0A6A                     __end_of__Umul8_16:
  5680                           
  5681                           	psect	text27
  5682     0DB6                     __ptext27:	
  5683 ;; *************** function _AtualizaXY *****************
  5684 ;; Defined at:
  5685 ;;		line 69 in file "main.c"
  5686 ;; Parameters:    Size  Location     Type
  5687 ;;		None
  5688 ;; Auto vars:     Size  Location     Type
  5689 ;;		None
  5690 ;; Return value:  Size  Location     Type
  5691 ;;                  1    wreg      void 
  5692 ;; Registers used:
  5693 ;;		wreg, fsr0l, fsr0h, fsr1l, fsr1h, status,2, status,0, pclath, cstack
  5694 ;; Tracked objects:
  5695 ;;		On entry : 0/0
  5696 ;;		On exit  : 0/0
  5697 ;;		Unchanged: 0/0
  5698 ;; Data sizes:     COMMON   BANK0   BANK1   BANK2   BANK3   BANK4
  5699 ;;      Params:         0       0       0       0       0       0
  5700 ;;      Locals:         0       0       0       0       0       0
  5701 ;;      Temps:          0       0       1       0       0       0
  5702 ;;      Totals:         0       0       1       0       0       0
  5703 ;;Total ram usage:        1 bytes
  5704 ;; Hardware stack levels used: 1
  5705 ;; Hardware stack levels required when called: 3
  5706 ;; This function calls:
  5707 ;;		___fltol
  5708 ;;		___xxtofl
  5709 ;;		_matrixPosicao
  5710 ;;		_roundf
  5711 ;; This function is called by:
  5712 ;;		_verificaT
  5713 ;; This function uses a non-reentrant model
  5714 ;;
  5715                           
  5716     0DB6                     _AtualizaXY:	
  5717                           ;psect for function _AtualizaXY
  5718                           
  5719     0DB6                     i1l3041:	
  5720                           ;incstack = 0
  5721                           ; Regs used in _AtualizaXY: [wreg-fsr1h+status,2+status,0+pclath+cstack]
  5722                           
  5723                           
  5724                           ;main.c: 72:     if(posicaoX == 0 || posicaoX == 15){
  5725     0DB6  0021               	movlb	1	; select bank1
  5726     0DB7  085F               	movf	_posicaoX^(0+128),w
  5727     0DB8  1903               	btfsc	3,2
  5728     0DB9  2DBB               	goto	u301_21
  5729     0DBA  2DBC               	goto	u301_20
  5730     0DBB                     u301_21:
  5731     0DBB  2DC2               	goto	i1l3045
  5732     0DBC                     u301_20:
  5733     0DBC                     i1l3043:
  5734     0DBC  300F               	movlw	15
  5735     0DBD  065F               	xorwf	_posicaoX^(0+128),w
  5736     0DBE  1D03               	btfss	3,2
  5737     0DBF  2DC1               	goto	u302_21
  5738     0DC0  2DC2               	goto	u302_20
  5739     0DC1                     u302_21:
  5740     0DC1  2DC4               	goto	i1l3047
  5741     0DC2                     u302_20:
  5742     0DC2                     i1l3045:
  5743                           
  5744                           ;main.c: 73:         incX = -incX;
  5745     0DC2  09E7               	comf	_incX^(0+128),f
  5746     0DC3  0AE7               	incf	_incX^(0+128),f
  5747     0DC4                     i1l3047:
  5748                           
  5749                           ;main.c: 76:     posicaoX = posicaoX + incX;
  5750     0DC4  085F               	movf	_posicaoX^(0+128),w
  5751     0DC5  0767               	addwf	_incX^(0+128),w
  5752     0DC6  00DF               	movwf	_posicaoX^(0+128)
  5753                           
  5754                           ;main.c: 79:     static guarda_posicaoY;;main.c: 80:     guarda_posicaoY = guarda_posica
      +                          oY + incY;
  5755     0DC7  0857               	movf	_incY^(0+128),w
  5756     0DC8  074F               	addwf	AtualizaXY@guarda_posicaoY^(0+128),w
  5757     0DC9  00CF               	movwf	AtualizaXY@guarda_posicaoY^(0+128)
  5758     0DCA  0850               	movf	(AtualizaXY@guarda_posicaoY+1)^(0+128),w
  5759     0DCB  1803               	skipnc
  5760     0DCC  0A50               	incf	(AtualizaXY@guarda_posicaoY+1)^(0+128),w
  5761     0DCD  00D0               	movwf	(AtualizaXY@guarda_posicaoY^(0+128)+1)
  5762                           
  5763                           ;main.c: 83:     if(guarda_posicaoY <= 0){
  5764     0DCE  0850               	movf	(AtualizaXY@guarda_posicaoY+1)^(0+128),w
  5765     0DCF  3A80               	xorlw	128
  5766     0DD0  00C1               	movwf	??_AtualizaXY^(0+128)
  5767     0DD1  3080               	movlw	128
  5768     0DD2  0241               	subwf	??_AtualizaXY^(0+128),w
  5769     0DD3  1D03               	skipz
  5770     0DD4  2DD7               	goto	u303_25
  5771     0DD5  3001               	movlw	1
  5772     0DD6  024F               	subwf	AtualizaXY@guarda_posicaoY^(0+128),w
  5773     0DD7                     u303_25:
  5774     0DD7  1803               	skipnc
  5775     0DD8  2DDA               	goto	u303_21
  5776     0DD9  2DDB               	goto	u303_20
  5777     0DDA                     u303_21:
  5778     0DDA  2DE0               	goto	i1l3053
  5779     0DDB                     u303_20:
  5780     0DDB                     i1l3049:
  5781                           
  5782                           ;main.c: 84:         incY = -incY;
  5783     0DDB  0021               	movlb	1	; select bank1
  5784     0DDC  09D7               	comf	_incY^(0+128),f
  5785     0DDD  0AD7               	incf	_incY^(0+128),f
  5786     0DDE                     i1l3051:
  5787                           
  5788                           ;main.c: 85:         guarda_posicaoY = 0;
  5789     0DDE  01CF               	clrf	AtualizaXY@guarda_posicaoY^(0+128)
  5790     0DDF  01D0               	clrf	(AtualizaXY@guarda_posicaoY+1)^(0+128)
  5791     0DE0                     i1l3053:
  5792                           
  5793                           ;main.c: 87:     if(guarda_posicaoY >= 7){
  5794     0DE0  0021               	movlb	1	; select bank1
  5795     0DE1  0850               	movf	(AtualizaXY@guarda_posicaoY+1)^(0+128),w
  5796     0DE2  3A80               	xorlw	128
  5797     0DE3  00C1               	movwf	??_AtualizaXY^(0+128)
  5798     0DE4  3080               	movlw	128
  5799     0DE5  0241               	subwf	??_AtualizaXY^(0+128),w
  5800     0DE6  1D03               	skipz
  5801     0DE7  2DEA               	goto	u304_25
  5802     0DE8  3007               	movlw	7
  5803     0DE9  024F               	subwf	AtualizaXY@guarda_posicaoY^(0+128),w
  5804     0DEA                     u304_25:
  5805     0DEA  1C03               	skipc
  5806     0DEB  2DED               	goto	u304_21
  5807     0DEC  2DEE               	goto	u304_20
  5808     0DED                     u304_21:
  5809     0DED  2DF5               	goto	i1l3059
  5810     0DEE                     u304_20:
  5811     0DEE                     i1l3055:
  5812                           
  5813                           ;main.c: 88:         incY = -incY;
  5814     0DEE  0021               	movlb	1	; select bank1
  5815     0DEF  09D7               	comf	_incY^(0+128),f
  5816     0DF0  0AD7               	incf	_incY^(0+128),f
  5817     0DF1                     i1l3057:
  5818                           
  5819                           ;main.c: 89:         guarda_posicaoY = 7;
  5820     0DF1  3007               	movlw	7
  5821     0DF2  00CF               	movwf	AtualizaXY@guarda_posicaoY^(0+128)
  5822     0DF3  3000               	movlw	0
  5823     0DF4  00D0               	movwf	(AtualizaXY@guarda_posicaoY^(0+128)+1)
  5824     0DF5                     i1l3059:
  5825                           
  5826                           ;main.c: 91:     posicaoY = (uint8_t)(roundf(guarda_posicaoY));
  5827     0DF5  0021               	movlb	1	; select bank1
  5828     0DF6  084F               	movf	AtualizaXY@guarda_posicaoY^(0+128),w
  5829     0DF7  0020               	movlb	0	; select bank0
  5830     0DF8  00A4               	movwf	___xxtofl@val
  5831     0DF9  0021               	movlb	1	; select bank1
  5832     0DFA  0850               	movf	(AtualizaXY@guarda_posicaoY+1)^(0+128),w
  5833     0DFB  0020               	movlb	0	; select bank0
  5834     0DFC  00A5               	movwf	___xxtofl@val+1
  5835     0DFD  0D89               	rlf	9,f
  5836     0DFE  3B89               	subwfb	9,f
  5837     0DFF  0989               	comf	9,f
  5838     0E00  00A6               	movwf	___xxtofl@val+2
  5839     0E01  00A7               	movwf	___xxtofl@val+3
  5840     0E02  3001               	movlw	1
  5841     0E03  3186  268D  318D   	fcall	___xxtofl
  5842     0E06  0020               	movlb	0	; select bank0
  5843     0E07  0827               	movf	?___xxtofl+3,w
  5844     0E08  00EB               	movwf	roundf@x+3
  5845     0E09  0826               	movf	?___xxtofl+2,w
  5846     0E0A  00EA               	movwf	roundf@x+2
  5847     0E0B  0825               	movf	?___xxtofl+1,w
  5848     0E0C  00E9               	movwf	roundf@x+1
  5849     0E0D  0824               	movf	?___xxtofl,w
  5850     0E0E  00E8               	movwf	roundf@x
  5851     0E0F  318E  262F  318D   	fcall	_roundf
  5852     0E12  0020               	movlb	0	; select bank0
  5853     0E13  086B               	movf	?_roundf+3,w
  5854     0E14  0021               	movlb	1	; select bank1
  5855     0E15  00BA               	movwf	(___fltol@f1+3)^(0+128)
  5856     0E16  0020               	movlb	0	; select bank0
  5857     0E17  086A               	movf	?_roundf+2,w
  5858     0E18  0021               	movlb	1	; select bank1
  5859     0E19  00B9               	movwf	(___fltol@f1+2)^(0+128)
  5860     0E1A  0020               	movlb	0	; select bank0
  5861     0E1B  0869               	movf	?_roundf+1,w
  5862     0E1C  0021               	movlb	1	; select bank1
  5863     0E1D  00B8               	movwf	(___fltol@f1+1)^(0+128)
  5864     0E1E  0020               	movlb	0	; select bank0
  5865     0E1F  0868               	movf	?_roundf,w
  5866     0E20  0021               	movlb	1	; select bank1
  5867     0E21  00B7               	movwf	___fltol@f1^(0+128)
  5868     0E22  318D  2545  318D   	fcall	___fltol
  5869     0E25  0021               	movlb	1	; select bank1
  5870     0E26  0837               	movf	?___fltol^(0+128),w
  5871     0E27  00DE               	movwf	_posicaoY^(0+128)
  5872     0E28                     i1l3061:
  5873                           
  5874                           ;main.c: 94:     matrixPosicao(posicaoX,posicaoY);
  5875     0E28  085E               	movf	_posicaoY^(0+128),w
  5876     0E29  00FD               	movwf	matrixPosicao@posicaoY
  5877     0E2A  085F               	movf	_posicaoX^(0+128),w
  5878     0E2B  3187  27C2  318D   	fcall	_matrixPosicao
  5879     0E2E                     i1l367:
  5880     0E2E  0008               	return
  5881     0E2F                     __end_of_AtualizaXY:
  5882                           
  5883                           	psect	text28
  5884     0E2F                     __ptext28:	
  5885 ;; *************** function _roundf *****************
  5886 ;; Defined at:
  5887 ;;		line 13 in file "C:\Program Files\Microchip\xc8\v2.46\pic\sources\c99\common\roundf.c"
  5888 ;; Parameters:    Size  Location     Type
  5889 ;;  x               4   72[BANK0 ] float 
  5890 ;; Auto vars:     Size  Location     Type
  5891 ;;  y               4   19[BANK1 ] float 
  5892 ;;  u               4   10[BANK1 ] struct .
  5893 ;;  z               4    4[BANK1 ] float 
  5894 ;;  e               2    8[BANK1 ] int 
  5895 ;;  sign            1   18[BANK1 ] _Bool 
  5896 ;; Return value:  Size  Location     Type
  5897 ;;                  4   72[BANK0 ] float 
  5898 ;; Registers used:
  5899 ;;		wreg, status,2, status,0, pclath, cstack
  5900 ;; Tracked objects:
  5901 ;;		On entry : 0/0
  5902 ;;		On exit  : 0/0
  5903 ;;		Unchanged: 0/0
  5904 ;; Data sizes:     COMMON   BANK0   BANK1   BANK2   BANK3   BANK4
  5905 ;;      Params:         0       4       0       0       0       0
  5906 ;;      Locals:         0       0      23       0       0       0
  5907 ;;      Temps:          0       4       0       0       0       0
  5908 ;;      Totals:         0       8      23       0       0       0
  5909 ;;Total ram usage:       31 bytes
  5910 ;; Hardware stack levels used: 1
  5911 ;; Hardware stack levels required when called: 2
  5912 ;; This function calls:
  5913 ;;		___fladd
  5914 ;;		___flge
  5915 ;;		___flneg
  5916 ;;		___flsub
  5917 ;; This function is called by:
  5918 ;;		_AtualizaXY
  5919 ;; This function uses a non-reentrant model
  5920 ;;
  5921                           
  5922     0E2F                     _roundf:	
  5923                           ;psect for function _roundf
  5924                           
  5925     0E2F                     i1l2331:	
  5926                           ;incstack = 0
  5927                           ; Regs used in _roundf: [wreg+status,2+status,0+pclath+cstack]
  5928                           
  5929     0E2F  0021               	movlb	1	; select bank1
  5930     0E30  084C               	movf	(roundf@F522+3)^(0+128),w
  5931     0E31  00AD               	movwf	(roundf@u+3)^(0+128)
  5932     0E32  084B               	movf	(roundf@F522+2)^(0+128),w
  5933     0E33  00AC               	movwf	(roundf@u+2)^(0+128)
  5934     0E34  084A               	movf	(roundf@F522+1)^(0+128),w
  5935     0E35  00AB               	movwf	(roundf@u+1)^(0+128)
  5936     0E36  0849               	movf	roundf@F522^(0+128),w
  5937     0E37  00AA               	movwf	roundf@u^(0+128)
  5938     0E38  0020               	movlb	0	; select bank0
  5939     0E39  086B               	movf	roundf@x+3,w
  5940     0E3A  0021               	movlb	1	; select bank1
  5941     0E3B  00AD               	movwf	(roundf@u+3)^(0+128)
  5942     0E3C  0020               	movlb	0	; select bank0
  5943     0E3D  086A               	movf	roundf@x+2,w
  5944     0E3E  0021               	movlb	1	; select bank1
  5945     0E3F  00AC               	movwf	(roundf@u+2)^(0+128)
  5946     0E40  0020               	movlb	0	; select bank0
  5947     0E41  0869               	movf	roundf@x+1,w
  5948     0E42  0021               	movlb	1	; select bank1
  5949     0E43  00AB               	movwf	(roundf@u+1)^(0+128)
  5950     0E44  0020               	movlb	0	; select bank0
  5951     0E45  0868               	movf	roundf@x,w
  5952     0E46  0021               	movlb	1	; select bank1
  5953     0E47  00AA               	movwf	roundf@u^(0+128)
  5954     0E48                     i1l2333:
  5955     0E48  082A               	movf	roundf@u^(0+128),w
  5956     0E49  0020               	movlb	0	; select bank0
  5957     0E4A  00EC               	movwf	??_roundf
  5958     0E4B  0021               	movlb	1	; select bank1
  5959     0E4C  082B               	movf	(roundf@u+1)^(0+128),w
  5960     0E4D  0020               	movlb	0	; select bank0
  5961     0E4E  00ED               	movwf	??_roundf+1
  5962     0E4F  0021               	movlb	1	; select bank1
  5963     0E50  082C               	movf	(roundf@u+2)^(0+128),w
  5964     0E51  0020               	movlb	0	; select bank0
  5965     0E52  00EE               	movwf	??_roundf+2
  5966     0E53  0021               	movlb	1	; select bank1
  5967     0E54  082D               	movf	(roundf@u+3)^(0+128),w
  5968     0E55  0020               	movlb	0	; select bank0
  5969     0E56  00EF               	movwf	??_roundf+3
  5970     0E57  3017               	movlw	23
  5971     0E58                     u208_25:
  5972     0E58  36EF               	lsrf	??_roundf+3,f
  5973     0E59  0CEE               	rrf	??_roundf+2,f
  5974     0E5A  0CED               	rrf	??_roundf+1,f
  5975     0E5B  0CEC               	rrf	??_roundf,f
  5976     0E5C                     u208_20:
  5977     0E5C  0B89               	decfsz	9,f
  5978     0E5D  2E58               	goto	u208_25
  5979     0E5E  30FF               	movlw	255
  5980     0E5F  056C               	andwf	??_roundf,w
  5981     0E60  0021               	movlb	1	; select bank1
  5982     0E61  00A8               	movwf	roundf@e^(0+128)
  5983     0E62  3000               	movlw	0
  5984     0E63  0020               	movlb	0	; select bank0
  5985     0E64  056D               	andwf	??_roundf+1,w
  5986     0E65  0021               	movlb	1	; select bank1
  5987     0E66  00A9               	movwf	(roundf@e+1)^(0+128)
  5988     0E67                     i1l2335:
  5989     0E67  0829               	movf	(roundf@e+1)^(0+128),w
  5990     0E68  3A80               	xorlw	128
  5991     0E69  0020               	movlb	0	; select bank0
  5992     0E6A  00EC               	movwf	??_roundf
  5993     0E6B  3080               	movlw	128
  5994     0E6C  026C               	subwf	??_roundf,w
  5995     0E6D  1D03               	skipz
  5996     0E6E  2E72               	goto	u209_25
  5997     0E6F  3096               	movlw	150
  5998     0E70  0021               	movlb	1	; select bank1
  5999     0E71  0228               	subwf	roundf@e^(0+128),w
  6000     0E72                     u209_25:
  6001     0E72  1C03               	skipc
  6002     0E73  2E75               	goto	u209_21
  6003     0E74  2E76               	goto	u209_20
  6004     0E75                     u209_21:
  6005     0E75  2E77               	goto	i1l2339
  6006     0E76                     u209_20:
  6007     0E76                     i1l2337:
  6008     0E76  2FFF               	goto	i1l1039
  6009     0E77                     i1l2339:
  6010     0E77  0021               	movlb	1	; select bank1
  6011     0E78  1BAD               	btfsc	(roundf@u+3)^(0+128),7
  6012     0E79  2E7B               	goto	u210_21
  6013     0E7A  2E7D               	goto	u210_20
  6014     0E7B                     u210_21:
  6015     0E7B  3001               	movlw	1
  6016     0E7C  2E7E               	goto	u211_20
  6017     0E7D                     u210_20:
  6018     0E7D  3000               	movlw	0
  6019     0E7E                     u211_20:
  6020     0E7E  00B2               	movwf	roundf@sign^(0+128)
  6021     0E7F                     i1l2341:
  6022     0E7F  0832               	movf	roundf@sign^(0+128),w
  6023     0E80  1903               	btfsc	3,2
  6024     0E81  2E83               	goto	u212_21
  6025     0E82  2E84               	goto	u212_20
  6026     0E83                     u212_21:
  6027     0E83  2E99               	goto	i1l2345
  6028     0E84                     u212_20:
  6029     0E84                     i1l2343:
  6030     0E84  0020               	movlb	0	; select bank0
  6031     0E85  086B               	movf	roundf@x+3,w
  6032     0E86  00F3               	movwf	___flneg@f1+3
  6033     0E87  086A               	movf	roundf@x+2,w
  6034     0E88  00F2               	movwf	___flneg@f1+2
  6035     0E89  0869               	movf	roundf@x+1,w
  6036     0E8A  00F1               	movwf	___flneg@f1+1
  6037     0E8B  0868               	movf	roundf@x,w
  6038     0E8C  00F0               	movwf	___flneg@f1
  6039     0E8D  3189  2192  318E   	fcall	___flneg
  6040     0E90  0873               	movf	?___flneg+3,w
  6041     0E91  0020               	movlb	0	; select bank0
  6042     0E92  00EB               	movwf	roundf@x+3
  6043     0E93  0872               	movf	?___flneg+2,w
  6044     0E94  00EA               	movwf	roundf@x+2
  6045     0E95  0871               	movf	?___flneg+1,w
  6046     0E96  00E9               	movwf	roundf@x+1
  6047     0E97  0870               	movf	?___flneg,w
  6048     0E98  00E8               	movwf	roundf@x
  6049     0E99                     i1l2345:
  6050     0E99  0021               	movlb	1	; select bank1
  6051     0E9A  0829               	movf	(roundf@e+1)^(0+128),w
  6052     0E9B  3A80               	xorlw	128
  6053     0E9C  0020               	movlb	0	; select bank0
  6054     0E9D  00EC               	movwf	??_roundf
  6055     0E9E  3080               	movlw	128
  6056     0E9F  026C               	subwf	??_roundf,w
  6057     0EA0  1D03               	skipz
  6058     0EA1  2EA5               	goto	u213_25
  6059     0EA2  307E               	movlw	126
  6060     0EA3  0021               	movlb	1	; select bank1
  6061     0EA4  0228               	subwf	roundf@e^(0+128),w
  6062     0EA5                     u213_25:
  6063     0EA5  1803               	skipnc
  6064     0EA6  2EA8               	goto	u213_21
  6065     0EA7  2EA9               	goto	u213_20
  6066     0EA8                     u213_21:
  6067     0EA8  2EB3               	goto	i1l2351
  6068     0EA9                     u213_20:
  6069     0EA9                     i1l2347:
  6070     0EA9  3000               	movlw	0
  6071     0EAA  0020               	movlb	0	; select bank0
  6072     0EAB  00EB               	movwf	?_roundf+3
  6073     0EAC  3000               	movlw	0
  6074     0EAD  00EA               	movwf	?_roundf+2
  6075     0EAE  3000               	movlw	0
  6076     0EAF  00E9               	movwf	?_roundf+1
  6077     0EB0  3000               	movlw	0
  6078     0EB1  00E8               	movwf	?_roundf
  6079     0EB2  2FFF               	goto	i1l1039
  6080     0EB3                     i1l2351:
  6081     0EB3  304B               	movlw	75
  6082     0EB4  0020               	movlb	0	; select bank0
  6083     0EB5  00CF               	movwf	___fladd@b+3
  6084     0EB6  3000               	movlw	0
  6085     0EB7  00CE               	movwf	___fladd@b+2
  6086     0EB8  3000               	movlw	0
  6087     0EB9  00CD               	movwf	___fladd@b+1
  6088     0EBA  3000               	movlw	0
  6089     0EBB  00CC               	movwf	___fladd@b
  6090     0EBC  086B               	movf	roundf@x+3,w
  6091     0EBD  00D3               	movwf	___fladd@a+3
  6092     0EBE  086A               	movf	roundf@x+2,w
  6093     0EBF  00D2               	movwf	___fladd@a+2
  6094     0EC0  0869               	movf	roundf@x+1,w
  6095     0EC1  00D1               	movwf	___fladd@a+1
  6096     0EC2  0868               	movf	roundf@x,w
  6097     0EC3  00D0               	movwf	___fladd@a
  6098     0EC4  3184  2485  318E   	fcall	___fladd
  6099     0EC7  0020               	movlb	0	; select bank0
  6100     0EC8  084F               	movf	?___fladd+3,w
  6101     0EC9  0021               	movlb	1	; select bank1
  6102     0ECA  00B1               	movwf	(_roundf$1486+3)^(0+128)
  6103     0ECB  0020               	movlb	0	; select bank0
  6104     0ECC  084E               	movf	?___fladd+2,w
  6105     0ECD  0021               	movlb	1	; select bank1
  6106     0ECE  00B0               	movwf	(_roundf$1486+2)^(0+128)
  6107     0ECF  0020               	movlb	0	; select bank0
  6108     0ED0  084D               	movf	?___fladd+1,w
  6109     0ED1  0021               	movlb	1	; select bank1
  6110     0ED2  00AF               	movwf	(_roundf$1486+1)^(0+128)
  6111     0ED3  0020               	movlb	0	; select bank0
  6112     0ED4  084C               	movf	?___fladd,w
  6113     0ED5  0021               	movlb	1	; select bank1
  6114     0ED6  00AE               	movwf	_roundf$1486^(0+128)
  6115     0ED7  30CB               	movlw	203
  6116     0ED8  0020               	movlb	0	; select bank0
  6117     0ED9  00CF               	movwf	___fladd@b+3
  6118     0EDA  3000               	movlw	0
  6119     0EDB  00CE               	movwf	___fladd@b+2
  6120     0EDC  3000               	movlw	0
  6121     0EDD  00CD               	movwf	___fladd@b+1
  6122     0EDE  3000               	movlw	0
  6123     0EDF  00CC               	movwf	___fladd@b
  6124     0EE0  0021               	movlb	1	; select bank1
  6125     0EE1  0831               	movf	(_roundf$1486+3)^(0+128),w
  6126     0EE2  0020               	movlb	0	; select bank0
  6127     0EE3  00D3               	movwf	___fladd@a+3
  6128     0EE4  0021               	movlb	1	; select bank1
  6129     0EE5  0830               	movf	(_roundf$1486+2)^(0+128),w
  6130     0EE6  0020               	movlb	0	; select bank0
  6131     0EE7  00D2               	movwf	___fladd@a+2
  6132     0EE8  0021               	movlb	1	; select bank1
  6133     0EE9  082F               	movf	(_roundf$1486+1)^(0+128),w
  6134     0EEA  0020               	movlb	0	; select bank0
  6135     0EEB  00D1               	movwf	___fladd@a+1
  6136     0EEC  0021               	movlb	1	; select bank1
  6137     0EED  082E               	movf	_roundf$1486^(0+128),w
  6138     0EEE  0020               	movlb	0	; select bank0
  6139     0EEF  00D0               	movwf	___fladd@a
  6140     0EF0  3184  2485  318E   	fcall	___fladd
  6141     0EF3  0020               	movlb	0	; select bank0
  6142     0EF4  084F               	movf	?___fladd+3,w
  6143     0EF5  0021               	movlb	1	; select bank1
  6144     0EF6  00A3               	movwf	(_roundf$1487+3)^(0+128)
  6145     0EF7  0020               	movlb	0	; select bank0
  6146     0EF8  084E               	movf	?___fladd+2,w
  6147     0EF9  0021               	movlb	1	; select bank1
  6148     0EFA  00A2               	movwf	(_roundf$1487+2)^(0+128)
  6149     0EFB  0020               	movlb	0	; select bank0
  6150     0EFC  084D               	movf	?___fladd+1,w
  6151     0EFD  0021               	movlb	1	; select bank1
  6152     0EFE  00A1               	movwf	(_roundf$1487+1)^(0+128)
  6153     0EFF  0020               	movlb	0	; select bank0
  6154     0F00  084C               	movf	?___fladd,w
  6155     0F01  0021               	movlb	1	; select bank1
  6156     0F02  00A0               	movwf	_roundf$1487^(0+128)
  6157     0F03  0020               	movlb	0	; select bank0
  6158     0F04  086B               	movf	roundf@x+3,w
  6159     0F05  00E3               	movwf	___flsub@a+3
  6160     0F06  086A               	movf	roundf@x+2,w
  6161     0F07  00E2               	movwf	___flsub@a+2
  6162     0F08  0869               	movf	roundf@x+1,w
  6163     0F09  00E1               	movwf	___flsub@a+1
  6164     0F0A  0868               	movf	roundf@x,w
  6165     0F0B  00E0               	movwf	___flsub@a
  6166     0F0C  0021               	movlb	1	; select bank1
  6167     0F0D  0823               	movf	(_roundf$1487+3)^(0+128),w
  6168     0F0E  0020               	movlb	0	; select bank0
  6169     0F0F  00E7               	movwf	___flsub@b+3
  6170     0F10  0021               	movlb	1	; select bank1
  6171     0F11  0822               	movf	(_roundf$1487+2)^(0+128),w
  6172     0F12  0020               	movlb	0	; select bank0
  6173     0F13  00E6               	movwf	___flsub@b+2
  6174     0F14  0021               	movlb	1	; select bank1
  6175     0F15  0821               	movf	(_roundf$1487+1)^(0+128),w
  6176     0F16  0020               	movlb	0	; select bank0
  6177     0F17  00E5               	movwf	___flsub@b+1
  6178     0F18  0021               	movlb	1	; select bank1
  6179     0F19  0820               	movf	_roundf$1487^(0+128),w
  6180     0F1A  0020               	movlb	0	; select bank0
  6181     0F1B  00E4               	movwf	___flsub@b
  6182     0F1C  318A  2227  318E   	fcall	___flsub
  6183     0F1F  0020               	movlb	0	; select bank0
  6184     0F20  0863               	movf	?___flsub+3,w
  6185     0F21  0021               	movlb	1	; select bank1
  6186     0F22  00B6               	movwf	(roundf@y+3)^(0+128)
  6187     0F23  0020               	movlb	0	; select bank0
  6188     0F24  0862               	movf	?___flsub+2,w
  6189     0F25  0021               	movlb	1	; select bank1
  6190     0F26  00B5               	movwf	(roundf@y+2)^(0+128)
  6191     0F27  0020               	movlb	0	; select bank0
  6192     0F28  0861               	movf	?___flsub+1,w
  6193     0F29  0021               	movlb	1	; select bank1
  6194     0F2A  00B4               	movwf	(roundf@y+1)^(0+128)
  6195     0F2B  0020               	movlb	0	; select bank0
  6196     0F2C  0860               	movf	?___flsub,w
  6197     0F2D  0021               	movlb	1	; select bank1
  6198     0F2E  00B3               	movwf	roundf@y^(0+128)
  6199     0F2F                     i1l2353:
  6200     0F2F  3000               	movlw	0
  6201     0F30  00A7               	movwf	(roundf@z+3)^(0+128)
  6202     0F31  3000               	movlw	0
  6203     0F32  00A6               	movwf	(roundf@z+2)^(0+128)
  6204     0F33  3000               	movlw	0
  6205     0F34  00A5               	movwf	(roundf@z+1)^(0+128)
  6206     0F35  3000               	movlw	0
  6207     0F36  00A4               	movwf	roundf@z^(0+128)
  6208     0F37                     i1l2355:
  6209     0F37  303F               	movlw	63
  6210     0F38  00F3               	movwf	___flge@ff1+3
  6211     0F39  3000               	movlw	0
  6212     0F3A  00F2               	movwf	___flge@ff1+2
  6213     0F3B  3000               	movlw	0
  6214     0F3C  00F1               	movwf	___flge@ff1+1
  6215     0F3D  3000               	movlw	0
  6216     0F3E  00F0               	movwf	___flge@ff1
  6217     0F3F  0836               	movf	(roundf@y+3)^(0+128),w
  6218     0F40  00F7               	movwf	___flge@ff2+3
  6219     0F41  0835               	movf	(roundf@y+2)^(0+128),w
  6220     0F42  00F6               	movwf	___flge@ff2+2
  6221     0F43  0834               	movf	(roundf@y+1)^(0+128),w
  6222     0F44  00F5               	movwf	___flge@ff2+1
  6223     0F45  0833               	movf	roundf@y^(0+128),w
  6224     0F46  00F4               	movwf	___flge@ff2
  6225     0F47  3187  2738  318E   	fcall	___flge
  6226     0F4A  1803               	btfsc	3,0
  6227     0F4B  2F4D               	goto	u214_21
  6228     0F4C  2F4E               	goto	u214_20
  6229     0F4D                     u214_21:
  6230     0F4D  2F58               	goto	i1l2359
  6231     0F4E                     u214_20:
  6232     0F4E                     i1l2357:
  6233     0F4E  30BF               	movlw	191
  6234     0F4F  0021               	movlb	1	; select bank1
  6235     0F50  00A7               	movwf	(roundf@z+3)^(0+128)
  6236     0F51  3080               	movlw	128
  6237     0F52  00A6               	movwf	(roundf@z+2)^(0+128)
  6238     0F53  3000               	movlw	0
  6239     0F54  00A5               	movwf	(roundf@z+1)^(0+128)
  6240     0F55  3000               	movlw	0
  6241     0F56  00A4               	movwf	roundf@z^(0+128)
  6242     0F57  2F79               	goto	i1l2363
  6243     0F58                     i1l2359:
  6244     0F58  30BF               	movlw	191
  6245     0F59  00F3               	movwf	___flge@ff1+3
  6246     0F5A  3000               	movlw	0
  6247     0F5B  00F2               	movwf	___flge@ff1+2
  6248     0F5C  3000               	movlw	0
  6249     0F5D  00F1               	movwf	___flge@ff1+1
  6250     0F5E  3000               	movlw	0
  6251     0F5F  00F0               	movwf	___flge@ff1
  6252     0F60  0021               	movlb	1	; select bank1
  6253     0F61  0836               	movf	(roundf@y+3)^(0+128),w
  6254     0F62  00F7               	movwf	___flge@ff2+3
  6255     0F63  0835               	movf	(roundf@y+2)^(0+128),w
  6256     0F64  00F6               	movwf	___flge@ff2+2
  6257     0F65  0834               	movf	(roundf@y+1)^(0+128),w
  6258     0F66  00F5               	movwf	___flge@ff2+1
  6259     0F67  0833               	movf	roundf@y^(0+128),w
  6260     0F68  00F4               	movwf	___flge@ff2
  6261     0F69  3187  2738  318E   	fcall	___flge
  6262     0F6C  1C03               	btfss	3,0
  6263     0F6D  2F6F               	goto	u215_21
  6264     0F6E  2F70               	goto	u215_20
  6265     0F6F                     u215_21:
  6266     0F6F  2F79               	goto	i1l2363
  6267     0F70                     u215_20:
  6268     0F70                     i1l2361:
  6269     0F70  303F               	movlw	63
  6270     0F71  0021               	movlb	1	; select bank1
  6271     0F72  00A7               	movwf	(roundf@z+3)^(0+128)
  6272     0F73  3080               	movlw	128
  6273     0F74  00A6               	movwf	(roundf@z+2)^(0+128)
  6274     0F75  3000               	movlw	0
  6275     0F76  00A5               	movwf	(roundf@z+1)^(0+128)
  6276     0F77  3000               	movlw	0
  6277     0F78  00A4               	movwf	roundf@z^(0+128)
  6278     0F79                     i1l2363:
  6279     0F79  0020               	movlb	0	; select bank0
  6280     0F7A  086B               	movf	roundf@x+3,w
  6281     0F7B  00CF               	movwf	___fladd@b+3
  6282     0F7C  086A               	movf	roundf@x+2,w
  6283     0F7D  00CE               	movwf	___fladd@b+2
  6284     0F7E  0869               	movf	roundf@x+1,w
  6285     0F7F  00CD               	movwf	___fladd@b+1
  6286     0F80  0868               	movf	roundf@x,w
  6287     0F81  00CC               	movwf	___fladd@b
  6288     0F82  0021               	movlb	1	; select bank1
  6289     0F83  0836               	movf	(roundf@y+3)^(0+128),w
  6290     0F84  0020               	movlb	0	; select bank0
  6291     0F85  00D3               	movwf	___fladd@a+3
  6292     0F86  0021               	movlb	1	; select bank1
  6293     0F87  0835               	movf	(roundf@y+2)^(0+128),w
  6294     0F88  0020               	movlb	0	; select bank0
  6295     0F89  00D2               	movwf	___fladd@a+2
  6296     0F8A  0021               	movlb	1	; select bank1
  6297     0F8B  0834               	movf	(roundf@y+1)^(0+128),w
  6298     0F8C  0020               	movlb	0	; select bank0
  6299     0F8D  00D1               	movwf	___fladd@a+1
  6300     0F8E  0021               	movlb	1	; select bank1
  6301     0F8F  0833               	movf	roundf@y^(0+128),w
  6302     0F90  0020               	movlb	0	; select bank0
  6303     0F91  00D0               	movwf	___fladd@a
  6304     0F92  3184  2485  318E   	fcall	___fladd
  6305     0F95  0020               	movlb	0	; select bank0
  6306     0F96  084F               	movf	?___fladd+3,w
  6307     0F97  0021               	movlb	1	; select bank1
  6308     0F98  00B1               	movwf	(_roundf$1486+3)^(0+128)
  6309     0F99  0020               	movlb	0	; select bank0
  6310     0F9A  084E               	movf	?___fladd+2,w
  6311     0F9B  0021               	movlb	1	; select bank1
  6312     0F9C  00B0               	movwf	(_roundf$1486+2)^(0+128)
  6313     0F9D  0020               	movlb	0	; select bank0
  6314     0F9E  084D               	movf	?___fladd+1,w
  6315     0F9F  0021               	movlb	1	; select bank1
  6316     0FA0  00AF               	movwf	(_roundf$1486+1)^(0+128)
  6317     0FA1  0020               	movlb	0	; select bank0
  6318     0FA2  084C               	movf	?___fladd,w
  6319     0FA3  0021               	movlb	1	; select bank1
  6320     0FA4  00AE               	movwf	_roundf$1486^(0+128)
  6321     0FA5                     i1l2365:
  6322     0FA5  0827               	movf	(roundf@z+3)^(0+128),w
  6323     0FA6  0020               	movlb	0	; select bank0
  6324     0FA7  00CF               	movwf	___fladd@b+3
  6325     0FA8  0021               	movlb	1	; select bank1
  6326     0FA9  0826               	movf	(roundf@z+2)^(0+128),w
  6327     0FAA  0020               	movlb	0	; select bank0
  6328     0FAB  00CE               	movwf	___fladd@b+2
  6329     0FAC  0021               	movlb	1	; select bank1
  6330     0FAD  0825               	movf	(roundf@z+1)^(0+128),w
  6331     0FAE  0020               	movlb	0	; select bank0
  6332     0FAF  00CD               	movwf	___fladd@b+1
  6333     0FB0  0021               	movlb	1	; select bank1
  6334     0FB1  0824               	movf	roundf@z^(0+128),w
  6335     0FB2  0020               	movlb	0	; select bank0
  6336     0FB3  00CC               	movwf	___fladd@b
  6337     0FB4  0021               	movlb	1	; select bank1
  6338     0FB5  0831               	movf	(_roundf$1486+3)^(0+128),w
  6339     0FB6  0020               	movlb	0	; select bank0
  6340     0FB7  00D3               	movwf	___fladd@a+3
  6341     0FB8  0021               	movlb	1	; select bank1
  6342     0FB9  0830               	movf	(_roundf$1486+2)^(0+128),w
  6343     0FBA  0020               	movlb	0	; select bank0
  6344     0FBB  00D2               	movwf	___fladd@a+2
  6345     0FBC  0021               	movlb	1	; select bank1
  6346     0FBD  082F               	movf	(_roundf$1486+1)^(0+128),w
  6347     0FBE  0020               	movlb	0	; select bank0
  6348     0FBF  00D1               	movwf	___fladd@a+1
  6349     0FC0  0021               	movlb	1	; select bank1
  6350     0FC1  082E               	movf	_roundf$1486^(0+128),w
  6351     0FC2  0020               	movlb	0	; select bank0
  6352     0FC3  00D0               	movwf	___fladd@a
  6353     0FC4  3184  2485  318E   	fcall	___fladd
  6354     0FC7  0020               	movlb	0	; select bank0
  6355     0FC8  084F               	movf	?___fladd+3,w
  6356     0FC9  0021               	movlb	1	; select bank1
  6357     0FCA  00B6               	movwf	(roundf@y+3)^(0+128)
  6358     0FCB  0020               	movlb	0	; select bank0
  6359     0FCC  084E               	movf	?___fladd+2,w
  6360     0FCD  0021               	movlb	1	; select bank1
  6361     0FCE  00B5               	movwf	(roundf@y+2)^(0+128)
  6362     0FCF  0020               	movlb	0	; select bank0
  6363     0FD0  084D               	movf	?___fladd+1,w
  6364     0FD1  0021               	movlb	1	; select bank1
  6365     0FD2  00B4               	movwf	(roundf@y+1)^(0+128)
  6366     0FD3  0020               	movlb	0	; select bank0
  6367     0FD4  084C               	movf	?___fladd,w
  6368     0FD5  0021               	movlb	1	; select bank1
  6369     0FD6  00B3               	movwf	roundf@y^(0+128)
  6370     0FD7                     i1l2367:
  6371     0FD7  0832               	movf	roundf@sign^(0+128),w
  6372     0FD8  1903               	btfsc	3,2
  6373     0FD9  2FDB               	goto	u216_21
  6374     0FDA  2FDC               	goto	u216_20
  6375     0FDB                     u216_21:
  6376     0FDB  2FF0               	goto	i1l2371
  6377     0FDC                     u216_20:
  6378     0FDC                     i1l2369:
  6379     0FDC  0836               	movf	(roundf@y+3)^(0+128),w
  6380     0FDD  00F3               	movwf	___flneg@f1+3
  6381     0FDE  0835               	movf	(roundf@y+2)^(0+128),w
  6382     0FDF  00F2               	movwf	___flneg@f1+2
  6383     0FE0  0834               	movf	(roundf@y+1)^(0+128),w
  6384     0FE1  00F1               	movwf	___flneg@f1+1
  6385     0FE2  0833               	movf	roundf@y^(0+128),w
  6386     0FE3  00F0               	movwf	___flneg@f1
  6387     0FE4  3189  2192  318E   	fcall	___flneg
  6388     0FE7  0873               	movf	?___flneg+3,w
  6389     0FE8  0021               	movlb	1	; select bank1
  6390     0FE9  00B6               	movwf	(roundf@y+3)^(0+128)
  6391     0FEA  0872               	movf	?___flneg+2,w
  6392     0FEB  00B5               	movwf	(roundf@y+2)^(0+128)
  6393     0FEC  0871               	movf	?___flneg+1,w
  6394     0FED  00B4               	movwf	(roundf@y+1)^(0+128)
  6395     0FEE  0870               	movf	?___flneg,w
  6396     0FEF  00B3               	movwf	roundf@y^(0+128)
  6397     0FF0                     i1l2371:
  6398     0FF0  0836               	movf	(roundf@y+3)^(0+128),w
  6399     0FF1  0020               	movlb	0	; select bank0
  6400     0FF2  00EB               	movwf	?_roundf+3
  6401     0FF3  0021               	movlb	1	; select bank1
  6402     0FF4  0835               	movf	(roundf@y+2)^(0+128),w
  6403     0FF5  0020               	movlb	0	; select bank0
  6404     0FF6  00EA               	movwf	?_roundf+2
  6405     0FF7  0021               	movlb	1	; select bank1
  6406     0FF8  0834               	movf	(roundf@y+1)^(0+128),w
  6407     0FF9  0020               	movlb	0	; select bank0
  6408     0FFA  00E9               	movwf	?_roundf+1
  6409     0FFB  0021               	movlb	1	; select bank1
  6410     0FFC  0833               	movf	roundf@y^(0+128),w
  6411     0FFD  0020               	movlb	0	; select bank0
  6412     0FFE  00E8               	movwf	?_roundf
  6413     0FFF                     i1l1039:
  6414     0FFF  0008               	return
  6415     1000                     __end_of_roundf:
  6416                           
  6417                           	psect	text29
  6418     0A27                     __ptext29:	
  6419 ;; *************** function ___flsub *****************
  6420 ;; Defined at:
  6421 ;;		line 242 in file "C:\Program Files\Microchip\xc8\v2.46\pic\sources\c99\common\sprcadd.c"
  6422 ;; Parameters:    Size  Location     Type
  6423 ;;  a               4   64[BANK0 ] float 
  6424 ;;  b               4   68[BANK0 ] float 
  6425 ;; Auto vars:     Size  Location     Type
  6426 ;;		None
  6427 ;; Return value:  Size  Location     Type
  6428 ;;                  4   64[BANK0 ] float 
  6429 ;; Registers used:
  6430 ;;		wreg, status,2, status,0, pclath, cstack
  6431 ;; Tracked objects:
  6432 ;;		On entry : 0/0
  6433 ;;		On exit  : 0/0
  6434 ;;		Unchanged: 0/0
  6435 ;; Data sizes:     COMMON   BANK0   BANK1   BANK2   BANK3   BANK4
  6436 ;;      Params:         0       8       0       0       0       0
  6437 ;;      Locals:         0       0       0       0       0       0
  6438 ;;      Temps:          0       0       0       0       0       0
  6439 ;;      Totals:         0       8       0       0       0       0
  6440 ;;Total ram usage:        8 bytes
  6441 ;; Hardware stack levels used: 1
  6442 ;; Hardware stack levels required when called: 1
  6443 ;; This function calls:
  6444 ;;		___fladd
  6445 ;; This function is called by:
  6446 ;;		_roundf
  6447 ;; This function uses a non-reentrant model
  6448 ;;
  6449                           
  6450     0A27                     ___flsub:	
  6451                           ;psect for function ___flsub
  6452                           
  6453     0A27                     i1l2291:	
  6454                           ;incstack = 0
  6455                           ; Regs used in ___flsub: [wreg+status,2+status,0+pclath+cstack]
  6456                           
  6457     0A27  3080               	movlw	128
  6458     0A28  0020               	movlb	0	; select bank0
  6459     0A29  06E3               	xorwf	___flsub@a+3,f
  6460     0A2A                     i1l2293:
  6461     0A2A  0867               	movf	___flsub@b+3,w
  6462     0A2B  00CF               	movwf	___fladd@b+3
  6463     0A2C  0866               	movf	___flsub@b+2,w
  6464     0A2D  00CE               	movwf	___fladd@b+2
  6465     0A2E  0865               	movf	___flsub@b+1,w
  6466     0A2F  00CD               	movwf	___fladd@b+1
  6467     0A30  0864               	movf	___flsub@b,w
  6468     0A31  00CC               	movwf	___fladd@b
  6469     0A32  0863               	movf	___flsub@a+3,w
  6470     0A33  00D3               	movwf	___fladd@a+3
  6471     0A34  0862               	movf	___flsub@a+2,w
  6472     0A35  00D2               	movwf	___fladd@a+2
  6473     0A36  0861               	movf	___flsub@a+1,w
  6474     0A37  00D1               	movwf	___fladd@a+1
  6475     0A38  0860               	movf	___flsub@a,w
  6476     0A39  00D0               	movwf	___fladd@a
  6477     0A3A  3184  2485  318A   	fcall	___fladd
  6478     0A3D  0020               	movlb	0	; select bank0
  6479     0A3E  084F               	movf	?___fladd+3,w
  6480     0A3F  00E3               	movwf	?___flsub+3
  6481     0A40  084E               	movf	?___fladd+2,w
  6482     0A41  00E2               	movwf	?___flsub+2
  6483     0A42  084D               	movf	?___fladd+1,w
  6484     0A43  00E1               	movwf	?___flsub+1
  6485     0A44  084C               	movf	?___fladd,w
  6486     0A45  00E0               	movwf	?___flsub
  6487     0A46                     i1l914:
  6488     0A46  0008               	return
  6489     0A47                     __end_of___flsub:
  6490                           
  6491                           	psect	text30
  6492     0485                     __ptext30:	
  6493 ;; *************** function ___fladd *****************
  6494 ;; Defined at:
  6495 ;;		line 10 in file "C:\Program Files\Microchip\xc8\v2.46\pic\sources\c99\common\sprcadd.c"
  6496 ;; Parameters:    Size  Location     Type
  6497 ;;  b               4   44[BANK0 ] float 
  6498 ;;  a               4   48[BANK0 ] float 
  6499 ;; Auto vars:     Size  Location     Type
  6500 ;;  grs             1   63[BANK0 ] unsigned char 
  6501 ;;  bexp            1   62[BANK0 ] unsigned char 
  6502 ;;  aexp            1   61[BANK0 ] unsigned char 
  6503 ;;  signs           1   60[BANK0 ] unsigned char 
  6504 ;; Return value:  Size  Location     Type
  6505 ;;                  4   44[BANK0 ] unsigned char 
  6506 ;; Registers used:
  6507 ;;		wreg, status,2, status,0
  6508 ;; Tracked objects:
  6509 ;;		On entry : 0/0
  6510 ;;		On exit  : 0/0
  6511 ;;		Unchanged: 0/0
  6512 ;; Data sizes:     COMMON   BANK0   BANK1   BANK2   BANK3   BANK4
  6513 ;;      Params:         0       8       0       0       0       0
  6514 ;;      Locals:         0       4       0       0       0       0
  6515 ;;      Temps:          0       8       0       0       0       0
  6516 ;;      Totals:         0      20       0       0       0       0
  6517 ;;Total ram usage:       20 bytes
  6518 ;; Hardware stack levels used: 1
  6519 ;; This function calls:
  6520 ;;		Nothing
  6521 ;; This function is called by:
  6522 ;;		_reinicia
  6523 ;;		___flsub
  6524 ;;		_roundf
  6525 ;; This function uses a non-reentrant model
  6526 ;;
  6527                           
  6528     0485                     ___fladd:	
  6529                           ;psect for function ___fladd
  6530                           
  6531     0485                     i1l2045:	
  6532                           ;incstack = 0
  6533                           ; Regs used in ___fladd: [wreg+status,2+status,0]
  6534                           
  6535     0485  0020               	movlb	0	; select bank0
  6536     0486  084F               	movf	___fladd@b+3,w
  6537     0487  3980               	andlw	128
  6538     0488  00DC               	movwf	___fladd@signs
  6539     0489                     i1l2047:
  6540     0489  354F               	lslf	___fladd@b+3,w
  6541     048A  00DE               	movwf	___fladd@bexp
  6542     048B                     i1l2049:
  6543     048B  1FCE               	btfss	___fladd@b+2,7
  6544     048C  2C8E               	goto	u150_21
  6545     048D  2C8F               	goto	u150_20
  6546     048E                     u150_21:
  6547     048E  2C90               	goto	i1l2053
  6548     048F                     u150_20:
  6549     048F                     i1l2051:
  6550     048F  145E               	bsf	___fladd@bexp,0
  6551     0490                     i1l2053:
  6552     0490  085E               	movf	___fladd@bexp,w
  6553     0491  1903               	btfsc	3,2
  6554     0492  2C94               	goto	u151_21
  6555     0493  2C95               	goto	u151_20
  6556     0494                     u151_21:
  6557     0494  2CA5               	goto	i1l2063
  6558     0495                     u151_20:
  6559     0495                     i1l2055:
  6560     0495  0A5E               	incf	___fladd@bexp,w
  6561     0496  1D03               	btfss	3,2
  6562     0497  2C99               	goto	u152_21
  6563     0498  2C9A               	goto	u152_20
  6564     0499                     u152_21:
  6565     0499  2CA2               	goto	i1l2059
  6566     049A                     u152_20:
  6567     049A                     i1l2057:
  6568     049A  3000               	movlw	0
  6569     049B  00CF               	movwf	___fladd@b+3
  6570     049C  3000               	movlw	0
  6571     049D  00CE               	movwf	___fladd@b+2
  6572     049E  3000               	movlw	0
  6573     049F  00CD               	movwf	___fladd@b+1
  6574     04A0  3000               	movlw	0
  6575     04A1  00CC               	movwf	___fladd@b
  6576     04A2                     i1l2059:
  6577     04A2  17CE               	bsf	___fladd@b+2,7
  6578     04A3                     i1l2061:
  6579     04A3  01CF               	clrf	___fladd@b+3
  6580     04A4  2CAD               	goto	i1l2065
  6581     04A5                     i1l2063:
  6582     04A5  3000               	movlw	0
  6583     04A6  00CF               	movwf	___fladd@b+3
  6584     04A7  3000               	movlw	0
  6585     04A8  00CE               	movwf	___fladd@b+2
  6586     04A9  3000               	movlw	0
  6587     04AA  00CD               	movwf	___fladd@b+1
  6588     04AB  3000               	movlw	0
  6589     04AC  00CC               	movwf	___fladd@b
  6590     04AD                     i1l2065:
  6591     04AD  0853               	movf	___fladd@a+3,w
  6592     04AE  3980               	andlw	128
  6593     04AF  00DD               	movwf	___fladd@aexp
  6594     04B0                     i1l2067:
  6595     04B0  085D               	movf	___fladd@aexp,w
  6596     04B1  065C               	xorwf	___fladd@signs,w
  6597     04B2  1903               	skipnz
  6598     04B3  2CB5               	goto	u153_21
  6599     04B4  2CB6               	goto	u153_20
  6600     04B5                     u153_21:
  6601     04B5  2CB7               	goto	i1l2071
  6602     04B6                     u153_20:
  6603     04B6                     i1l2069:
  6604     04B6  175C               	bsf	___fladd@signs,6
  6605     04B7                     i1l2071:
  6606     04B7  3553               	lslf	___fladd@a+3,w
  6607     04B8  00DD               	movwf	___fladd@aexp
  6608     04B9                     i1l2073:
  6609     04B9  1FD2               	btfss	___fladd@a+2,7
  6610     04BA  2CBC               	goto	u154_21
  6611     04BB  2CBD               	goto	u154_20
  6612     04BC                     u154_21:
  6613     04BC  2CBE               	goto	i1l2077
  6614     04BD                     u154_20:
  6615     04BD                     i1l2075:
  6616     04BD  145D               	bsf	___fladd@aexp,0
  6617     04BE                     i1l2077:
  6618     04BE  085D               	movf	___fladd@aexp,w
  6619     04BF  1903               	btfsc	3,2
  6620     04C0  2CC2               	goto	u155_21
  6621     04C1  2CC3               	goto	u155_20
  6622     04C2                     u155_21:
  6623     04C2  2CD3               	goto	i1l2087
  6624     04C3                     u155_20:
  6625     04C3                     i1l2079:
  6626     04C3  0A5D               	incf	___fladd@aexp,w
  6627     04C4  1D03               	btfss	3,2
  6628     04C5  2CC7               	goto	u156_21
  6629     04C6  2CC8               	goto	u156_20
  6630     04C7                     u156_21:
  6631     04C7  2CD0               	goto	i1l2083
  6632     04C8                     u156_20:
  6633     04C8                     i1l2081:
  6634     04C8  3000               	movlw	0
  6635     04C9  00D3               	movwf	___fladd@a+3
  6636     04CA  3000               	movlw	0
  6637     04CB  00D2               	movwf	___fladd@a+2
  6638     04CC  3000               	movlw	0
  6639     04CD  00D1               	movwf	___fladd@a+1
  6640     04CE  3000               	movlw	0
  6641     04CF  00D0               	movwf	___fladd@a
  6642     04D0                     i1l2083:
  6643     04D0  17D2               	bsf	___fladd@a+2,7
  6644     04D1                     i1l2085:
  6645     04D1  01D3               	clrf	___fladd@a+3
  6646     04D2  2CDB               	goto	i1l868
  6647     04D3                     i1l2087:
  6648     04D3  3000               	movlw	0
  6649     04D4  00D3               	movwf	___fladd@a+3
  6650     04D5  3000               	movlw	0
  6651     04D6  00D2               	movwf	___fladd@a+2
  6652     04D7  3000               	movlw	0
  6653     04D8  00D1               	movwf	___fladd@a+1
  6654     04D9  3000               	movlw	0
  6655     04DA  00D0               	movwf	___fladd@a
  6656     04DB                     i1l868:
  6657     04DB  085E               	movf	___fladd@bexp,w
  6658     04DC  025D               	subwf	___fladd@aexp,w
  6659     04DD  1803               	skipnc
  6660     04DE  2CE0               	goto	u157_21
  6661     04DF  2CE1               	goto	u157_20
  6662     04E0                     u157_21:
  6663     04E0  2D07               	goto	i1l2123
  6664     04E1                     u157_20:
  6665     04E1                     i1l2089:
  6666     04E1  1F5C               	btfss	___fladd@signs,6
  6667     04E2  2CE4               	goto	u158_21
  6668     04E3  2CE5               	goto	u158_20
  6669     04E4                     u158_21:
  6670     04E4  2CE9               	goto	i1l2093
  6671     04E5                     u158_20:
  6672     04E5                     i1l2091:
  6673     04E5  3080               	movlw	128
  6674     04E6  00D4               	movwf	??___fladd
  6675     04E7  0854               	movf	??___fladd,w
  6676     04E8  06DC               	xorwf	___fladd@signs,f
  6677     04E9                     i1l2093:
  6678     04E9  085E               	movf	___fladd@bexp,w
  6679     04EA  00DF               	movwf	___fladd@grs
  6680     04EB                     i1l2095:
  6681     04EB  085D               	movf	___fladd@aexp,w
  6682     04EC  00DE               	movwf	___fladd@bexp
  6683     04ED                     i1l2097:
  6684     04ED  085F               	movf	___fladd@grs,w
  6685     04EE  00DD               	movwf	___fladd@aexp
  6686     04EF                     i1l2099:
  6687     04EF  084C               	movf	___fladd@b,w
  6688     04F0  00DF               	movwf	___fladd@grs
  6689     04F1                     i1l2101:
  6690     04F1  0850               	movf	___fladd@a,w
  6691     04F2  00CC               	movwf	___fladd@b
  6692     04F3                     i1l2103:
  6693     04F3  085F               	movf	___fladd@grs,w
  6694     04F4  00D0               	movwf	___fladd@a
  6695     04F5                     i1l2105:
  6696     04F5  084D               	movf	___fladd@b+1,w
  6697     04F6  00DF               	movwf	___fladd@grs
  6698     04F7                     i1l2107:
  6699     04F7  0851               	movf	___fladd@a+1,w
  6700     04F8  00CD               	movwf	___fladd@b+1
  6701     04F9                     i1l2109:
  6702     04F9  085F               	movf	___fladd@grs,w
  6703     04FA  00D1               	movwf	___fladd@a+1
  6704     04FB                     i1l2111:
  6705     04FB  084E               	movf	___fladd@b+2,w
  6706     04FC  00DF               	movwf	___fladd@grs
  6707     04FD                     i1l2113:
  6708     04FD  0852               	movf	___fladd@a+2,w
  6709     04FE  00CE               	movwf	___fladd@b+2
  6710     04FF                     i1l2115:
  6711     04FF  085F               	movf	___fladd@grs,w
  6712     0500  00D2               	movwf	___fladd@a+2
  6713     0501                     i1l2117:
  6714     0501  084F               	movf	___fladd@b+3,w
  6715     0502  00DF               	movwf	___fladd@grs
  6716     0503                     i1l2119:
  6717     0503  0853               	movf	___fladd@a+3,w
  6718     0504  00CF               	movwf	___fladd@b+3
  6719     0505                     i1l2121:
  6720     0505  085F               	movf	___fladd@grs,w
  6721     0506  00D3               	movwf	___fladd@a+3
  6722     0507                     i1l2123:
  6723     0507  01DF               	clrf	___fladd@grs
  6724     0508                     i1l2125:
  6725     0508  085D               	movf	___fladd@aexp,w
  6726     0509  00D4               	movwf	??___fladd
  6727     050A  01D5               	clrf	??___fladd+1
  6728     050B  0855               	movf	??___fladd+1,w
  6729     050C  00D7               	movwf	??___fladd+3
  6730     050D  085E               	movf	___fladd@bexp,w
  6731     050E  0254               	subwf	??___fladd,w
  6732     050F  00D6               	movwf	??___fladd+2
  6733     0510  1C03               	skipc
  6734     0511  03D7               	decf	??___fladd+3,f
  6735     0512  0857               	movf	??___fladd+3,w
  6736     0513  3A80               	xorlw	128
  6737     0514  00D8               	movwf	??___fladd+4
  6738     0515  3080               	movlw	128
  6739     0516  0258               	subwf	??___fladd+4,w
  6740     0517  1D03               	skipz
  6741     0518  2D1B               	goto	u159_25
  6742     0519  301A               	movlw	26
  6743     051A  0256               	subwf	??___fladd+2,w
  6744     051B                     u159_25:
  6745     051B  1C03               	skipc
  6746     051C  2D1E               	goto	u159_21
  6747     051D  2D1F               	goto	u159_20
  6748     051E                     u159_21:
  6749     051E  2D51               	goto	i1l2141
  6750     051F                     u159_20:
  6751     051F                     i1l2127:
  6752     051F  0020               	movlb	0	; select bank0
  6753     0520  084F               	movf	___fladd@b+3,w
  6754     0521  044E               	iorwf	___fladd@b+2,w
  6755     0522  044D               	iorwf	___fladd@b+1,w
  6756     0523  044C               	iorwf	___fladd@b,w
  6757     0524  1D03               	skipz
  6758     0525  2D27               	goto	u160_21
  6759     0526  2D29               	goto	u160_20
  6760     0527                     u160_21:
  6761     0527  3001               	movlw	1
  6762     0528  2D2A               	goto	u161_20
  6763     0529                     u160_20:
  6764     0529  3000               	movlw	0
  6765     052A                     u161_20:
  6766     052A  00DF               	movwf	___fladd@grs
  6767     052B  3000               	movlw	0
  6768     052C  00CF               	movwf	___fladd@b+3
  6769     052D  3000               	movlw	0
  6770     052E  00CE               	movwf	___fladd@b+2
  6771     052F  3000               	movlw	0
  6772     0530  00CD               	movwf	___fladd@b+1
  6773     0531  3000               	movlw	0
  6774     0532  00CC               	movwf	___fladd@b
  6775     0533  085D               	movf	___fladd@aexp,w
  6776     0534  00DE               	movwf	___fladd@bexp
  6777     0535  2D58               	goto	i1l872
  6778     0536                     i1l874:
  6779     0536  1C5F               	btfss	___fladd@grs,0
  6780     0537  2D39               	goto	u162_21
  6781     0538  2D3A               	goto	u162_20
  6782     0539                     u162_21:
  6783     0539  2D3E               	goto	i1l2131
  6784     053A                     u162_20:
  6785     053A                     i1l2129:
  6786     053A  365F               	lsrf	___fladd@grs,w
  6787     053B  3801               	iorlw	1
  6788     053C  00DF               	movwf	___fladd@grs
  6789     053D  2D40               	goto	i1l2133
  6790     053E                     i1l2131:
  6791     053E  1003               	clrc
  6792     053F  0CDF               	rrf	___fladd@grs,f
  6793     0540                     i1l2133:
  6794     0540  1C4C               	btfss	___fladd@b,0
  6795     0541  2D43               	goto	u163_21
  6796     0542  2D44               	goto	u163_20
  6797     0543                     u163_21:
  6798     0543  2D45               	goto	i1l2137
  6799     0544                     u163_20:
  6800     0544                     i1l2135:
  6801     0544  17DF               	bsf	___fladd@grs,7
  6802     0545                     i1l2137:
  6803     0545  3001               	movlw	1
  6804     0546  00D4               	movwf	??___fladd
  6805     0547                     u164_25:
  6806     0547  37CF               	asrf	___fladd@b+3,f
  6807     0548  0CCE               	rrf	___fladd@b+2,f
  6808     0549  0CCD               	rrf	___fladd@b+1,f
  6809     054A  0CCC               	rrf	___fladd@b,f
  6810     054B  0BD4               	decfsz	??___fladd& (0+127),f
  6811     054C  2D47               	goto	u164_25
  6812     054D                     i1l2139:
  6813     054D  3001               	movlw	1
  6814     054E  00D4               	movwf	??___fladd
  6815     054F  0854               	movf	??___fladd,w
  6816     0550  07DE               	addwf	___fladd@bexp,f
  6817     0551                     i1l2141:
  6818     0551  0020               	movlb	0	; select bank0
  6819     0552  085D               	movf	___fladd@aexp,w
  6820     0553  025E               	subwf	___fladd@bexp,w
  6821     0554  1C03               	skipc
  6822     0555  2D57               	goto	u165_21
  6823     0556  2D58               	goto	u165_20
  6824     0557                     u165_21:
  6825     0557  2D36               	goto	i1l874
  6826     0558                     u165_20:
  6827     0558                     i1l872:
  6828     0558  1B5C               	btfsc	___fladd@signs,6
  6829     0559  2D5B               	goto	u166_21
  6830     055A  2D5C               	goto	u166_20
  6831     055B                     u166_21:
  6832     055B  2D92               	goto	i1l2167
  6833     055C                     u166_20:
  6834     055C                     i1l2143:
  6835     055C  085E               	movf	___fladd@bexp,w
  6836     055D  1D03               	btfss	3,2
  6837     055E  2D60               	goto	u167_21
  6838     055F  2D61               	goto	u167_20
  6839     0560                     u167_21:
  6840     0560  2D6A               	goto	i1l2149
  6841     0561                     u167_20:
  6842     0561                     i1l2145:
  6843     0561  3000               	movlw	0
  6844     0562  00CF               	movwf	?___fladd+3
  6845     0563  3000               	movlw	0
  6846     0564  00CE               	movwf	?___fladd+2
  6847     0565  3000               	movlw	0
  6848     0566  00CD               	movwf	?___fladd+1
  6849     0567  3000               	movlw	0
  6850     0568  00CC               	movwf	?___fladd
  6851     0569  2E8C               	goto	i1l881
  6852     056A                     i1l2149:
  6853     056A  0850               	movf	___fladd@a,w
  6854     056B  07CC               	addwf	___fladd@b,f
  6855     056C  0851               	movf	___fladd@a+1,w
  6856     056D  3DCD               	addwfc	___fladd@b+1,f
  6857     056E  0852               	movf	___fladd@a+2,w
  6858     056F  3DCE               	addwfc	___fladd@b+2,f
  6859     0570  0853               	movf	___fladd@a+3,w
  6860     0571  3DCF               	addwfc	___fladd@b+3,f
  6861     0572                     i1l2151:
  6862     0572  1C4F               	btfss	___fladd@b+3,0
  6863     0573  2D75               	goto	u168_21
  6864     0574  2D76               	goto	u168_20
  6865     0575                     u168_21:
  6866     0575  2E1E               	goto	i1l2201
  6867     0576                     u168_20:
  6868     0576                     i1l2153:
  6869     0576  1C5F               	btfss	___fladd@grs,0
  6870     0577  2D79               	goto	u169_21
  6871     0578  2D7A               	goto	u169_20
  6872     0579                     u169_21:
  6873     0579  2D7E               	goto	i1l2157
  6874     057A                     u169_20:
  6875     057A                     i1l2155:
  6876     057A  365F               	lsrf	___fladd@grs,w
  6877     057B  3801               	iorlw	1
  6878     057C  00DF               	movwf	___fladd@grs
  6879     057D  2D80               	goto	i1l2159
  6880     057E                     i1l2157:
  6881     057E  1003               	clrc
  6882     057F  0CDF               	rrf	___fladd@grs,f
  6883     0580                     i1l2159:
  6884     0580  1C4C               	btfss	___fladd@b,0
  6885     0581  2D83               	goto	u170_21
  6886     0582  2D84               	goto	u170_20
  6887     0583                     u170_21:
  6888     0583  2D85               	goto	i1l2163
  6889     0584                     u170_20:
  6890     0584                     i1l2161:
  6891     0584  17DF               	bsf	___fladd@grs,7
  6892     0585                     i1l2163:
  6893     0585  3001               	movlw	1
  6894     0586  00D4               	movwf	??___fladd
  6895     0587                     u171_25:
  6896     0587  37CF               	asrf	___fladd@b+3,f
  6897     0588  0CCE               	rrf	___fladd@b+2,f
  6898     0589  0CCD               	rrf	___fladd@b+1,f
  6899     058A  0CCC               	rrf	___fladd@b,f
  6900     058B  0BD4               	decfsz	??___fladd& (0+127),f
  6901     058C  2D87               	goto	u171_25
  6902     058D                     i1l2165:
  6903     058D  3001               	movlw	1
  6904     058E  00D4               	movwf	??___fladd
  6905     058F  0854               	movf	??___fladd,w
  6906     0590  07DE               	addwf	___fladd@bexp,f
  6907     0591  2E1E               	goto	i1l2201
  6908     0592                     i1l2167:
  6909     0592  084F               	movf	___fladd@b+3,w
  6910     0593  3A80               	xorlw	128
  6911     0594  00D4               	movwf	??___fladd
  6912     0595  0853               	movf	___fladd@a+3,w
  6913     0596  3A80               	xorlw	128
  6914     0597  0254               	subwf	??___fladd,w
  6915     0598  1D03               	skipz
  6916     0599  2DA4               	goto	u172_23
  6917     059A  0852               	movf	___fladd@a+2,w
  6918     059B  024E               	subwf	___fladd@b+2,w
  6919     059C  1D03               	skipz
  6920     059D  2DA4               	goto	u172_23
  6921     059E  0851               	movf	___fladd@a+1,w
  6922     059F  024D               	subwf	___fladd@b+1,w
  6923     05A0  1D03               	skipz
  6924     05A1  2DA4               	goto	u172_23
  6925     05A2  0850               	movf	___fladd@a,w
  6926     05A3  024C               	subwf	___fladd@b,w
  6927     05A4                     u172_23:
  6928     05A4  1803               	skipnc
  6929     05A5  2DA7               	goto	u172_21
  6930     05A6  2DA8               	goto	u172_20
  6931     05A7                     u172_21:
  6932     05A7  2DE0               	goto	i1l2177
  6933     05A8                     u172_20:
  6934     05A8                     i1l2169:
  6935     05A8  30FF               	movlw	255
  6936     05A9  00D4               	movwf	??___fladd
  6937     05AA  30FF               	movlw	255
  6938     05AB  00D5               	movwf	??___fladd+1
  6939     05AC  30FF               	movlw	255
  6940     05AD  00D6               	movwf	??___fladd+2
  6941     05AE  30FF               	movlw	255
  6942     05AF  00D7               	movwf	??___fladd+3
  6943     05B0  084C               	movf	___fladd@b,w
  6944     05B1  0250               	subwf	___fladd@a,w
  6945     05B2  00D8               	movwf	??___fladd+4
  6946     05B3  084D               	movf	___fladd@b+1,w
  6947     05B4  3B51               	subwfb	___fladd@a+1,w
  6948     05B5  00D9               	movwf	??___fladd+5
  6949     05B6  084E               	movf	___fladd@b+2,w
  6950     05B7  3B52               	subwfb	___fladd@a+2,w
  6951     05B8  00DA               	movwf	??___fladd+6
  6952     05B9  084F               	movf	___fladd@b+3,w
  6953     05BA  3B53               	subwfb	___fladd@a+3,w
  6954     05BB  00DB               	movwf	??___fladd+7
  6955     05BC  0858               	movf	??___fladd+4,w
  6956     05BD  07D4               	addwf	??___fladd,f
  6957     05BE  0859               	movf	??___fladd+5,w
  6958     05BF  3DD5               	addwfc	??___fladd+1,f
  6959     05C0  085A               	movf	??___fladd+6,w
  6960     05C1  3DD6               	addwfc	??___fladd+2,f
  6961     05C2  085B               	movf	??___fladd+7,w
  6962     05C3  3DD7               	addwfc	??___fladd+3,f
  6963     05C4  0857               	movf	??___fladd+3,w
  6964     05C5  00CF               	movwf	___fladd@b+3
  6965     05C6  0856               	movf	??___fladd+2,w
  6966     05C7  00CE               	movwf	___fladd@b+2
  6967     05C8  0855               	movf	??___fladd+1,w
  6968     05C9  00CD               	movwf	___fladd@b+1
  6969     05CA  0854               	movf	??___fladd,w
  6970     05CB  00CC               	movwf	___fladd@b
  6971     05CC                     i1l2171:
  6972     05CC  3080               	movlw	128
  6973     05CD  00D4               	movwf	??___fladd
  6974     05CE  0854               	movf	??___fladd,w
  6975     05CF  06DC               	xorwf	___fladd@signs,f
  6976     05D0  09DF               	comf	___fladd@grs,f
  6977     05D1  0ADF               	incf	___fladd@grs,f
  6978     05D2                     i1l2173:
  6979     05D2  085F               	movf	___fladd@grs,w
  6980     05D3  1D03               	btfss	3,2
  6981     05D4  2DD6               	goto	u173_21
  6982     05D5  2DD7               	goto	u173_20
  6983     05D6                     u173_21:
  6984     05D6  2DE8               	goto	i1l889
  6985     05D7                     u173_20:
  6986     05D7                     i1l2175:
  6987     05D7  3001               	movlw	1
  6988     05D8  07CC               	addwf	___fladd@b,f
  6989     05D9  3000               	movlw	0
  6990     05DA  3DCD               	addwfc	___fladd@b+1,f
  6991     05DB  3000               	movlw	0
  6992     05DC  3DCE               	addwfc	___fladd@b+2,f
  6993     05DD  3000               	movlw	0
  6994     05DE  3DCF               	addwfc	___fladd@b+3,f
  6995     05DF  2DE8               	goto	i1l889
  6996     05E0                     i1l2177:
  6997     05E0  0850               	movf	___fladd@a,w
  6998     05E1  02CC               	subwf	___fladd@b,f
  6999     05E2  0851               	movf	___fladd@a+1,w
  7000     05E3  3BCD               	subwfb	___fladd@b+1,f
  7001     05E4  0852               	movf	___fladd@a+2,w
  7002     05E5  3BCE               	subwfb	___fladd@b+2,f
  7003     05E6  0853               	movf	___fladd@a+3,w
  7004     05E7  3BCF               	subwfb	___fladd@b+3,f
  7005     05E8                     i1l889:
  7006     05E8  084F               	movf	___fladd@b+3,w
  7007     05E9  044E               	iorwf	___fladd@b+2,w
  7008     05EA  044D               	iorwf	___fladd@b+1,w
  7009     05EB  044C               	iorwf	___fladd@b,w
  7010     05EC  1D03               	skipz
  7011     05ED  2DEF               	goto	u174_21
  7012     05EE  2DF0               	goto	u174_20
  7013     05EF                     u174_21:
  7014     05EF  2E1A               	goto	i1l2199
  7015     05F0                     u174_20:
  7016     05F0                     i1l2179:
  7017     05F0  085F               	movf	___fladd@grs,w
  7018     05F1  1D03               	btfss	3,2
  7019     05F2  2DF4               	goto	u175_21
  7020     05F3  2DF5               	goto	u175_20
  7021     05F4                     u175_21:
  7022     05F4  2E1A               	goto	i1l2199
  7023     05F5                     u175_20:
  7024     05F5                     i1l2181:
  7025     05F5  3000               	movlw	0
  7026     05F6  00CF               	movwf	?___fladd+3
  7027     05F7  3000               	movlw	0
  7028     05F8  00CE               	movwf	?___fladd+2
  7029     05F9  3000               	movlw	0
  7030     05FA  00CD               	movwf	?___fladd+1
  7031     05FB  3000               	movlw	0
  7032     05FC  00CC               	movwf	?___fladd
  7033     05FD  2E8C               	goto	i1l881
  7034     05FE                     i1l2185:
  7035     05FE  3001               	movlw	1
  7036     05FF                     u176_25:
  7037     05FF  35CC               	lslf	___fladd@b,f
  7038     0600  0DCD               	rlf	___fladd@b+1,f
  7039     0601  0DCE               	rlf	___fladd@b+2,f
  7040     0602  0DCF               	rlf	___fladd@b+3,f
  7041     0603  0B89               	decfsz	9,f
  7042     0604  2DFF               	goto	u176_25
  7043     0605                     i1l2187:
  7044     0605  1FDF               	btfss	___fladd@grs,7
  7045     0606  2E08               	goto	u177_21
  7046     0607  2E09               	goto	u177_20
  7047     0608                     u177_21:
  7048     0608  2E0A               	goto	i1l893
  7049     0609                     u177_20:
  7050     0609                     i1l2189:
  7051     0609  144C               	bsf	___fladd@b,0
  7052     060A                     i1l893:
  7053     060A  1C5F               	btfss	___fladd@grs,0
  7054     060B  2E0D               	goto	u178_21
  7055     060C  2E0E               	goto	u178_20
  7056     060D                     u178_21:
  7057     060D  2E11               	goto	i1l2193
  7058     060E                     u178_20:
  7059     060E                     i1l2191:
  7060     060E  1403               	setc
  7061     060F  0DDF               	rlf	___fladd@grs,f
  7062     0610  2E13               	goto	i1l2195
  7063     0611                     i1l2193:
  7064     0611  1003               	clrc
  7065     0612  0DDF               	rlf	___fladd@grs,f
  7066     0613                     i1l2195:
  7067     0613  085E               	movf	___fladd@bexp,w
  7068     0614  1903               	btfsc	3,2
  7069     0615  2E17               	goto	u179_21
  7070     0616  2E18               	goto	u179_20
  7071     0617                     u179_21:
  7072     0617  2E1A               	goto	i1l2199
  7073     0618                     u179_20:
  7074     0618                     i1l2197:
  7075     0618  3001               	movlw	1
  7076     0619  02DE               	subwf	___fladd@bexp,f
  7077     061A                     i1l2199:
  7078     061A  1FCE               	btfss	___fladd@b+2,7
  7079     061B  2E1D               	goto	u180_21
  7080     061C  2E1E               	goto	u180_20
  7081     061D                     u180_21:
  7082     061D  2DFE               	goto	i1l2185
  7083     061E                     u180_20:
  7084     061E                     i1l2201:
  7085     061E  01DD               	clrf	___fladd@aexp
  7086     061F                     i1l2203:
  7087     061F  1FDF               	btfss	___fladd@grs,7
  7088     0620  2E22               	goto	u181_21
  7089     0621  2E23               	goto	u181_20
  7090     0622                     u181_21:
  7091     0622  2E31               	goto	i1l2211
  7092     0623                     u181_20:
  7093     0623                     i1l2205:
  7094     0623  085F               	movf	___fladd@grs,w
  7095     0624  397F               	andlw	127
  7096     0625  1903               	btfsc	3,2
  7097     0626  2E28               	goto	u182_21
  7098     0627  2E29               	goto	u182_20
  7099     0628                     u182_21:
  7100     0628  2E2C               	goto	i1l899
  7101     0629                     u182_20:
  7102     0629                     i1l2207:
  7103     0629  01DD               	clrf	___fladd@aexp
  7104     062A  0ADD               	incf	___fladd@aexp,f
  7105     062B  2E31               	goto	i1l2211
  7106     062C                     i1l899:
  7107     062C  1C4C               	btfss	___fladd@b,0
  7108     062D  2E2F               	goto	u183_21
  7109     062E  2E30               	goto	u183_20
  7110     062F                     u183_21:
  7111     062F  2E31               	goto	i1l2211
  7112     0630                     u183_20:
  7113     0630  2E29               	goto	i1l2207
  7114     0631                     i1l2211:
  7115     0631  085D               	movf	___fladd@aexp,w
  7116     0632  1903               	btfsc	3,2
  7117     0633  2E35               	goto	u184_21
  7118     0634  2E36               	goto	u184_20
  7119     0635                     u184_21:
  7120     0635  2E63               	goto	i1l902
  7121     0636                     u184_20:
  7122     0636                     i1l2213:
  7123     0636  3001               	movlw	1
  7124     0637  07CC               	addwf	___fladd@b,f
  7125     0638  3000               	movlw	0
  7126     0639  3DCD               	addwfc	___fladd@b+1,f
  7127     063A  3000               	movlw	0
  7128     063B  3DCE               	addwfc	___fladd@b+2,f
  7129     063C  3000               	movlw	0
  7130     063D  3DCF               	addwfc	___fladd@b+3,f
  7131     063E                     i1l2215:
  7132     063E  1C4F               	btfss	___fladd@b+3,0
  7133     063F  2E41               	goto	u185_21
  7134     0640  2E42               	goto	u185_20
  7135     0641                     u185_21:
  7136     0641  2E63               	goto	i1l902
  7137     0642                     u185_20:
  7138     0642                     i1l2217:
  7139     0642  084C               	movf	___fladd@b,w
  7140     0643  00D4               	movwf	??___fladd
  7141     0644  084D               	movf	___fladd@b+1,w
  7142     0645  00D5               	movwf	??___fladd+1
  7143     0646  084E               	movf	___fladd@b+2,w
  7144     0647  00D6               	movwf	??___fladd+2
  7145     0648  084F               	movf	___fladd@b+3,w
  7146     0649  00D7               	movwf	??___fladd+3
  7147     064A  3001               	movlw	1
  7148     064B  00D8               	movwf	??___fladd+4
  7149     064C                     u186_25:
  7150     064C  37D7               	asrf	??___fladd+3,f
  7151     064D  0CD6               	rrf	??___fladd+2,f
  7152     064E  0CD5               	rrf	??___fladd+1,f
  7153     064F  0CD4               	rrf	??___fladd,f
  7154     0650                     u186_20:
  7155     0650  0BD8               	decfsz	??___fladd+4,f
  7156     0651  2E4C               	goto	u186_25
  7157     0652  0857               	movf	??___fladd+3,w
  7158     0653  00CF               	movwf	___fladd@b+3
  7159     0654  0856               	movf	??___fladd+2,w
  7160     0655  00CE               	movwf	___fladd@b+2
  7161     0656  0855               	movf	??___fladd+1,w
  7162     0657  00CD               	movwf	___fladd@b+1
  7163     0658  0854               	movf	??___fladd,w
  7164     0659  00CC               	movwf	___fladd@b
  7165     065A  0A5E               	incf	___fladd@bexp,w
  7166     065B  1903               	btfsc	3,2
  7167     065C  2E5E               	goto	u187_21
  7168     065D  2E5F               	goto	u187_20
  7169     065E                     u187_21:
  7170     065E  2E63               	goto	i1l902
  7171     065F                     u187_20:
  7172     065F                     i1l2219:
  7173     065F  3001               	movlw	1
  7174     0660  00D4               	movwf	??___fladd
  7175     0661  0854               	movf	??___fladd,w
  7176     0662  07DE               	addwf	___fladd@bexp,f
  7177     0663                     i1l902:
  7178     0663  0A5E               	incf	___fladd@bexp,w
  7179     0664  1903               	btfsc	3,2
  7180     0665  2E67               	goto	u188_21
  7181     0666  2E68               	goto	u188_20
  7182     0667                     u188_21:
  7183     0667  2E6D               	goto	i1l2223
  7184     0668                     u188_20:
  7185     0668                     i1l2221:
  7186     0668  085E               	movf	___fladd@bexp,w
  7187     0669  1D03               	btfss	3,2
  7188     066A  2E6C               	goto	u189_21
  7189     066B  2E6D               	goto	u189_20
  7190     066C                     u189_21:
  7191     066C  2E7B               	goto	i1l2229
  7192     066D                     u189_20:
  7193     066D                     i1l2223:
  7194     066D  3000               	movlw	0
  7195     066E  00CF               	movwf	___fladd@b+3
  7196     066F  3000               	movlw	0
  7197     0670  00CE               	movwf	___fladd@b+2
  7198     0671  3000               	movlw	0
  7199     0672  00CD               	movwf	___fladd@b+1
  7200     0673  3000               	movlw	0
  7201     0674  00CC               	movwf	___fladd@b
  7202     0675                     i1l2225:
  7203     0675  085E               	movf	___fladd@bexp,w
  7204     0676  1D03               	btfss	3,2
  7205     0677  2E79               	goto	u190_21
  7206     0678  2E7A               	goto	u190_20
  7207     0679                     u190_21:
  7208     0679  2E7B               	goto	i1l2229
  7209     067A                     u190_20:
  7210     067A                     i1l2227:
  7211     067A  01DC               	clrf	___fladd@signs
  7212     067B                     i1l2229:
  7213     067B  1C5E               	btfss	___fladd@bexp,0
  7214     067C  2E7E               	goto	u191_21
  7215     067D  2E7F               	goto	u191_20
  7216     067E                     u191_21:
  7217     067E  2E81               	goto	i1l2233
  7218     067F                     u191_20:
  7219     067F                     i1l2231:
  7220     067F  17CE               	bsf	___fladd@b+2,7
  7221     0680  2E85               	goto	i1l910
  7222     0681                     i1l2233:
  7223     0681  307F               	movlw	127
  7224     0682  00D4               	movwf	??___fladd
  7225     0683  0854               	movf	??___fladd,w
  7226     0684  05CE               	andwf	___fladd@b+2,f
  7227     0685                     i1l910:
  7228     0685  365E               	lsrf	___fladd@bexp,w
  7229     0686  00CF               	movwf	___fladd@b+3
  7230     0687                     i1l2235:
  7231     0687  1FDC               	btfss	___fladd@signs,7
  7232     0688  2E8A               	goto	u192_21
  7233     0689  2E8B               	goto	u192_20
  7234     068A                     u192_21:
  7235     068A  2E8C               	goto	i1l911
  7236     068B                     u192_20:
  7237     068B                     i1l2237:
  7238     068B  17CF               	bsf	___fladd@b+3,7
  7239     068C                     i1l911:
  7240     068C                     i1l881:
  7241     068C  0008               	return
  7242     068D                     __end_of___fladd:
  7243                           
  7244                           	psect	text31
  7245     0992                     __ptext31:	
  7246 ;; *************** function ___flneg *****************
  7247 ;; Defined at:
  7248 ;;		line 15 in file "C:\Program Files\Microchip\xc8\v2.46\pic\sources\c99\common\flneg.c"
  7249 ;; Parameters:    Size  Location     Type
  7250 ;;  f1              4    0[COMMON] unsigned char 
  7251 ;; Auto vars:     Size  Location     Type
  7252 ;;		None
  7253 ;; Return value:  Size  Location     Type
  7254 ;;                  4    0[COMMON] unsigned char 
  7255 ;; Registers used:
  7256 ;;		wreg
  7257 ;; Tracked objects:
  7258 ;;		On entry : 0/0
  7259 ;;		On exit  : 0/0
  7260 ;;		Unchanged: 0/0
  7261 ;; Data sizes:     COMMON   BANK0   BANK1   BANK2   BANK3   BANK4
  7262 ;;      Params:         4       0       0       0       0       0
  7263 ;;      Locals:         0       0       0       0       0       0
  7264 ;;      Temps:          0       0       0       0       0       0
  7265 ;;      Totals:         4       0       0       0       0       0
  7266 ;;Total ram usage:        4 bytes
  7267 ;; Hardware stack levels used: 1
  7268 ;; This function calls:
  7269 ;;		Nothing
  7270 ;; This function is called by:
  7271 ;;		_roundf
  7272 ;; This function uses a non-reentrant model
  7273 ;;
  7274                           
  7275     0992                     ___flneg:	
  7276                           ;psect for function ___flneg
  7277                           
  7278     0992                     i1l2283:	
  7279                           ;incstack = 0
  7280                           ; Regs used in ___flneg: [wreg]
  7281                           
  7282     0992  0873               	movf	___flneg@f1+3,w
  7283     0993  0472               	iorwf	___flneg@f1+2,w
  7284     0994  0471               	iorwf	___flneg@f1+1,w
  7285     0995  0470               	iorwf	___flneg@f1,w
  7286     0996  1903               	skipnz
  7287     0997  2999               	goto	u204_21
  7288     0998  299A               	goto	u204_20
  7289     0999                     u204_21:
  7290     0999  299C               	goto	i1l2287
  7291     099A                     u204_20:
  7292     099A                     i1l2285:
  7293     099A  3080               	movlw	128
  7294     099B  06F3               	xorwf	___flneg@f1+3,f
  7295     099C                     i1l2287:
  7296     099C                     i1l757:
  7297     099C  0008               	return
  7298     099D                     __end_of___flneg:
  7299                           
  7300                           	psect	text32
  7301     0738                     __ptext32:	
  7302 ;; *************** function ___flge *****************
  7303 ;; Defined at:
  7304 ;;		line 4 in file "C:\Program Files\Microchip\xc8\v2.46\pic\sources\c99\common\flge.c"
  7305 ;; Parameters:    Size  Location     Type
  7306 ;;  ff1             4    0[COMMON] unsigned char 
  7307 ;;  ff2             4    4[COMMON] unsigned char 
  7308 ;; Auto vars:     Size  Location     Type
  7309 ;;		None
  7310 ;; Return value:  Size  Location     Type
  7311 ;;		None               void
  7312 ;; Registers used:
  7313 ;;		wreg, status,2, status,0
  7314 ;; Tracked objects:
  7315 ;;		On entry : 0/0
  7316 ;;		On exit  : 0/0
  7317 ;;		Unchanged: 0/0
  7318 ;; Data sizes:     COMMON   BANK0   BANK1   BANK2   BANK3   BANK4
  7319 ;;      Params:         8       0       0       0       0       0
  7320 ;;      Locals:         0       0       0       0       0       0
  7321 ;;      Temps:          4       0       0       0       0       0
  7322 ;;      Totals:        12       0       0       0       0       0
  7323 ;;Total ram usage:       12 bytes
  7324 ;; Hardware stack levels used: 1
  7325 ;; This function calls:
  7326 ;;		Nothing
  7327 ;; This function is called by:
  7328 ;;		_roundf
  7329 ;; This function uses a non-reentrant model
  7330 ;;
  7331                           
  7332     0738                     ___flge:	
  7333                           ;psect for function ___flge
  7334                           
  7335     0738                     i1l2263:	
  7336                           ;incstack = 0
  7337                           ; Regs used in ___flge: [wreg+status,2+status,0]
  7338                           
  7339     0738  3000               	movlw	0
  7340     0739  0570               	andwf	___flge@ff1,w
  7341     073A  00F8               	movwf	??___flge
  7342     073B  3000               	movlw	0
  7343     073C  0571               	andwf	___flge@ff1+1,w
  7344     073D  00F9               	movwf	??___flge+1
  7345     073E  3080               	movlw	128
  7346     073F  0572               	andwf	___flge@ff1+2,w
  7347     0740  00FA               	movwf	??___flge+2
  7348     0741  307F               	movlw	127
  7349     0742  0573               	andwf	___flge@ff1+3,w
  7350     0743  00FB               	movwf	??___flge+3
  7351     0744  087B               	movf	??___flge+3,w
  7352     0745  047A               	iorwf	??___flge+2,w
  7353     0746  0479               	iorwf	??___flge+1,w
  7354     0747  0478               	iorwf	??___flge,w
  7355     0748  1D03               	skipz
  7356     0749  2F4B               	goto	u199_21
  7357     074A  2F4C               	goto	u199_20
  7358     074B                     u199_21:
  7359     074B  2F54               	goto	i1l745
  7360     074C                     u199_20:
  7361     074C                     i1l2265:
  7362     074C  3000               	movlw	0
  7363     074D  00F3               	movwf	___flge@ff1+3
  7364     074E  3000               	movlw	0
  7365     074F  00F2               	movwf	___flge@ff1+2
  7366     0750  3000               	movlw	0
  7367     0751  00F1               	movwf	___flge@ff1+1
  7368     0752  3000               	movlw	0
  7369     0753  00F0               	movwf	___flge@ff1
  7370     0754                     i1l745:
  7371     0754  3000               	movlw	0
  7372     0755  0574               	andwf	___flge@ff2,w
  7373     0756  00F8               	movwf	??___flge
  7374     0757  3000               	movlw	0
  7375     0758  0575               	andwf	___flge@ff2+1,w
  7376     0759  00F9               	movwf	??___flge+1
  7377     075A  3080               	movlw	128
  7378     075B  0576               	andwf	___flge@ff2+2,w
  7379     075C  00FA               	movwf	??___flge+2
  7380     075D  307F               	movlw	127
  7381     075E  0577               	andwf	___flge@ff2+3,w
  7382     075F  00FB               	movwf	??___flge+3
  7383     0760  087B               	movf	??___flge+3,w
  7384     0761  047A               	iorwf	??___flge+2,w
  7385     0762  0479               	iorwf	??___flge+1,w
  7386     0763  0478               	iorwf	??___flge,w
  7387     0764  1D03               	skipz
  7388     0765  2F67               	goto	u200_21
  7389     0766  2F68               	goto	u200_20
  7390     0767                     u200_21:
  7391     0767  2F70               	goto	i1l2269
  7392     0768                     u200_20:
  7393     0768                     i1l2267:
  7394     0768  3000               	movlw	0
  7395     0769  00F7               	movwf	___flge@ff2+3
  7396     076A  3000               	movlw	0
  7397     076B  00F6               	movwf	___flge@ff2+2
  7398     076C  3000               	movlw	0
  7399     076D  00F5               	movwf	___flge@ff2+1
  7400     076E  3000               	movlw	0
  7401     076F  00F4               	movwf	___flge@ff2
  7402     0770                     i1l2269:
  7403     0770  1FF3               	btfss	___flge@ff1+3,7
  7404     0771  2F73               	goto	u201_21
  7405     0772  2F74               	goto	u201_20
  7406     0773                     u201_21:
  7407     0773  2F8C               	goto	i1l2273
  7408     0774                     u201_20:
  7409     0774                     i1l2271:
  7410     0774  3000               	movlw	0
  7411     0775  00F8               	movwf	??___flge
  7412     0776  3000               	movlw	0
  7413     0777  00F9               	movwf	??___flge+1
  7414     0778  3000               	movlw	0
  7415     0779  00FA               	movwf	??___flge+2
  7416     077A  3080               	movlw	128
  7417     077B  00FB               	movwf	??___flge+3
  7418     077C  0870               	movf	___flge@ff1,w
  7419     077D  02F8               	subwf	??___flge,f
  7420     077E  0871               	movf	___flge@ff1+1,w
  7421     077F  3BF9               	subwfb	??___flge+1,f
  7422     0780  0872               	movf	___flge@ff1+2,w
  7423     0781  3BFA               	subwfb	??___flge+2,f
  7424     0782  0873               	movf	___flge@ff1+3,w
  7425     0783  3BFB               	subwfb	??___flge+3,f
  7426     0784  087B               	movf	??___flge+3,w
  7427     0785  00F3               	movwf	___flge@ff1+3
  7428     0786  087A               	movf	??___flge+2,w
  7429     0787  00F2               	movwf	___flge@ff1+2
  7430     0788  0879               	movf	??___flge+1,w
  7431     0789  00F1               	movwf	___flge@ff1+1
  7432     078A  0878               	movf	??___flge,w
  7433     078B  00F0               	movwf	___flge@ff1
  7434     078C                     i1l2273:
  7435     078C  1FF7               	btfss	___flge@ff2+3,7
  7436     078D  2F8F               	goto	u202_21
  7437     078E  2F90               	goto	u202_20
  7438     078F                     u202_21:
  7439     078F  2FA8               	goto	i1l748
  7440     0790                     u202_20:
  7441     0790                     i1l2275:
  7442     0790  3000               	movlw	0
  7443     0791  00F8               	movwf	??___flge
  7444     0792  3000               	movlw	0
  7445     0793  00F9               	movwf	??___flge+1
  7446     0794  3000               	movlw	0
  7447     0795  00FA               	movwf	??___flge+2
  7448     0796  3080               	movlw	128
  7449     0797  00FB               	movwf	??___flge+3
  7450     0798  0874               	movf	___flge@ff2,w
  7451     0799  02F8               	subwf	??___flge,f
  7452     079A  0875               	movf	___flge@ff2+1,w
  7453     079B  3BF9               	subwfb	??___flge+1,f
  7454     079C  0876               	movf	___flge@ff2+2,w
  7455     079D  3BFA               	subwfb	??___flge+2,f
  7456     079E  0877               	movf	___flge@ff2+3,w
  7457     079F  3BFB               	subwfb	??___flge+3,f
  7458     07A0  087B               	movf	??___flge+3,w
  7459     07A1  00F7               	movwf	___flge@ff2+3
  7460     07A2  087A               	movf	??___flge+2,w
  7461     07A3  00F6               	movwf	___flge@ff2+2
  7462     07A4  0879               	movf	??___flge+1,w
  7463     07A5  00F5               	movwf	___flge@ff2+1
  7464     07A6  0878               	movf	??___flge,w
  7465     07A7  00F4               	movwf	___flge@ff2
  7466     07A8                     i1l748:
  7467     07A8  3080               	movlw	128
  7468     07A9  06F3               	xorwf	___flge@ff1+3,f
  7469     07AA  3080               	movlw	128
  7470     07AB  06F7               	xorwf	___flge@ff2+3,f
  7471     07AC  0877               	movf	___flge@ff2+3,w
  7472     07AD  0273               	subwf	___flge@ff1+3,w
  7473     07AE  1D03               	skipz
  7474     07AF  2FBA               	goto	u203_25
  7475     07B0  0876               	movf	___flge@ff2+2,w
  7476     07B1  0272               	subwf	___flge@ff1+2,w
  7477     07B2  1D03               	skipz
  7478     07B3  2FBA               	goto	u203_25
  7479     07B4  0875               	movf	___flge@ff2+1,w
  7480     07B5  0271               	subwf	___flge@ff1+1,w
  7481     07B6  1D03               	skipz
  7482     07B7  2FBA               	goto	u203_25
  7483     07B8  0874               	movf	___flge@ff2,w
  7484     07B9  0270               	subwf	___flge@ff1,w
  7485     07BA                     u203_25:
  7486     07BA  1803               	skipnc
  7487     07BB  2FBD               	goto	u203_21
  7488     07BC  2FBE               	goto	u203_20
  7489     07BD                     u203_21:
  7490     07BD  2FC0               	goto	i1l2279
  7491     07BE                     u203_20:
  7492     07BE                     i1l2277:
  7493     07BE  1003               	clrc
  7494     07BF  2FC1               	goto	i1l753
  7495     07C0                     i1l2279:
  7496     07C0  1403               	setc
  7497     07C1                     i1l753:
  7498     07C1  0008               	return
  7499     07C2                     __end_of___flge:
  7500                           
  7501                           	psect	text33
  7502     07C2                     __ptext33:	
  7503 ;; *************** function _matrixPosicao *****************
  7504 ;; Defined at:
  7505 ;;		line 127 in file "main.c"
  7506 ;; Parameters:    Size  Location     Type
  7507 ;;  posicaoX        1    wreg     unsigned char 
  7508 ;;  posicaoY        1   13[COMMON] unsigned char 
  7509 ;; Auto vars:     Size  Location     Type
  7510 ;;  posicaoX        1    5[BANK0 ] unsigned char 
  7511 ;;  i               1    6[BANK0 ] unsigned char 
  7512 ;;  data            4    1[BANK0 ] unsigned char [4]
  7513 ;; Return value:  Size  Location     Type
  7514 ;;                  1    wreg      void 
  7515 ;; Registers used:
  7516 ;;		wreg, fsr0l, fsr0h, fsr1l, fsr1h, status,2, status,0, pclath, cstack
  7517 ;; Tracked objects:
  7518 ;;		On entry : 0/0
  7519 ;;		On exit  : 0/0
  7520 ;;		Unchanged: 0/0
  7521 ;; Data sizes:     COMMON   BANK0   BANK1   BANK2   BANK3   BANK4
  7522 ;;      Params:         1       0       0       0       0       0
  7523 ;;      Locals:         0       6       0       0       0       0
  7524 ;;      Temps:          0       1       0       0       0       0
  7525 ;;      Totals:         1       7       0       0       0       0
  7526 ;;Total ram usage:        8 bytes
  7527 ;; Hardware stack levels used: 1
  7528 ;; Hardware stack levels required when called: 2
  7529 ;; This function calls:
  7530 ;;		i1_txSpi
  7531 ;; This function is called by:
  7532 ;;		_AtualizaXY
  7533 ;; This function uses a non-reentrant model
  7534 ;;
  7535                           
  7536     07C2                     _matrixPosicao:	
  7537                           ;psect for function _matrixPosicao
  7538                           
  7539                           
  7540                           ;incstack = 0
  7541                           ; Regs used in _matrixPosicao: [wreg-fsr1h+status,2+status,0+pclath+cstack]
  7542                           ;matrixPosicao@posicaoX stored from wreg
  7543     07C2  0020               	movlb	0	; select bank0
  7544     07C3  00A5               	movwf	matrixPosicao@posicaoX
  7545     07C4                     i1l3009:
  7546                           
  7547                           ;main.c: 128:     uint8_t data[4];;main.c: 129:     data[1] = 0;
  7548     07C4  01A2               	clrf	matrixPosicao@data+1
  7549                           
  7550                           ;main.c: 130:     data[3] = 0;
  7551     07C5  01A4               	clrf	matrixPosicao@data+3
  7552                           
  7553                           ;main.c: 131:     for(uint8_t i = 0; i < 8; i++){
  7554     07C6  01A6               	clrf	matrixPosicao@i
  7555     07C7                     i1l3015:
  7556                           
  7557                           ;main.c: 132:         data[0] = i;
  7558     07C7  0826               	movf	matrixPosicao@i,w
  7559     07C8  00A1               	movwf	matrixPosicao@data
  7560                           
  7561                           ;main.c: 133:         data[2] = i;
  7562     07C9  0826               	movf	matrixPosicao@i,w
  7563     07CA  00A3               	movwf	matrixPosicao@data+2
  7564     07CB                     i1l3017:
  7565                           
  7566                           ;main.c: 134:     }
  7567     07CB  3001               	movlw	1
  7568     07CC  00A0               	movwf	??_matrixPosicao
  7569     07CD  0820               	movf	??_matrixPosicao,w
  7570     07CE  07A6               	addwf	matrixPosicao@i,f
  7571     07CF                     i1l3019:
  7572     07CF  3008               	movlw	8
  7573     07D0  0226               	subwf	matrixPosicao@i,w
  7574     07D1  1C03               	skipc
  7575     07D2  2FD4               	goto	u295_21
  7576     07D3  2FD5               	goto	u295_20
  7577     07D4                     u295_21:
  7578     07D4  2FC7               	goto	i1l3015
  7579     07D5                     u295_20:
  7580     07D5                     i1l3021:
  7581                           
  7582                           ;main.c: 135:     if(posicaoX < 8){
  7583     07D5  3008               	movlw	8
  7584     07D6  0225               	subwf	matrixPosicao@posicaoX,w
  7585     07D7  1803               	skipnc
  7586     07D8  2FDA               	goto	u296_21
  7587     07D9  2FDB               	goto	u296_20
  7588     07DA                     u296_21:
  7589     07DA  2FE7               	goto	i1l3027
  7590     07DB                     u296_20:
  7591     07DB                     i1l3023:
  7592                           
  7593                           ;main.c: 136:         data[0] = posicaoX;
  7594     07DB  0825               	movf	matrixPosicao@posicaoX,w
  7595     07DC  00A1               	movwf	matrixPosicao@data
  7596     07DD                     i1l3025:
  7597                           
  7598                           ;main.c: 137:         data[1] = 1 << posicaoY;
  7599     07DD  3001               	movlw	1
  7600     07DE  00A0               	movwf	??_matrixPosicao
  7601     07DF  0A7D               	incf	matrixPosicao@posicaoY,w
  7602     07E0  2FE2               	goto	u297_24
  7603     07E1                     u297_25:
  7604     07E1  35A0               	lslf	??_matrixPosicao,f
  7605     07E2                     u297_24:
  7606     07E2  0B89               	decfsz	9,f
  7607     07E3  2FE1               	goto	u297_25
  7608     07E4  0820               	movf	??_matrixPosicao,w
  7609     07E5  00A2               	movwf	matrixPosicao@data+1
  7610                           
  7611                           ;main.c: 138:     }else{
  7612     07E6  2FF3               	goto	i1l3029
  7613     07E7                     i1l3027:
  7614                           
  7615                           ;main.c: 139:         data[2] = posicaoX - 7;
  7616     07E7  0825               	movf	matrixPosicao@posicaoX,w
  7617     07E8  3EF9               	addlw	249
  7618     07E9  00A3               	movwf	matrixPosicao@data+2
  7619                           
  7620                           ;main.c: 140:         data[3] = 1 << posicaoY;
  7621     07EA  3001               	movlw	1
  7622     07EB  00A0               	movwf	??_matrixPosicao
  7623     07EC  0A7D               	incf	matrixPosicao@posicaoY,w
  7624     07ED  2FEF               	goto	u298_24
  7625     07EE                     u298_25:
  7626     07EE  35A0               	lslf	??_matrixPosicao,f
  7627     07EF                     u298_24:
  7628     07EF  0B89               	decfsz	9,f
  7629     07F0  2FEE               	goto	u298_25
  7630     07F1  0820               	movf	??_matrixPosicao,w
  7631     07F2  00A4               	movwf	matrixPosicao@data+3
  7632     07F3                     i1l3029:
  7633                           
  7634                           ;main.c: 151:     txSpi(spiCS1, data, 4);
  7635     07F3  3021               	movlw	low matrixPosicao@data
  7636     07F4  00F6               	movwf	i1txSpi@data
  7637     07F5  3000               	movlw	high matrixPosicao@data
  7638     07F6  00F7               	movwf	i1txSpi@data+1
  7639     07F7  3004               	movlw	4
  7640     07F8  00F8               	movwf	i1txSpi@dataSize
  7641     07F9  3000               	movlw	0
  7642     07FA  00F9               	movwf	i1txSpi@dataSize+1
  7643     07FB  3000               	movlw	0
  7644     07FC  318B  2375  3187   	fcall	i1_txSpi
  7645     07FF                     i1l396:
  7646     07FF  0008               	return
  7647     0800                     __end_of_matrixPosicao:
  7648                           
  7649                           	psect	text34
  7650     0B75                     __ptext34:	
  7651 ;; *************** function i1_txSpi *****************
  7652 ;; Defined at:
  7653 ;;		line 106 in file "main.c"
  7654 ;; Parameters:    Size  Location     Type
  7655 ;;  cs              1    wreg     enum E2884
  7656 ;;  data            2    6[COMMON] PTR unsigned char 
  7657 ;;		 -> matrixPosicao@data(4), initMatrix@data(4), 
  7658 ;;  dataSize        2    8[COMMON] unsigned int 
  7659 ;; Auto vars:     Size  Location     Type
  7660 ;;  cs              1   12[COMMON] enum E2884
  7661 ;; Return value:  Size  Location     Type
  7662 ;;                  1    wreg      void 
  7663 ;; Registers used:
  7664 ;;		wreg, fsr0l, fsr0h, fsr1l, fsr1h, status,2, status,0, pclath, cstack
  7665 ;; Tracked objects:
  7666 ;;		On entry : 0/0
  7667 ;;		On exit  : 0/0
  7668 ;;		Unchanged: 0/0
  7669 ;; Data sizes:     COMMON   BANK0   BANK1   BANK2   BANK3   BANK4
  7670 ;;      Params:         4       0       0       0       0       0
  7671 ;;      Locals:         1       0       0       0       0       0
  7672 ;;      Temps:          2       0       0       0       0       0
  7673 ;;      Totals:         7       0       0       0       0       0
  7674 ;;Total ram usage:        7 bytes
  7675 ;; Hardware stack levels used: 1
  7676 ;; Hardware stack levels required when called: 1
  7677 ;; This function calls:
  7678 ;;		i1_SPI1_ExchangeBlock
  7679 ;; This function is called by:
  7680 ;;		_matrixPosicao
  7681 ;; This function uses a non-reentrant model
  7682 ;;
  7683                           
  7684     0B75                     i1_txSpi:	
  7685                           ;psect for function i1_txSpi
  7686                           
  7687                           
  7688                           ;incstack = 0
  7689                           ; Regs used in i1_txSpi: [wreg-fsr1h+status,2+status,0+pclath+cstack]
  7690                           ;i1txSpi@cs stored from wreg
  7691     0B75  00FC               	movwf	i1txSpi@cs
  7692     0B76                     i1l2989:
  7693                           
  7694                           ;main.c: 107:     switch(cs){
  7695     0B76  2B7D               	goto	i1l2993
  7696     0B77                     i1l375:	
  7697                           ;main.c: 109:             do { LATBbits.LATB3 = 0; } while(0);
  7698                           
  7699     0B77  0022               	movlb	2	; select bank2
  7700     0B78  118D               	bcf	13,3	;volatile
  7701     0B79  2B8D               	goto	i1l2995
  7702     0B7A                     i1l379:	
  7703                           ;main.c: 112:             do { LATAbits.LATA4 = 0; } while(0);
  7704                           
  7705     0B7A  0022               	movlb	2	; select bank2
  7706     0B7B  120C               	bcf	12,4	;volatile
  7707     0B7C  2B8D               	goto	i1l2995
  7708     0B7D                     i1l2993:
  7709     0B7D  087C               	movf	i1txSpi@cs,w
  7710     0B7E  00FA               	movwf	??i1_txSpi
  7711     0B7F  01FB               	clrf	??i1_txSpi+1
  7712                           
  7713                           ; Switch on 2 bytes has been partitioned into a top level switch of size 1, and 1 sub-sw
      +                          itches
  7714                           ; Switch size 1, requested type "simple"
  7715                           ; Number of cases is 1, Range of values is 0 to 0
  7716                           ; switch strategies available:
  7717                           ; Name         Instructions Cycles
  7718                           ; simple_byte            4     3 (average)
  7719                           ; direct_byte            8     6 (fixed)
  7720                           ; jumptable            260     6 (fixed)
  7721                           ;	Chosen strategy is simple_byte
  7722     0B80  087B               	movf	??i1_txSpi+1,w
  7723     0B81  3A00               	xorlw	0	; case 0
  7724     0B82  1903               	skipnz
  7725     0B83  2B85               	goto	i1l3275
  7726     0B84  2B8D               	goto	i1l2995
  7727     0B85                     i1l3275:
  7728                           
  7729                           ; Switch size 1, requested type "simple"
  7730                           ; Number of cases is 2, Range of values is 0 to 1
  7731                           ; switch strategies available:
  7732                           ; Name         Instructions Cycles
  7733                           ; simple_byte            7     4 (average)
  7734                           ; direct_byte           10     6 (fixed)
  7735                           ; jumptable            260     6 (fixed)
  7736                           ;	Chosen strategy is simple_byte
  7737     0B85  087A               	movf	??i1_txSpi,w
  7738     0B86  3A00               	xorlw	0	; case 0
  7739     0B87  1903               	skipnz
  7740     0B88  2B77               	goto	i1l375
  7741     0B89  3A01               	xorlw	1	; case 1
  7742     0B8A  1903               	skipnz
  7743     0B8B  2B7A               	goto	i1l379
  7744     0B8C  2B8D               	goto	i1l2995
  7745     0B8D                     i1l2995:
  7746                           
  7747                           ;main.c: 115:     SPI1_ExchangeBlock(data,dataSize);
  7748     0B8D  0877               	movf	i1txSpi@data+1,w
  7749     0B8E  00F1               	movwf	i1SPI1_ExchangeBlock@block+1
  7750     0B8F  0876               	movf	i1txSpi@data,w
  7751     0B90  00F0               	movwf	i1SPI1_ExchangeBlock@block
  7752     0B91  0879               	movf	i1txSpi@dataSize+1,w
  7753     0B92  00F3               	movwf	i1SPI1_ExchangeBlock@blockSize+1
  7754     0B93  0878               	movf	i1txSpi@dataSize,w
  7755     0B94  00F2               	movwf	i1SPI1_ExchangeBlock@blockSize
  7756     0B95  318A  22B2  318B   	fcall	i1_SPI1_ExchangeBlock
  7757                           
  7758                           ;main.c: 116:     switch(cs){
  7759     0B98  2B9F               	goto	i1l2999
  7760     0B99                     i1l383:	
  7761                           ;main.c: 118:             do { LATBbits.LATB3 = 1; } while(0);
  7762                           
  7763     0B99  0022               	movlb	2	; select bank2
  7764     0B9A  158D               	bsf	13,3	;volatile
  7765     0B9B  2BAF               	goto	i1l389
  7766     0B9C                     i1l387:	
  7767                           ;main.c: 121:             do { LATAbits.LATA4 = 1; } while(0);
  7768                           
  7769     0B9C  0022               	movlb	2	; select bank2
  7770     0B9D  160C               	bsf	12,4	;volatile
  7771     0B9E  2BAF               	goto	i1l389
  7772     0B9F                     i1l2999:
  7773     0B9F  087C               	movf	i1txSpi@cs,w
  7774     0BA0  00FA               	movwf	??i1_txSpi
  7775     0BA1  01FB               	clrf	??i1_txSpi+1
  7776                           
  7777                           ; Switch on 2 bytes has been partitioned into a top level switch of size 1, and 1 sub-sw
      +                          itches
  7778                           ; Switch size 1, requested type "simple"
  7779                           ; Number of cases is 1, Range of values is 0 to 0
  7780                           ; switch strategies available:
  7781                           ; Name         Instructions Cycles
  7782                           ; simple_byte            4     3 (average)
  7783                           ; direct_byte            8     6 (fixed)
  7784                           ; jumptable            260     6 (fixed)
  7785                           ;	Chosen strategy is simple_byte
  7786     0BA2  087B               	movf	??i1_txSpi+1,w
  7787     0BA3  3A00               	xorlw	0	; case 0
  7788     0BA4  1903               	skipnz
  7789     0BA5  2BA7               	goto	i1l3277
  7790     0BA6  2BAF               	goto	i1l389
  7791     0BA7                     i1l3277:
  7792                           
  7793                           ; Switch size 1, requested type "simple"
  7794                           ; Number of cases is 2, Range of values is 0 to 1
  7795                           ; switch strategies available:
  7796                           ; Name         Instructions Cycles
  7797                           ; simple_byte            7     4 (average)
  7798                           ; direct_byte           10     6 (fixed)
  7799                           ; jumptable            260     6 (fixed)
  7800                           ;	Chosen strategy is simple_byte
  7801     0BA7  087A               	movf	??i1_txSpi,w
  7802     0BA8  3A00               	xorlw	0	; case 0
  7803     0BA9  1903               	skipnz
  7804     0BAA  2B99               	goto	i1l383
  7805     0BAB  3A01               	xorlw	1	; case 1
  7806     0BAC  1903               	skipnz
  7807     0BAD  2B9C               	goto	i1l387
  7808     0BAE  2BAF               	goto	i1l389
  7809     0BAF                     i1l389:
  7810     0BAF  0008               	return
  7811     0BB0                     __end_ofi1_txSpi:
  7812                           
  7813                           	psect	text35
  7814     0AB2                     __ptext35:	
  7815 ;; *************** function i1_SPI1_ExchangeBlock *****************
  7816 ;; Defined at:
  7817 ;;		line 100 in file "mcc_generated_files/spi1.c"
  7818 ;; Parameters:    Size  Location     Type
  7819 ;;  block           2    0[COMMON] PTR void 
  7820 ;;		 -> matrixPosicao@data(4), initMatrix@data(4), 
  7821 ;;  blockSize       2    2[COMMON] unsigned int 
  7822 ;; Auto vars:     Size  Location     Type
  7823 ;;  data            2    4[COMMON] PTR unsigned char 
  7824 ;;		 -> matrixPosicao@data(4), initMatrix@data(4), 
  7825 ;; Return value:  Size  Location     Type
  7826 ;;                  1    wreg      void 
  7827 ;; Registers used:
  7828 ;;		wreg, fsr1l, fsr1h, status,2, status,0
  7829 ;; Tracked objects:
  7830 ;;		On entry : 0/0
  7831 ;;		On exit  : 0/0
  7832 ;;		Unchanged: 0/0
  7833 ;; Data sizes:     COMMON   BANK0   BANK1   BANK2   BANK3   BANK4
  7834 ;;      Params:         4       0       0       0       0       0
  7835 ;;      Locals:         2       0       0       0       0       0
  7836 ;;      Temps:          0       0       0       0       0       0
  7837 ;;      Totals:         6       0       0       0       0       0
  7838 ;;Total ram usage:        6 bytes
  7839 ;; Hardware stack levels used: 1
  7840 ;; This function calls:
  7841 ;;		Nothing
  7842 ;; This function is called by:
  7843 ;;		i1_txSpi
  7844 ;; This function uses a non-reentrant model
  7845 ;;
  7846                           
  7847     0AB2                     i1_SPI1_ExchangeBlock:	
  7848                           ;psect for function i1_SPI1_ExchangeBlock
  7849                           
  7850     0AB2                     i1l2979:	
  7851                           ;incstack = 0
  7852                           ; Regs used in i1_SPI1_ExchangeBlock: [wreg+fsr1l+fsr1h+status,2+status,0]
  7853                           
  7854                           
  7855                           ;mcc_generated_files/spi1.c: 100: void SPI1_ExchangeBlock(void *block, size_t blockSize)
      +                          ;mcc_generated_files/spi1.c: 101: {;mcc_generated_files/spi1.c: 102:     uint8_t *data =
      +                           block;
  7856     0AB2  0871               	movf	i1SPI1_ExchangeBlock@block+1,w
  7857     0AB3  00F5               	movwf	i1SPI1_ExchangeBlock@data+1
  7858     0AB4  0870               	movf	i1SPI1_ExchangeBlock@block,w
  7859     0AB5  00F4               	movwf	i1SPI1_ExchangeBlock@data
  7860                           
  7861                           ;mcc_generated_files/spi1.c: 103:     while(blockSize--)
  7862     0AB6  2ACF               	goto	i1l2987
  7863     0AB7                     i1l2981:
  7864                           
  7865                           ;mcc_generated_files/spi1.c: 104:     {;mcc_generated_files/spi1.c: 105:         SSP1BUF
      +                           = *data;
  7866     0AB7  0874               	movf	i1SPI1_ExchangeBlock@data,w
  7867     0AB8  0086               	movwf	6
  7868     0AB9  0875               	movf	i1SPI1_ExchangeBlock@data+1,w
  7869     0ABA  0087               	movwf	7
  7870     0ABB  0801               	movf	1,w
  7871     0ABC  0024               	movlb	4	; select bank4
  7872     0ABD  0091               	movwf	17	;volatile
  7873     0ABE                     i1l67:	
  7874                           ;mcc_generated_files/spi1.c: 106:         while(!PIR1bits.SSP1IF);
  7875                           
  7876     0ABE  0020               	movlb	0	; select bank0
  7877     0ABF  1D91               	btfss	17,3	;volatile
  7878     0AC0  2AC2               	goto	u293_21
  7879     0AC1  2AC3               	goto	u293_20
  7880     0AC2                     u293_21:
  7881     0AC2  2ABE               	goto	i1l67
  7882     0AC3                     u293_20:
  7883     0AC3                     i1l69:
  7884                           
  7885                           ;mcc_generated_files/spi1.c: 107:         PIR1bits.SSP1IF = 0;
  7886     0AC3  1191               	bcf	17,3	;volatile
  7887     0AC4                     i1l2983:
  7888                           
  7889                           ;mcc_generated_files/spi1.c: 108:         *data++ = SSP1BUF;
  7890     0AC4  0874               	movf	i1SPI1_ExchangeBlock@data,w
  7891     0AC5  0086               	movwf	6
  7892     0AC6  0875               	movf	i1SPI1_ExchangeBlock@data+1,w
  7893     0AC7  0087               	movwf	7
  7894     0AC8  0024               	movlb	4	; select bank4
  7895     0AC9  0811               	movf	17,w	;volatile
  7896     0ACA  0081               	movwf	1
  7897     0ACB                     i1l2985:
  7898     0ACB  3001               	movlw	1
  7899     0ACC  07F4               	addwf	i1SPI1_ExchangeBlock@data,f
  7900     0ACD  3000               	movlw	0
  7901     0ACE  3DF5               	addwfc	i1SPI1_ExchangeBlock@data+1,f
  7902     0ACF                     i1l2987:
  7903                           
  7904                           ;mcc_generated_files/spi1.c: 103:     while(blockSize--)
  7905     0ACF  3001               	movlw	1
  7906     0AD0  02F2               	subwf	i1SPI1_ExchangeBlock@blockSize,f
  7907     0AD1  3000               	movlw	0
  7908     0AD2  3BF3               	subwfb	i1SPI1_ExchangeBlock@blockSize+1,f
  7909     0AD3  0A72               	incf	i1SPI1_ExchangeBlock@blockSize,w
  7910     0AD4  1D03               	skipz
  7911     0AD5  2ADA               	goto	u294_21
  7912     0AD6  0A73               	incf	i1SPI1_ExchangeBlock@blockSize+1,w
  7913     0AD7  1D03               	btfss	3,2
  7914     0AD8  2ADA               	goto	u294_21
  7915     0AD9  2ADB               	goto	u294_20
  7916     0ADA                     u294_21:
  7917     0ADA  2AB7               	goto	i1l2981
  7918     0ADB                     u294_20:
  7919     0ADB                     i1l71:
  7920     0ADB  0008               	return
  7921     0ADC                     __end_ofi1_SPI1_ExchangeBlock:
  7922                           
  7923                           	psect	text36
  7924     068D                     __ptext36:	
  7925 ;; *************** function ___xxtofl *****************
  7926 ;; Defined at:
  7927 ;;		line 10 in file "C:\Program Files\Microchip\xc8\v2.46\pic\sources\c99\common\xxtofl.c"
  7928 ;; Parameters:    Size  Location     Type
  7929 ;;  sign            1    wreg     unsigned char 
  7930 ;;  val             4    4[BANK0 ] long 
  7931 ;; Auto vars:     Size  Location     Type
  7932 ;;  sign            1   12[BANK0 ] unsigned char 
  7933 ;;  arg             4   14[BANK0 ] unsigned long 
  7934 ;;  exp             1   13[BANK0 ] unsigned char 
  7935 ;; Return value:  Size  Location     Type
  7936 ;;                  4    4[BANK0 ] unsigned char 
  7937 ;; Registers used:
  7938 ;;		wreg, status,2, status,0
  7939 ;; Tracked objects:
  7940 ;;		On entry : 0/0
  7941 ;;		On exit  : 0/0
  7942 ;;		Unchanged: 0/0
  7943 ;; Data sizes:     COMMON   BANK0   BANK1   BANK2   BANK3   BANK4
  7944 ;;      Params:         0       4       0       0       0       0
  7945 ;;      Locals:         0       6       0       0       0       0
  7946 ;;      Temps:          0       4       0       0       0       0
  7947 ;;      Totals:         0      14       0       0       0       0
  7948 ;;Total ram usage:       14 bytes
  7949 ;; Hardware stack levels used: 1
  7950 ;; This function calls:
  7951 ;;		Nothing
  7952 ;; This function is called by:
  7953 ;;		_AtualizaXY
  7954 ;;		_reinicia
  7955 ;; This function uses a non-reentrant model
  7956 ;;
  7957                           
  7958     068D                     ___xxtofl:	
  7959                           ;psect for function ___xxtofl
  7960                           
  7961                           
  7962                           ;incstack = 0
  7963                           ; Regs used in ___xxtofl: [wreg+status,2+status,0]
  7964                           ;___xxtofl@sign stored from wreg
  7965     068D  0020               	movlb	0	; select bank0
  7966     068E  00AC               	movwf	___xxtofl@sign
  7967     068F                     i1l2579:
  7968     068F  082C               	movf	___xxtofl@sign,w
  7969     0690  1903               	btfsc	3,2
  7970     0691  2E93               	goto	u258_21
  7971     0692  2E94               	goto	u258_20
  7972     0693                     u258_21:
  7973     0693  2EA8               	goto	i1l2585
  7974     0694                     u258_20:
  7975     0694                     i1l2581:
  7976     0694  1FA7               	btfss	___xxtofl@val+3,7
  7977     0695  2E97               	goto	u259_21
  7978     0696  2E98               	goto	u259_20
  7979     0697                     u259_21:
  7980     0697  2EA8               	goto	i1l2585
  7981     0698                     u259_20:
  7982     0698                     i1l2583:
  7983     0698  0924               	comf	___xxtofl@val,w
  7984     0699  00AE               	movwf	___xxtofl@arg
  7985     069A  0925               	comf	___xxtofl@val+1,w
  7986     069B  00AF               	movwf	___xxtofl@arg+1
  7987     069C  0926               	comf	___xxtofl@val+2,w
  7988     069D  00B0               	movwf	___xxtofl@arg+2
  7989     069E  0927               	comf	___xxtofl@val+3,w
  7990     069F  00B1               	movwf	___xxtofl@arg+3
  7991     06A0  0AAE               	incf	___xxtofl@arg,f
  7992     06A1  1903               	skipnz
  7993     06A2  0AAF               	incf	___xxtofl@arg+1,f
  7994     06A3  1903               	skipnz
  7995     06A4  0AB0               	incf	___xxtofl@arg+2,f
  7996     06A5  1903               	skipnz
  7997     06A6  0AB1               	incf	___xxtofl@arg+3,f
  7998     06A7  2EB0               	goto	i1l1008
  7999     06A8                     i1l2585:
  8000     06A8  0827               	movf	___xxtofl@val+3,w
  8001     06A9  00B1               	movwf	___xxtofl@arg+3
  8002     06AA  0826               	movf	___xxtofl@val+2,w
  8003     06AB  00B0               	movwf	___xxtofl@arg+2
  8004     06AC  0825               	movf	___xxtofl@val+1,w
  8005     06AD  00AF               	movwf	___xxtofl@arg+1
  8006     06AE  0824               	movf	___xxtofl@val,w
  8007     06AF  00AE               	movwf	___xxtofl@arg
  8008     06B0                     i1l1008:
  8009     06B0  0827               	movf	___xxtofl@val+3,w
  8010     06B1  0426               	iorwf	___xxtofl@val+2,w
  8011     06B2  0425               	iorwf	___xxtofl@val+1,w
  8012     06B3  0424               	iorwf	___xxtofl@val,w
  8013     06B4  1D03               	skipz
  8014     06B5  2EB7               	goto	u260_21
  8015     06B6  2EB8               	goto	u260_20
  8016     06B7                     u260_21:
  8017     06B7  2EC1               	goto	i1l2591
  8018     06B8                     u260_20:
  8019     06B8                     i1l2587:
  8020     06B8  3000               	movlw	0
  8021     06B9  00A7               	movwf	?___xxtofl+3
  8022     06BA  3000               	movlw	0
  8023     06BB  00A6               	movwf	?___xxtofl+2
  8024     06BC  3000               	movlw	0
  8025     06BD  00A5               	movwf	?___xxtofl+1
  8026     06BE  3000               	movlw	0
  8027     06BF  00A4               	movwf	?___xxtofl
  8028     06C0  2F37               	goto	i1l1010
  8029     06C1                     i1l2591:
  8030     06C1  3096               	movlw	150
  8031     06C2  00AD               	movwf	___xxtofl@exp
  8032     06C3  2ECF               	goto	i1l2595
  8033     06C4                     i1l2593:
  8034     06C4  3001               	movlw	1
  8035     06C5  00A8               	movwf	??___xxtofl
  8036     06C6  0828               	movf	??___xxtofl,w
  8037     06C7  07AD               	addwf	___xxtofl@exp,f
  8038     06C8  3001               	movlw	1
  8039     06C9                     u261_25:
  8040     06C9  36B1               	lsrf	___xxtofl@arg+3,f
  8041     06CA  0CB0               	rrf	___xxtofl@arg+2,f
  8042     06CB  0CAF               	rrf	___xxtofl@arg+1,f
  8043     06CC  0CAE               	rrf	___xxtofl@arg,f
  8044     06CD  0B89               	decfsz	9,f
  8045     06CE  2EC9               	goto	u261_25
  8046     06CF                     i1l2595:
  8047     06CF  30FE               	movlw	254
  8048     06D0  0531               	andwf	___xxtofl@arg+3,w
  8049     06D1  1D03               	btfss	3,2
  8050     06D2  2ED4               	goto	u262_21
  8051     06D3  2ED5               	goto	u262_20
  8052     06D4                     u262_21:
  8053     06D4  2EC4               	goto	i1l2593
  8054     06D5                     u262_20:
  8055     06D5  2EE9               	goto	i1l1014
  8056     06D6                     i1l2597:
  8057     06D6  3001               	movlw	1
  8058     06D7  00A8               	movwf	??___xxtofl
  8059     06D8  0828               	movf	??___xxtofl,w
  8060     06D9  07AD               	addwf	___xxtofl@exp,f
  8061     06DA                     i1l2599:
  8062     06DA  3001               	movlw	1
  8063     06DB  07AE               	addwf	___xxtofl@arg,f
  8064     06DC  3000               	movlw	0
  8065     06DD  3DAF               	addwfc	___xxtofl@arg+1,f
  8066     06DE  3000               	movlw	0
  8067     06DF  3DB0               	addwfc	___xxtofl@arg+2,f
  8068     06E0  3000               	movlw	0
  8069     06E1  3DB1               	addwfc	___xxtofl@arg+3,f
  8070     06E2                     i1l2601:
  8071     06E2  3001               	movlw	1
  8072     06E3                     u263_25:
  8073     06E3  36B1               	lsrf	___xxtofl@arg+3,f
  8074     06E4  0CB0               	rrf	___xxtofl@arg+2,f
  8075     06E5  0CAF               	rrf	___xxtofl@arg+1,f
  8076     06E6  0CAE               	rrf	___xxtofl@arg,f
  8077     06E7  0B89               	decfsz	9,f
  8078     06E8  2EE3               	goto	u263_25
  8079     06E9                     i1l1014:
  8080     06E9  30FF               	movlw	255
  8081     06EA  0531               	andwf	___xxtofl@arg+3,w
  8082     06EB  1D03               	btfss	3,2
  8083     06EC  2EEE               	goto	u264_21
  8084     06ED  2EEF               	goto	u264_20
  8085     06EE                     u264_21:
  8086     06EE  2ED6               	goto	i1l2597
  8087     06EF                     u264_20:
  8088     06EF  2EF9               	goto	i1l2605
  8089     06F0                     i1l2603:
  8090     06F0  3001               	movlw	1
  8091     06F1  02AD               	subwf	___xxtofl@exp,f
  8092     06F2  3001               	movlw	1
  8093     06F3                     u265_25:
  8094     06F3  35AE               	lslf	___xxtofl@arg,f
  8095     06F4  0DAF               	rlf	___xxtofl@arg+1,f
  8096     06F5  0DB0               	rlf	___xxtofl@arg+2,f
  8097     06F6  0DB1               	rlf	___xxtofl@arg+3,f
  8098     06F7  0B89               	decfsz	9,f
  8099     06F8  2EF3               	goto	u265_25
  8100     06F9                     i1l2605:
  8101     06F9  1BB0               	btfsc	___xxtofl@arg+2,7
  8102     06FA  2EFC               	goto	u266_21
  8103     06FB  2EFD               	goto	u266_20
  8104     06FC                     u266_21:
  8105     06FC  2F03               	goto	i1l1021
  8106     06FD                     u266_20:
  8107     06FD                     i1l2607:
  8108     06FD  3002               	movlw	2
  8109     06FE  022D               	subwf	___xxtofl@exp,w
  8110     06FF  1803               	skipnc
  8111     0700  2F02               	goto	u267_21
  8112     0701  2F03               	goto	u267_20
  8113     0702                     u267_21:
  8114     0702  2EF0               	goto	i1l2603
  8115     0703                     u267_20:
  8116     0703                     i1l1021:
  8117     0703  182D               	btfsc	___xxtofl@exp,0
  8118     0704  2F06               	goto	u268_21
  8119     0705  2F07               	goto	u268_20
  8120     0706                     u268_21:
  8121     0706  2F0F               	goto	i1l1022
  8122     0707                     u268_20:
  8123     0707                     i1l2609:
  8124     0707  30FF               	movlw	255
  8125     0708  05AE               	andwf	___xxtofl@arg,f
  8126     0709  30FF               	movlw	255
  8127     070A  05AF               	andwf	___xxtofl@arg+1,f
  8128     070B  307F               	movlw	127
  8129     070C  05B0               	andwf	___xxtofl@arg+2,f
  8130     070D  30FF               	movlw	255
  8131     070E  05B1               	andwf	___xxtofl@arg+3,f
  8132     070F                     i1l1022:
  8133     070F  1003               	clrc
  8134     0710  0CAD               	rrf	___xxtofl@exp,f
  8135     0711                     i1l2611:
  8136     0711  082D               	movf	___xxtofl@exp,w
  8137     0712  00A8               	movwf	??___xxtofl
  8138     0713  01A9               	clrf	??___xxtofl+1
  8139     0714  01AA               	clrf	??___xxtofl+2
  8140     0715  01AB               	clrf	??___xxtofl+3
  8141     0716  3018               	movlw	24
  8142     0717                     u269_25:
  8143     0717  35A8               	lslf	??___xxtofl,f
  8144     0718  0DA9               	rlf	??___xxtofl+1,f
  8145     0719  0DAA               	rlf	??___xxtofl+2,f
  8146     071A  0DAB               	rlf	??___xxtofl+3,f
  8147     071B                     u269_20:
  8148     071B  0B89               	decfsz	9,f
  8149     071C  2F17               	goto	u269_25
  8150     071D  0828               	movf	??___xxtofl,w
  8151     071E  04AE               	iorwf	___xxtofl@arg,f
  8152     071F  0829               	movf	??___xxtofl+1,w
  8153     0720  04AF               	iorwf	___xxtofl@arg+1,f
  8154     0721  082A               	movf	??___xxtofl+2,w
  8155     0722  04B0               	iorwf	___xxtofl@arg+2,f
  8156     0723  082B               	movf	??___xxtofl+3,w
  8157     0724  04B1               	iorwf	___xxtofl@arg+3,f
  8158     0725                     i1l2613:
  8159     0725  082C               	movf	___xxtofl@sign,w
  8160     0726  1903               	btfsc	3,2
  8161     0727  2F29               	goto	u270_21
  8162     0728  2F2A               	goto	u270_20
  8163     0729                     u270_21:
  8164     0729  2F2F               	goto	i1l2619
  8165     072A                     u270_20:
  8166     072A                     i1l2615:
  8167     072A  1FA7               	btfss	___xxtofl@val+3,7
  8168     072B  2F2D               	goto	u271_21
  8169     072C  2F2E               	goto	u271_20
  8170     072D                     u271_21:
  8171     072D  2F2F               	goto	i1l2619
  8172     072E                     u271_20:
  8173     072E                     i1l2617:
  8174     072E  17B1               	bsf	___xxtofl@arg+3,7
  8175     072F                     i1l2619:
  8176     072F  0831               	movf	___xxtofl@arg+3,w
  8177     0730  00A7               	movwf	?___xxtofl+3
  8178     0731  0830               	movf	___xxtofl@arg+2,w
  8179     0732  00A6               	movwf	?___xxtofl+2
  8180     0733  082F               	movf	___xxtofl@arg+1,w
  8181     0734  00A5               	movwf	?___xxtofl+1
  8182     0735  082E               	movf	___xxtofl@arg,w
  8183     0736  00A4               	movwf	?___xxtofl
  8184     0737                     i1l1010:
  8185     0737  0008               	return
  8186     0738                     __end_of___xxtofl:
  8187                           
  8188                           	psect	text37
  8189     0D45                     __ptext37:	
  8190 ;; *************** function ___fltol *****************
  8191 ;; Defined at:
  8192 ;;		line 43 in file "C:\Program Files\Microchip\xc8\v2.46\pic\sources\c99\common\fltol.c"
  8193 ;; Parameters:    Size  Location     Type
  8194 ;;  f1              4   23[BANK1 ] unsigned char 
  8195 ;; Auto vars:     Size  Location     Type
  8196 ;;  exp1            1   32[BANK1 ] unsigned char 
  8197 ;;  sign1           1   31[BANK1 ] unsigned char 
  8198 ;; Return value:  Size  Location     Type
  8199 ;;                  4   23[BANK1 ] long 
  8200 ;; Registers used:
  8201 ;;		wreg, status,2, status,0
  8202 ;; Tracked objects:
  8203 ;;		On entry : 0/0
  8204 ;;		On exit  : 0/0
  8205 ;;		Unchanged: 0/0
  8206 ;; Data sizes:     COMMON   BANK0   BANK1   BANK2   BANK3   BANK4
  8207 ;;      Params:         0       0       4       0       0       0
  8208 ;;      Locals:         0       0       2       0       0       0
  8209 ;;      Temps:          0       0       4       0       0       0
  8210 ;;      Totals:         0       0      10       0       0       0
  8211 ;;Total ram usage:       10 bytes
  8212 ;; Hardware stack levels used: 1
  8213 ;; This function calls:
  8214 ;;		Nothing
  8215 ;; This function is called by:
  8216 ;;		_AtualizaXY
  8217 ;;		_reinicia
  8218 ;; This function uses a non-reentrant model
  8219 ;;
  8220                           
  8221     0D45                     ___fltol:	
  8222                           ;psect for function ___fltol
  8223                           
  8224     0D45                     i1l2403:	
  8225                           ;incstack = 0
  8226                           ; Regs used in ___fltol: [wreg+status,2+status,0]
  8227                           
  8228     0D45  1003               	clrc
  8229     0D46  0021               	movlb	1	; select bank1
  8230     0D47  0D39               	rlf	(___fltol@f1+2)^(0+128),w
  8231     0D48  0D3A               	rlf	(___fltol@f1+3)^(0+128),w
  8232     0D49  00C0               	movwf	___fltol@exp1^(0+128)
  8233     0D4A  0840               	movf	___fltol@exp1^(0+128),w
  8234     0D4B  1D03               	btfss	3,2
  8235     0D4C  2D4E               	goto	u222_21
  8236     0D4D  2D4F               	goto	u222_20
  8237     0D4E                     u222_21:
  8238     0D4E  2D58               	goto	i1l2409
  8239     0D4F                     u222_20:
  8240     0D4F                     i1l2405:
  8241     0D4F  3000               	movlw	0
  8242     0D50  00BA               	movwf	(?___fltol+3)^(0+128)
  8243     0D51  3000               	movlw	0
  8244     0D52  00B9               	movwf	(?___fltol+2)^(0+128)
  8245     0D53  3000               	movlw	0
  8246     0D54  00B8               	movwf	(?___fltol+1)^(0+128)
  8247     0D55  3000               	movlw	0
  8248     0D56  00B7               	movwf	?___fltol^(0+128)
  8249     0D57  2DB5               	goto	i1l761
  8250     0D58                     i1l2409:
  8251     0D58  0837               	movf	___fltol@f1^(0+128),w
  8252     0D59  00BB               	movwf	??___fltol^(0+128)
  8253     0D5A  0838               	movf	(___fltol@f1+1)^(0+128),w
  8254     0D5B  00BC               	movwf	(??___fltol^(0+128)+1)
  8255     0D5C  0839               	movf	(___fltol@f1+2)^(0+128),w
  8256     0D5D  00BD               	movwf	(??___fltol^(0+128)+2)
  8257     0D5E  083A               	movf	(___fltol@f1+3)^(0+128),w
  8258     0D5F  00BE               	movwf	(??___fltol^(0+128)+3)
  8259     0D60  301F               	movlw	31
  8260     0D61                     u223_25:
  8261     0D61  36BE               	lsrf	(??___fltol^(0+128)+3),f
  8262     0D62  0CBD               	rrf	(??___fltol^(0+128)+2),f
  8263     0D63  0CBC               	rrf	(??___fltol^(0+128)+1),f
  8264     0D64  0CBB               	rrf	??___fltol^(0+128),f
  8265     0D65                     u223_20:
  8266     0D65  0B89               	decfsz	9,f
  8267     0D66  2D61               	goto	u223_25
  8268     0D67  083B               	movf	??___fltol^(0+128),w
  8269     0D68  00BF               	movwf	___fltol@sign1^(0+128)
  8270     0D69                     i1l2411:
  8271     0D69  17B9               	bsf	(___fltol@f1^(0+128)+2),7
  8272     0D6A                     i1l2413:
  8273     0D6A  30FF               	movlw	255
  8274     0D6B  05B7               	andwf	___fltol@f1^(0+128),f
  8275     0D6C  30FF               	movlw	255
  8276     0D6D  05B8               	andwf	(___fltol@f1+1)^(0+128),f
  8277     0D6E  30FF               	movlw	255
  8278     0D6F  05B9               	andwf	(___fltol@f1+2)^(0+128),f
  8279     0D70  3000               	movlw	0
  8280     0D71  05BA               	andwf	(___fltol@f1+3)^(0+128),f
  8281     0D72                     i1l2415:
  8282     0D72  3096               	movlw	150
  8283     0D73  02C0               	subwf	___fltol@exp1^(0+128),f
  8284     0D74                     i1l2417:
  8285     0D74  1FC0               	btfss	___fltol@exp1^(0+128),7
  8286     0D75  2D77               	goto	u224_21
  8287     0D76  2D78               	goto	u224_20
  8288     0D77                     u224_21:
  8289     0D77  2D90               	goto	i1l2427
  8290     0D78                     u224_20:
  8291     0D78                     i1l2419:
  8292     0D78  0840               	movf	___fltol@exp1^(0+128),w
  8293     0D79  3A80               	xorlw	128
  8294     0D7A  3E97               	addlw	151
  8295     0D7B  1803               	skipnc
  8296     0D7C  2D7E               	goto	u225_21
  8297     0D7D  2D7F               	goto	u225_20
  8298     0D7E                     u225_21:
  8299     0D7E  2D80               	goto	i1l2425
  8300     0D7F                     u225_20:
  8301     0D7F  2D4F               	goto	i1l2405
  8302     0D80                     i1l2425:
  8303     0D80  3001               	movlw	1
  8304     0D81                     u226_25:
  8305     0D81  36BA               	lsrf	(___fltol@f1+3)^(0+128),f
  8306     0D82  0CB9               	rrf	(___fltol@f1+2)^(0+128),f
  8307     0D83  0CB8               	rrf	(___fltol@f1+1)^(0+128),f
  8308     0D84  0CB7               	rrf	___fltol@f1^(0+128),f
  8309     0D85  0B89               	decfsz	9,f
  8310     0D86  2D81               	goto	u226_25
  8311     0D87  3001               	movlw	1
  8312     0D88  00BB               	movwf	??___fltol^(0+128)
  8313     0D89  083B               	movf	??___fltol^(0+128),w
  8314     0D8A  07C0               	addwf	___fltol@exp1^(0+128),f
  8315     0D8B  1D03               	btfss	3,2
  8316     0D8C  2D8E               	goto	u227_21
  8317     0D8D  2D8F               	goto	u227_20
  8318     0D8E                     u227_21:
  8319     0D8E  2D80               	goto	i1l2425
  8320     0D8F                     u227_20:
  8321     0D8F  2DA5               	goto	i1l2435
  8322     0D90                     i1l2427:
  8323     0D90  3020               	movlw	32
  8324     0D91  0240               	subwf	___fltol@exp1^(0+128),w
  8325     0D92  1C03               	skipc
  8326     0D93  2D95               	goto	u228_21
  8327     0D94  2D96               	goto	u228_20
  8328     0D95                     u228_21:
  8329     0D95  2DA0               	goto	i1l768
  8330     0D96                     u228_20:
  8331     0D96  2D4F               	goto	i1l2405
  8332     0D97                     i1l2433:
  8333     0D97  3001               	movlw	1
  8334     0D98                     u229_25:
  8335     0D98  35B7               	lslf	___fltol@f1^(0+128),f
  8336     0D99  0DB8               	rlf	(___fltol@f1+1)^(0+128),f
  8337     0D9A  0DB9               	rlf	(___fltol@f1+2)^(0+128),f
  8338     0D9B  0DBA               	rlf	(___fltol@f1+3)^(0+128),f
  8339     0D9C  0B89               	decfsz	9,f
  8340     0D9D  2D98               	goto	u229_25
  8341     0D9E  3001               	movlw	1
  8342     0D9F  02C0               	subwf	___fltol@exp1^(0+128),f
  8343     0DA0                     i1l768:
  8344     0DA0  0840               	movf	___fltol@exp1^(0+128),w
  8345     0DA1  1D03               	btfss	3,2
  8346     0DA2  2DA4               	goto	u230_21
  8347     0DA3  2DA5               	goto	u230_20
  8348     0DA4                     u230_21:
  8349     0DA4  2D97               	goto	i1l2433
  8350     0DA5                     u230_20:
  8351     0DA5                     i1l2435:
  8352     0DA5  083F               	movf	___fltol@sign1^(0+128),w
  8353     0DA6  1903               	btfsc	3,2
  8354     0DA7  2DA9               	goto	u231_21
  8355     0DA8  2DAA               	goto	u231_20
  8356     0DA9                     u231_21:
  8357     0DA9  2DB5               	goto	i1l771
  8358     0DAA                     u231_20:
  8359     0DAA                     i1l2437:
  8360     0DAA  09B7               	comf	___fltol@f1^(0+128),f
  8361     0DAB  09B8               	comf	(___fltol@f1+1)^(0+128),f
  8362     0DAC  09B9               	comf	(___fltol@f1+2)^(0+128),f
  8363     0DAD  09BA               	comf	(___fltol@f1+3)^(0+128),f
  8364     0DAE  0AB7               	incf	___fltol@f1^(0+128),f
  8365     0DAF  1903               	skipnz
  8366     0DB0  0AB8               	incf	(___fltol@f1+1)^(0+128),f
  8367     0DB1  1903               	skipnz
  8368     0DB2  0AB9               	incf	(___fltol@f1+2)^(0+128),f
  8369     0DB3  1903               	skipnz
  8370     0DB4  0ABA               	incf	(___fltol@f1+3)^(0+128),f
  8371     0DB5                     i1l771:
  8372     0DB5                     i1l761:
  8373     0DB5  0008               	return
  8374     0DB6                     __end_of___fltol:
  8375                           
  8376                           	psect	text38
  8377     09B9                     __ptext38:	
  8378 ;; *************** function _TMR1_WriteTimer *****************
  8379 ;; Defined at:
  8380 ;;		line 120 in file "mcc_generated_files/tmr1.c"
  8381 ;; Parameters:    Size  Location     Type
  8382 ;;  timerVal        2    0[COMMON] unsigned short 
  8383 ;; Auto vars:     Size  Location     Type
  8384 ;;		None
  8385 ;; Return value:  Size  Location     Type
  8386 ;;                  1    wreg      void 
  8387 ;; Registers used:
  8388 ;;		wreg, status,2
  8389 ;; Tracked objects:
  8390 ;;		On entry : 0/0
  8391 ;;		On exit  : 0/0
  8392 ;;		Unchanged: 0/0
  8393 ;; Data sizes:     COMMON   BANK0   BANK1   BANK2   BANK3   BANK4
  8394 ;;      Params:         2       0       0       0       0       0
  8395 ;;      Locals:         0       0       0       0       0       0
  8396 ;;      Temps:          0       0       0       0       0       0
  8397 ;;      Totals:         2       0       0       0       0       0
  8398 ;;Total ram usage:        2 bytes
  8399 ;; Hardware stack levels used: 1
  8400 ;; This function calls:
  8401 ;;		Nothing
  8402 ;; This function is called by:
  8403 ;;		_TMR1_ISR
  8404 ;;		_TMR1_Reload
  8405 ;; This function uses a non-reentrant model
  8406 ;;
  8407                           
  8408     09B9                     _TMR1_WriteTimer:	
  8409                           ;psect for function _TMR1_WriteTimer
  8410                           
  8411     09B9                     i1l2723:	
  8412                           ;incstack = 0
  8413                           ; Regs used in _TMR1_WriteTimer: [wreg+status,2]
  8414                           
  8415                           
  8416                           ;mcc_generated_files/tmr1.c: 120: void TMR1_WriteTimer(uint16_t timerVal);mcc_generated_
      +                          files/tmr1.c: 121: {;mcc_generated_files/tmr1.c: 122:     if (T1CONbits.nT1SYNC == 1)
  8417     09B9  0020               	movlb	0	; select bank0
  8418     09BA  1D18               	btfss	24,2	;volatile
  8419     09BB  29BD               	goto	u278_21
  8420     09BC  29BE               	goto	u278_20
  8421     09BD                     u278_21:
  8422     09BD  29C5               	goto	i1l2733
  8423     09BE                     u278_20:
  8424     09BE                     i1l2725:
  8425                           
  8426                           ;mcc_generated_files/tmr1.c: 123:     {;mcc_generated_files/tmr1.c: 125:         T1CONbi
      +                          ts.TMR1ON = 0;
  8427     09BE  1018               	bcf	24,0	;volatile
  8428     09BF                     i1l2727:
  8429                           
  8430                           ;mcc_generated_files/tmr1.c: 128:         TMR1H = (uint8_t)(timerVal >> 8);
  8431     09BF  0871               	movf	TMR1_WriteTimer@timerVal+1,w
  8432     09C0  0097               	movwf	23	;volatile
  8433     09C1                     i1l2729:
  8434                           
  8435                           ;mcc_generated_files/tmr1.c: 129:         TMR1L = (uint8_t)timerVal;
  8436     09C1  0870               	movf	TMR1_WriteTimer@timerVal,w
  8437     09C2  0096               	movwf	22	;volatile
  8438     09C3                     i1l2731:
  8439                           
  8440                           ;mcc_generated_files/tmr1.c: 132:         T1CONbits.TMR1ON =1;
  8441     09C3  1418               	bsf	24,0	;volatile
  8442                           
  8443                           ;mcc_generated_files/tmr1.c: 133:     }
  8444     09C4  29C9               	goto	i1l247
  8445     09C5                     i1l2733:
  8446                           
  8447                           ;mcc_generated_files/tmr1.c: 135:     {;mcc_generated_files/tmr1.c: 137:         TMR1H =
      +                           (uint8_t)(timerVal >> 8);
  8448     09C5  0871               	movf	TMR1_WriteTimer@timerVal+1,w
  8449     09C6  0097               	movwf	23	;volatile
  8450     09C7                     i1l2735:
  8451                           
  8452                           ;mcc_generated_files/tmr1.c: 138:         TMR1L = (uint8_t)timerVal;
  8453     09C7  0870               	movf	TMR1_WriteTimer@timerVal,w
  8454     09C8  0096               	movwf	22	;volatile
  8455     09C9                     i1l247:
  8456     09C9  0008               	return
  8457     09CA                     __end_of_TMR1_WriteTimer:
  8458     007E                     btemp	set	126	;btemp
  8459     007E                     int$flags	set	126
  8460     007E                     wtemp0	set	126
  8461                           
  8462                           	psect	config
  8463                           
  8464                           ;Config register CONFIG1 @ 0x8007
  8465                           ;	Oscillator Selection
  8466                           ;	FOSC = INTOSC, INTOSC oscillator: I/O function on CLKIN pin
  8467                           ;	Watchdog Timer Enable
  8468                           ;	WDTE = OFF, WDT disabled
  8469                           ;	Power-up Timer Enable
  8470                           ;	PWRTE = OFF, PWRT disabled
  8471                           ;	MCLR Pin Function Select
  8472                           ;	MCLRE = ON, MCLR/VPP pin function is MCLR
  8473                           ;	Flash Program Memory Code Protection
  8474                           ;	CP = OFF, Program memory code protection is disabled
  8475                           ;	Data Memory Code Protection
  8476                           ;	CPD = OFF, Data memory code protection is disabled
  8477                           ;	Brown-out Reset Enable
  8478                           ;	BOREN = ON, Brown-out Reset enabled
  8479                           ;	Clock Out Enable
  8480                           ;	CLKOUTEN = OFF, CLKOUT function is disabled. I/O or oscillator function on the CLKOUT 
      +                          pin
  8481                           ;	Internal/External Switchover
  8482                           ;	IESO = ON, Internal/External Switchover mode is enabled
  8483                           ;	Fail-Safe Clock Monitor Enable
  8484                           ;	FCMEN = ON, Fail-Safe Clock Monitor is enabled
  8485     8007                     	org	32775
  8486     8007  3FE4               	dw	16356
  8487                           
  8488                           ;Config register CONFIG2 @ 0x8008
  8489                           ;	Flash Memory Self-Write Protection
  8490                           ;	WRT = OFF, Write protection off
  8491                           ;	PLL Enable
  8492                           ;	PLLEN = OFF, 4x PLL disabled
  8493                           ;	Stack Overflow/Underflow Reset Enable
  8494                           ;	STVREN = ON, Stack Overflow or Underflow will cause a Reset
  8495                           ;	Brown-out Reset Voltage Selection
  8496                           ;	BORV = LO, Brown-out Reset Voltage (Vbor), low trip point selected.
  8497                           ;	In-Circuit Debugger Mode
  8498                           ;	DEBUG = 0x1, unprogrammed default
  8499                           ;	Low-Voltage Programming Enable
  8500                           ;	LVP = ON, Low-voltage programming enabled
  8501     8008                     	org	32776
  8502     8008  3EFF               	dw	16127

Data Sizes:
    Strings     0
    Constant    548
    Data        4
    BSS         28
    Persistent  40
    Stack       0

Auto Spaces:
    Space          Size  Autos    Used
    COMMON           14     14      14
    BANK0            80     80      80
    BANK1            80     41      74
    BANK2            80     25      32
    BANK3            80      0       0
    BANK4            48      0       0

Pointer List with Targets:

    EUSART_ErrorHandler	PTR FTN()void  size(2) Largest target is 1
		 -> EUSART_DefaultErrorHandler(), NULL(), 

    EUSART_FramingErrorHandler	PTR FTN()void  size(2) Largest target is 1
		 -> EUSART_DefaultFramingErrorHandler(), NULL(), 

    EUSART_OverrunErrorHandler	PTR FTN()void  size(2) Largest target is 1
		 -> EUSART_DefaultOverrunErrorHandler(), NULL(), 

    EUSART_SetErrorHandler@interruptHandler	PTR FTN()void  size(2) Largest target is 1
		 -> EUSART_DefaultErrorHandler(), 

    EUSART_SetFramingErrorHandler@interruptHandler	PTR FTN()void  size(2) Largest target is 1
		 -> EUSART_DefaultFramingErrorHandler(), 

    EUSART_SetOverrunErrorHandler@interruptHandler	PTR FTN()void  size(2) Largest target is 1
		 -> EUSART_DefaultOverrunErrorHandler(), 

    SPI1_ExchangeBlock@block	PTR void  size(2) Largest target is 4
		 -> initMatrix@data(BANK2[4]), matrixPosicao@data(BANK0[4]), 

    SPI1_ExchangeBlock@data	PTR unsigned char  size(2) Largest target is 4
		 -> initMatrix@data(BANK2[4]), matrixPosicao@data(BANK0[4]), 

    TMR1_InterruptHandler	PTR FTN()void  size(2) Largest target is 1
		 -> TMR1_DefaultInterruptHandler(), verificaT(), NULL(), 

    TMR1_SetInterruptHandler@InterruptHandler	PTR FTN()void  size(2) Largest target is 1
		 -> TMR1_DefaultInterruptHandler(), verificaT(), 

    txSpi@data	PTR unsigned char  size(2) Largest target is 4
		 -> initMatrix@data(BANK2[4]), matrixPosicao@data(BANK0[4]), 


Critical Paths under _main in COMMON

    None.

Critical Paths under _INTERRUPT_InterruptManager in COMMON

    _reinicia->_rand
    _rand->___lmul
    ___flmul->_rand
    _AtualizaXY->_matrixPosicao
    ___fladd->_rand
    _matrixPosicao->i1_txSpi
    i1_txSpi->i1_SPI1_ExchangeBlock
    ___xxtofl->_rand

Critical Paths under _main in BANK0

    None.

Critical Paths under _INTERRUPT_InterruptManager in BANK0

    ___flmul->___xxtofl
    _AtualizaXY->_roundf
    _roundf->___flsub
    ___flsub->___fladd
    ___fladd->___flmul
    ___xxtofl->_rand
    ___fltol->_roundf

Critical Paths under _main in BANK1

    None.

Critical Paths under _INTERRUPT_InterruptManager in BANK1

    _TMR1_ISR->_verificaT
    _verificaT->_reinicia
    _reinicia->___fltol
    _AtualizaXY->___fltol
    ___fltol->_roundf

Critical Paths under _main in BANK2

    _main->_initMatrix
    _initMatrix->_txSpi
    _txSpi->_SPI1_ExchangeBlock
    _TMR1_Initialize->_TMR1_SetInterruptHandler
    _EUSART_Initialize->_EUSART_SetErrorHandler
    _EUSART_Initialize->_EUSART_SetFramingErrorHandler
    _EUSART_Initialize->_EUSART_SetOverrunErrorHandler

Critical Paths under _INTERRUPT_InterruptManager in BANK2

    None.

Critical Paths under _main in BANK3

    None.

Critical Paths under _INTERRUPT_InterruptManager in BANK3

    None.

Critical Paths under _main in BANK4

    None.

Critical Paths under _INTERRUPT_InterruptManager in BANK4

    None.

Call Graph Tables:

 ---------------------------------------------------------------------------------
 (Depth) Function   	        Calls       Base Space   Used Autos Params    Refs
 ---------------------------------------------------------------------------------
 (0) _main                                                 3     3      0    1920
                                             22 BANK2      3     3      0
                        _EUSART_Read
                 _EUSART_is_rx_ready
                          _SPI1_Open
                  _SYSTEM_Initialize
           _TMR1_SetInterruptHandler
                         _initMatrix
 ---------------------------------------------------------------------------------
 (1) _initMatrix                                           9     9      0    1156
                                             13 BANK2      9     9      0
                              _txSpi
 ---------------------------------------------------------------------------------
 (2) _txSpi                                                7     3      4     674
                                              6 BANK2      7     3      4
                 _SPI1_ExchangeBlock
 ---------------------------------------------------------------------------------
 (3) _SPI1_ExchangeBlock                                   6     2      4     260
                                              0 BANK2      6     2      4
 ---------------------------------------------------------------------------------
 (1) _SYSTEM_Initialize                                    0     0      0     468
                  _EUSART_Initialize
              _OSCILLATOR_Initialize
             _PIN_MANAGER_Initialize
                    _SPI1_Initialize
                    _TMR1_Initialize
                     _WDT_Initialize
 ---------------------------------------------------------------------------------
 (2) _WDT_Initialize                                       0     0      0       0
 ---------------------------------------------------------------------------------
 (2) _TMR1_Initialize                                      0     0      0     174
           _TMR1_SetInterruptHandler
 ---------------------------------------------------------------------------------
 (1) _TMR1_SetInterruptHandler                             2     0      2     174
                                              0 BANK2      2     0      2
 ---------------------------------------------------------------------------------
 (2) _SPI1_Initialize                                      0     0      0       0
 ---------------------------------------------------------------------------------
 (2) _PIN_MANAGER_Initialize                               0     0      0       0
 ---------------------------------------------------------------------------------
 (2) _OSCILLATOR_Initialize                                0     0      0       0
 ---------------------------------------------------------------------------------
 (2) _EUSART_Initialize                                    0     0      0     294
             _EUSART_SetErrorHandler
      _EUSART_SetFramingErrorHandler
      _EUSART_SetOverrunErrorHandler
 ---------------------------------------------------------------------------------
 (3) _EUSART_SetOverrunErrorHandler                        2     0      2      98
                                              0 BANK2      2     0      2
 ---------------------------------------------------------------------------------
 (3) _EUSART_SetFramingErrorHandler                        2     0      2      98
                                              0 BANK2      2     0      2
 ---------------------------------------------------------------------------------
 (3) _EUSART_SetErrorHandler                               2     0      2      98
                                              0 BANK2      2     0      2
 ---------------------------------------------------------------------------------
 (1) _SPI1_Open                                            4     4      0      88
                                              0 BANK2      4     4      0
 ---------------------------------------------------------------------------------
 (1) _EUSART_is_rx_ready                                   0     0      0       0
 ---------------------------------------------------------------------------------
 (1) _EUSART_Read                                          0     0      0       0
 ---------------------------------------------------------------------------------
 Estimated maximum stack depth 3
 ---------------------------------------------------------------------------------
 (Depth) Function   	        Calls       Base Space   Used Autos Params    Refs
 ---------------------------------------------------------------------------------
 (4) _INTERRUPT_InterruptManager                           0     0      0   15769
                           _TMR1_ISR
 ---------------------------------------------------------------------------------
 (5) _TMR1_ISR                                             0     0      0   15769
                                NULL *
       _TMR1_DefaultInterruptHandler *
                    _TMR1_WriteTimer
                          _verificaT *
 ---------------------------------------------------------------------------------
 (6) _verificaT                                            2     2      0   15529
                                             39 BANK1      2     2      0
                         _AtualizaXY
                           _reinicia
 ---------------------------------------------------------------------------------
 (7) _reinicia                                             6     6      0    6435
                                             33 BANK1      6     6      0
                            ___fladd
                            ___flmul
                            ___fltol
                           ___xxtofl
                               _rand
 ---------------------------------------------------------------------------------
 (8) _rand                                                 6     4      2     244
                                             12 COMMON     2     0      2
                                              0 BANK0      4     4      0
                             ___lmul
 ---------------------------------------------------------------------------------
 (9) ___lmul                                              12     4      8     244
                                              0 COMMON    12     4      8
 ---------------------------------------------------------------------------------
 (8) ___flmul                                             26    18      8    2417
                                             18 BANK0     26    18      8
                          __Umul8_16
                           ___xxtofl (ARG)
                               _rand (ARG)
 ---------------------------------------------------------------------------------
 (9) __Umul8_16                                            9     7      2     799
                                              0 COMMON     9     7      2
 ---------------------------------------------------------------------------------
 (7) _AtualizaXY                                           1     1      0    9094
                                             33 BANK1      1     1      0
                            ___fltol
                           ___xxtofl
                      _matrixPosicao
                             _roundf
 ---------------------------------------------------------------------------------
 (8) _roundf                                              31    27      4    7224
                                             72 BANK0      8     4      4
                                              0 BANK1     23    23      0
                            ___fladd
                             ___flge
                            ___flneg
                            ___flsub
                           ___xxtofl (ARG)
 ---------------------------------------------------------------------------------
 (9) ___flsub                                              8     0      8    3093
                                             64 BANK0      8     0      8
                            ___fladd
 ---------------------------------------------------------------------------------
 (8) ___fladd                                             20    12      8    2896
                                             44 BANK0     20    12      8
                            ___flmul (ARG)
                           ___xxtofl (ARG)
                               _rand (ARG)
 ---------------------------------------------------------------------------------
 (9) ___flneg                                              4     0      4     197
                                              0 COMMON     4     0      4
 ---------------------------------------------------------------------------------
 (9) ___flge                                              12     4      8     486
                                              0 COMMON    12     4      8
 ---------------------------------------------------------------------------------
 (8) _matrixPosicao                                        8     7      1    1015
                                             13 COMMON     1     0      1
                                              0 BANK0      7     7      0
                            i1_txSpi
 ---------------------------------------------------------------------------------
 (9) i1_txSpi                                              7     3      4     363
                                              6 COMMON     7     3      4
               i1_SPI1_ExchangeBlock
 ---------------------------------------------------------------------------------
 (10) i1_SPI1_ExchangeBlock                                6     2      4     169
                                              0 COMMON     6     2      4
 ---------------------------------------------------------------------------------
 (8) ___xxtofl                                            14    10      4     474
                                              4 BANK0     14    10      4
                               _rand (ARG)
 ---------------------------------------------------------------------------------
 (8) ___fltol                                             10     6      4     381
                                             23 BANK1     10     6      4
                           ___xxtofl (ARG)
                             _roundf (ARG)
 ---------------------------------------------------------------------------------
 (6) _TMR1_WriteTimer                                      2     0      2     240
                                              0 COMMON     2     0      2
 ---------------------------------------------------------------------------------
 (6) _TMR1_DefaultInterruptHandler                         0     0      0       0
 ---------------------------------------------------------------------------------
 (6) NULL(Fake)                                            0     0      0       0
 ---------------------------------------------------------------------------------
 Estimated maximum stack depth 10
 ---------------------------------------------------------------------------------

 Call Graph Graphs:

 _main (ROOT)
   _EUSART_Read
   _EUSART_is_rx_ready
   _SPI1_Open
   _SYSTEM_Initialize
     _EUSART_Initialize
       _EUSART_SetErrorHandler
       _EUSART_SetFramingErrorHandler
       _EUSART_SetOverrunErrorHandler
     _OSCILLATOR_Initialize
     _PIN_MANAGER_Initialize
     _SPI1_Initialize
     _TMR1_Initialize
       _TMR1_SetInterruptHandler
     _WDT_Initialize
   _TMR1_SetInterruptHandler
   _initMatrix
     _txSpi
       _SPI1_ExchangeBlock

 _INTERRUPT_InterruptManager (ROOT)
   _TMR1_ISR
     NULL(Fake) *
     _TMR1_DefaultInterruptHandler *
     _TMR1_WriteTimer *
     _verificaT *
       _AtualizaXY
         ___fltol
           ___xxtofl (ARG)
             _rand (ARG)
               ___lmul
           _roundf (ARG)
             ___fladd
               ___flmul (ARG)
                 __Umul8_16
                 ___xxtofl (ARG)
                 _rand (ARG)
               ___xxtofl (ARG)
               _rand (ARG)
             ___flge
             ___flneg
             ___flsub
               ___fladd
             ___xxtofl (ARG)
         ___xxtofl
         _matrixPosicao
           i1_txSpi
             i1_SPI1_ExchangeBlock
         _roundf
       _reinicia
         ___fladd
         ___flmul
         ___fltol
         ___xxtofl
         _rand

 Address spaces:
Name               Size   Autos  Total    Cost      Usage
BIGRAM             170      0       0       0        0.0%
EEDATA             100      0       0       0        0.0%
NULL                 0      0       0       0        0.0%
CODE                 0      0       0       0        0.0%
BITCOMMON            E      0       0       1        0.0%
BITSFR0              0      0       0       1        0.0%
SFR0                 0      0       0       1        0.0%
COMMON               E      E       E       2      100.0%
BITSFR1              0      0       0       2        0.0%
SFR1                 0      0       0       2        0.0%
BITSFR2              0      0       0       3        0.0%
SFR2                 0      0       0       3        0.0%
STACK                0      0       0       3        0.0%
BITSFR3              0      0       0       4        0.0%
SFR3                 0      0       0       4        0.0%
ABS                  0      0      C8       4        0.0%
BITBANK0            50      0       0       5        0.0%
BITSFR4              0      0       0       5        0.0%
SFR4                 0      0       0       5        0.0%
BANK0               50     50      50       6      100.0%
BITSFR5              0      0       0       6        0.0%
SFR5                 0      0       0       6        0.0%
BITBANK1            50      0       0       7        0.0%
BITSFR6              0      0       0       7        0.0%
SFR6                 0      0       0       7        0.0%
BANK1               50     29      4A       8       92.5%
BITSFR7              0      0       0       8        0.0%
SFR7                 0      0       0       8        0.0%
BITBANK2            50      0       0       9        0.0%
BITSFR8              0      0       0       9        0.0%
SFR8                 0      0       0       9        0.0%
BANK2               50     19      20      10       40.0%
BITSFR9              0      0       0      10        0.0%
SFR9                 0      0       0      10        0.0%
BITBANK3            50      0       0      11        0.0%
BITSFR10             0      0       0      11        0.0%
SFR10                0      0       0      11        0.0%
BANK3               50      0       0      12        0.0%
BITSFR11             0      0       0      12        0.0%
SFR11                0      0       0      12        0.0%
BITBANK4            30      0       0      13        0.0%
BITSFR12             0      0       0      13        0.0%
SFR12                0      0       0      13        0.0%
BANK4               30      0       0      14        0.0%
BITSFR13             0      0       0      14        0.0%
SFR13                0      0       0      14        0.0%
BITSFR14             0      0       0      15        0.0%
SFR14                0      0       0      15        0.0%
DATA                 0      0      C8      15        0.0%
BITSFR15             0      0       0      16        0.0%
SFR15                0      0       0      16        0.0%
BITSFR16             0      0       0      17        0.0%
SFR16                0      0       0      17        0.0%
BITSFR17             0      0       0      18        0.0%
SFR17                0      0       0      18        0.0%
BITSFR18             0      0       0      19        0.0%
SFR18                0      0       0      19        0.0%
BITSFR19             0      0       0      20        0.0%
SFR19                0      0       0      20        0.0%
BITSFR20             0      0       0      21        0.0%
SFR20                0      0       0      21        0.0%
BITSFR21             0      0       0      22        0.0%
SFR21                0      0       0      22        0.0%
BITSFR22             0      0       0      23        0.0%
SFR22                0      0       0      23        0.0%
BITSFR23             0      0       0      24        0.0%
SFR23                0      0       0      24        0.0%
BITSFR24             0      0       0      25        0.0%
SFR24                0      0       0      25        0.0%
BITSFR25             0      0       0      26        0.0%
SFR25                0      0       0      26        0.0%
BITSFR26             0      0       0      27        0.0%
SFR26                0      0       0      27        0.0%
BITSFR27             0      0       0      28        0.0%
SFR27                0      0       0      28        0.0%
BITSFR28             0      0       0      29        0.0%
SFR28                0      0       0      29        0.0%
BITSFR29             0      0       0      30        0.0%
SFR29                0      0       0      30        0.0%
BITSFR30             0      0       0      31        0.0%
SFR30                0      0       0      31        0.0%
BITSFR31             0      0       0      32        0.0%
SFR31                0      0       0      32        0.0%


Microchip Technology PIC Macro Assembler V2.46 build 20240104201356 
Symbol Table                                                                                   Tue Feb 04 23:54:50 2025

                                            _T 00D5                             _SPI1_ExchangeBlock 0ADC  
                                           l25 0A0B                                             l53 0CDB  
                                           l71 0B08                                             l49 09A8  
                                           l67 0AE9                                             l69 0AEE  
                          __Umul8_16@word_mpld 0076                                            l200 0975  
                                          l112 09DC                                            l203 097B  
                                          l115 0988                                            l206 096F  
                                          l118 0960                                            l161 0AB1  
                                          l233 0A26                                            l182 09B8  
                                          l263 0991                                            l169 0969  
                                          l178 09A9                                            l357 0C80  
                                          l383 0B5F                                            l375 0B3F  
                                          l387 0B61                                            l379 0B41  
                                          l389 0B74                            ?_SPI1_ExchangeBlock 0120  
                              _timer1ReloadVal 00D1                 ?_EUSART_SetFramingErrorHandler 0120  
                                          wreg 0009                                   ___flmul@aexp 0044  
                                 ___flmul@bexp 0045                        SPI1_ExchangeBlock@block 0120  
                                 ___flmul@sign 003F                                   ___flmul@temp 004A  
                                 ___flmul@prod 0046                                   ?_EUSART_Read 0070  
                                 ___fltol@exp1 00C0                                           l3031 0ADC  
                                         l3033 0AE2                                           l3121 0C2D  
                                         l3035 0AEF                                           l3131 0C62  
                                         l3123 0C4A                                           l3115 0C2C  
                                         l3037 0AF7                                           l3133 0C69  
                                         l3125 0C4D                                           l3109 0C29  
                                         l3039 0AFC                                           l3063 0B3E  
                                         l3135 0C75                                           l3127 0C53  
                                         l3151 0BF9                                           l3073 0B63  
                                         l3137 0C7A                                           l3129 0C56  
                                         l3161 0C0F                                           l3153 0BFA  
                                         l3067 0B43                                           l3163 0C10  
                                         l3155 0BFE                                           l3147 0BEC  
                                         l2701 0A12                                           l3069 0B53  
                                         l3165 0C18                                           l3157 0C01  
                                         l3149 0BF7                                           l2711 0A8D  
                                         l2703 0A13                                           l3271 0B4B  
                                         l3167 0C1D                                           l3159 0C0E  
                                         l2801 09B5                                           l2633 0970  
                                         l2721 0AAF                                           l2713 0A96  
                                         l2705 0A1A                                           l3273 0B6C  
                                         l3169 0C23                                           l2803 09B7  
                                         l2635 0976                                           l2715 0A97  
                                         l2707 0A1B                                           l2637 096A  
                                         l2717 0A9F                                           l2709 0A23  
                                         l2719 0AA7                                           l2671 09FC  
                                         l2639 0989                                           l2673 09FF  
                                         l2665 09F4                                           l2681 099D  
                                         l2691 0986                                           l2675 0A04  
                                         l2667 09F7                                           l2683 09A4  
                                         l2781 0CAD                                           l2677 0A06  
                                         l2669 09FA                                           l2685 09A6  
                                         l2693 095D                                           l2791 0965  
                                         l2783 0CBF                                           l2775 0C83  
                                         l2687 0982                                           l2679 0A09  
                                         l2695 0A0C                                           l2785 0CD9  
                                         l2777 0C88                                           l2689 0985  
                                         l2697 0A0E                                           l2795 09A9  
                                         l2779 0CAC                                           l2699 0A10  
                                         l2797 09AE                                           l2789 09CA  
                                         l2799 09B0                                           u3000 0B08  
                                         u3001 0B07                                           u3100 0C80  
                                         u3101 0C7F                                           _LATA 010C  
                                         _LATB 010D                                           u3140 0C18  
                                         u3141 0C17                                           u3150 0C23  
                                         u3151 0C22                                           u3080 0C53  
                                         u3081 0C52                                           u3090 0C69  
                                         u3091 0C68                                           u3167 0C07  
                                         u3177 0C6F                                           u2810 0C88  
                                         u2811 0C87                                           u2820 09AE  
                                         u2821 09AD                                           u2830 09B5  
                                         u2831 09B4                                           u2990 0AEE  
                                         i1l71 0ADB                                           u2991 0AED  
                                         i1l67 0ABE                                           i1l69 0AC3  
                                         _WPUA 020C                                           _WPUB 020D  
                                         _incX 00E7                                           _incY 00D7  
                                         _main 0BEC                                           _rand 0BB0  
                                         _seed 00E0                                           fsr0h 0005  
                                         fsr1h 0007                                           indf0 0000  
                                         fsr0l 0004                                           indf1 0001  
                                         fsr1l 0006                                           btemp 007E  
                         ??_SPI1_ExchangeBlock 0124                      i1SPI1_ExchangeBlock@block 0070  
                           _guarda_x_i_menos_1 00DA                             _guarda_x_i_menos_2 00DB  
                                         start 0019                                __end_ofi1_txSpi 0BB0  
                   ??_TMR1_SetInterruptHandler 0122                             _guarda_y_i_menos_1 00D8  
                           _guarda_y_i_menos_2 00D9                  __end_of_OSCILLATOR_Initialize 0989  
                                ___fltol@sign1 00BF                                __end_of___fladd 068D  
                                        ?_main 0070                                          ?_rand 007C  
                              __end_of___flneg 099D                                __end_of___flmul 0275  
                              __end_of___flsub 0A47               SPI1_Open@spi1UniqueConfiguration 0123  
                              __end_of___fltol 0DB6                                          _T1CON 0018  
                                        i1l403 0A8C                                          i1l260 09F3  
                                        i1l247 09C9                                          i1l370 0D44  
                                        i1l266 0003                                          i1l283 0017  
                                        i1l383 0B99                                          i1l375 0B77  
                                        i1l367 0E2E                                          i1l387 0B9C  
                                        i1l379 0B7A                                          i1l396 07FF  
                                        i1l389 0BAF                                          i1l581 0B3B  
                                        i1l910 0685                                          i1l902 0663  
                                        i1l911 068C                                          i1l761 0DB5  
                                        i1l753 07C1                                          i1l745 0754  
                                        i1l914 0A46                                          i1l771 0DB5  
                                        i1l748 07A8                                          i1l757 099C  
                                        i1l768 0DA0                                          i1l872 0558  
                                        i1l881 068C                                          i1l874 0536  
                                        i1l970 01F4                                          i1l868 04DB  
                                        i1l964 0274                                          i1l893 060A  
                                        i1l983 0A59                                          i1l976 0268  
                                        i1l889 05E8                                          i1l985 0A69  
                                        i1l899 062C                                          _RCREG 0199  
                                        _RCSTA 019D                                          _TMR1H 0017  
                                        _TMR1L 0016                                          _TRISA 008C  
                                        _TRISB 008D                                          _TXREG 019A  
                                        _TXSTA 019E                            ___lmul@multiplicand 0074  
                             __end_of_TMR1_ISR 09F4                                          _delay 00E6  
                               _WDT_Initialize 095D                                          _txSpi 0B3C  
                                        _toint 080C                        __end_of_TMR1_Initialize 0A27  
                                   _AtualizaXY 0DB6                                          pclath 000A  
                                        status 0003                                          wtemp0 007E  
                              _TMR1_WriteTimer 09B9                                  txSpi@dataSize 0128  
                              __initialization 001B                                   __end_of_main 0C29  
                                 __end_of_rand 0BEC                    ?_INTERRUPT_InterruptManager 0070  
                                       ??_main 0136                                         ??_rand 0020  
                       __end_of_WDT_Initialize 0961              _EUSART_DefaultFramingErrorHandler 0000  
                   _EUSART_OverrunErrorHandler 013B                                         ?_txSpi 0126  
                                       _ANSELA 018C                                         _ANSELB 018D  
                   __end_of_EUSART_is_rx_ready 096A                                         _BORCON 0116  
                                       _T1GCON 0019                                         i1l1010 0737  
                                       i1l1021 0703                                         i1l1022 070F  
                                       i1l1014 06E9                                         i1l1031 0BEB  
                                       i1l1008 06B0                        TMR1_WriteTimer@timerVal 0070  
                                       i1l2101 04F1                                         i1l2111 04FB  
                                       i1l2103 04F3                                         i1l1039 0FFF  
                                       i1l2201 061E                                         i1l2121 0505  
                                       i1l2113 04FD                                         i1l2105 04F5  
                                       i1l2211 0631                                         i1l2203 061F  
                                       i1l2131 053E                                         i1l2115 04FF  
                                       i1l2107 04F7                                         i1l2123 0507  
                                       i1l2051 048F                                         i1l3021 07D5  
                                       i1l2221 0668                                         i1l2213 0636  
                                       i1l2205 0623                                         i1l2133 0540  
                                       i1l2141 0551                                         i1l2125 0508  
                                       i1l2117 0501                                         i1l2109 04F9  
                                       i1l2061 04A3                                         i1l2053 0490  
                                       i1l2045 0485                                         i1l2301 0A51  
                                       i1l3101 09DD                                         i1l3023 07DB  
                                       i1l3015 07C7                                         i1l2231 067F  
                                       i1l2223 066D                                         i1l2215 063E  
                                       i1l2207 0629                                         i1l2151 0572  
                                       i1l2143 055C                                         i1l2135 0544  
                                       i1l2127 051F                                         i1l2119 0503  
                                       i1l2071 04B7                                         i1l2055 0495  
                                       i1l2063 04A5                                         i1l2047 0489  
                                       i1l2303 0A55                                         i1l3103 09DF  
                                       u200_20 0768                                         i1l3025 07DD  
                                       i1l3017 07CB                                         i1l3009 07C4  
                                       u200_21 0767                                         i1l2233 0681  
                                       i1l2225 0675                                         i1l2217 0642  
                                       i1l2161 0584                                         i1l2153 0576  
                                       i1l2145 0561                                         i1l2137 0545  
                                       i1l2129 053A                                         i1l2081 04C8  
                                       i1l2073 04B9                                         i1l2065 04AD  
                                       i1l2057 049A                                         i1l2049 048B  
                                       i1l3041 0DB6                                         i1l2305 0A60  
                                       i1l3105 09E7                                         i1l2411 0D69  
                                       i1l2403 0D45                                         i1l3027 07E7  
                                       i1l3019 07CF                                         i1l2235 0687  
                                       i1l2227 067A                                         i1l2219 065F  
                                       i1l2171 05CC                                         i1l2163 0585  
                                       i1l2155 057A                                         i1l2139 054D  
                                       i1l2091 04E5                                         i1l2083 04D0  
                                       i1l2075 04BD                                         i1l2067 04B0  
                                       i1l2059 04A2                                         i1l2331 0E2F  
                                       i1l3051 0DDE                                         i1l3043 0DBC  
                                       i1l2307 0A65                                         i1l2251 0B11  
                                       i1l3107 09EE                                         i1l2413 0D6A  
                                       i1l2405 0D4F                                         i1l3029 07F3  
                                       i1l2237 068B                                         i1l2229 067B  
                                       i1l2181 05F5                                         i1l2173 05D2  
                                       i1l2165 058D                                         i1l2157 057E  
                                       i1l2149 056A                                         i1l2093 04E9  
                                       i1l2085 04D1                                         i1l2077 04BE  
                                       i1l2069 04B6                                         i1l2341 0E7F  
                                       i1l2333 0E48                                         i1l3061 0E28  
                                       i1l3053 0DE0                                         i1l3045 0DC2  
                                       i1l2501 011D                                         i1l2253 0B15  
                                       i1l3141 000A                                         i1l2415 0D72  
                                       i1l2271 0774                                         i1l2263 0738  
                                       i1l2191 060E                                         i1l2175 05D7  
                                       i1l2159 0580                                         i1l2167 0592  
                                       i1l2095 04EB                                         i1l2079 04C3  
                                       i1l2087 04D3                                         i1l2351 0EB3  
                                       i1l2343 0E84                                         i1l2335 0E67  
                                       i1l3055 0DEE                                         i1l3047 0DC4  
                                       i1l2511 014F                                         i1l2503 0124  
                                       i1l2255 0B1D                                         i1l3143 000F  
                                       u201_20 0774                                         i1l2433 0D97  
                                       i1l2425 0D80                                         i1l2417 0D74  
                                       i1l2409 0D58                                         i1l2601 06E2  
                                       i1l2273 078C                                         u201_21 0773  
                                       i1l2265 074C                                         i1l2193 0611  
                                       i1l2185 05FE                                         i1l2169 05A8  
                                       i1l2177 05E0                                         i1l2097 04ED  
                                       i1l2089 04E1                                         i1l2361 0F70  
                                       i1l2353 0F2F                                         i1l2345 0E99  
                                       i1l2337 0E76                                         i1l3057 0DF1  
                                       i1l3049 0DDB                                         i1l2521 01AA  
                                       i1l2513 0161                                         i1l2505 012F  
                                       i1l2441 003E                                         i1l2257 0B24  
                                       i1l2249 0B09                                         i1l3145 0014  
                                       i1l2435 0DA5                                         i1l2419 0D78  
                                       i1l2427 0D90                                         i1l2611 0711  
                                       i1l2603 06F0                                         i1l2275 0790  
                                       i1l2267 0768                                         i1l2283 0992  
                                       i1l2195 0613                                         i1l2187 0605  
                                       i1l2179 05F0                                         i1l2099 04EF  
                                       i1l2291 0A27                                         i1l2371 0FF0  
                                       i1l2363 0F79                                         i1l2355 0F37  
                                       i1l2347 0EA9                                         i1l2339 0E77  
                                       i1l3059 0DF5                                         i1l2531 01C9  
                                       i1l2523 01B1                                         i1l2515 016C  
                                       i1l2507 0136                                         i1l2451 004F  
                                       i1l2443 0040                                         i1l2259 0B33  
                                       i1l3091 0A73                                         i1l3139 0006  
                                       i1l2437 0DAA                                         i1l2613 0725  
                                       i1l2605 06F9                                         i1l2277 07BE  
                                       i1l2269 0770                                         i1l2285 099A  
                                       i1l2197 0618                                         i1l2189 0609  
                                       i1l2293 0A2A                                         i1l2365 0FA5  
                                       i1l2357 0F4E                                         i1l2541 01DD  
                                       i1l2533 01D0                                         i1l2525 01BD  
                                       i1l2517 017E                                         i1l2509 0148  
                                       i1l2461 0068                                         i1l2453 0057  
                                       i1l2445 0044                                         i1l3093 0A75  
                                       i1l2615 072A                                         i1l2607 06FD  
                                       i1l2279 07C0                                         i1l2287 099C  
                                       i1l2199 061A                                         i1l2367 0FD7  
                                       i1l2359 0F58                                         i1l2551 0206  
                                       i1l2543 01F1                                         i1l2527 01C4  
                                       i1l2535 01D4                                         i1l2519 0193  
                                       i1l2471 007F                                         i1l2463 006C  
                                       i1l2455 0059                                         i1l2447 0045  
                                       i1l2439 003A                                         i1l3095 0A82  
                                       i1l3087 0A6A                                         u202_20 0790  
                                       u210_20 0E7D                                         i1l2617 072E  
                                       i1l2609 0707                                         u202_21 078F  
                                       i1l2369 0FDC                                         u210_21 0E7B  
                                       i1l2297 0A48                                         i1l2561 023D  
                                       i1l2553 020A                                         i1l2537 01D8  
                                       i1l2529 01C8                                         i1l2473 0081  
                                       i1l2465 006D                                         i1l2457 0061  
                                       i1l2449 004A                                         i1l3097 0A85  
                                       i1l3089 0A70                                         i1l2731 09C3  
                                       i1l2723 09B9                                         i1l2619 072F  
                                       i1l3275 0B85                                         i1l2299 0A4A  
                                       i1l2571 0265                                         i1l2563 024B  
                                       i1l2555 0222                                         i1l2547 01F9  
                                       i1l2539 01D9                                         i1l2491 00D9  
                                       i1l2483 009C                                         i1l2475 0089  
                                       i1l2467 0072                                         i1l2459 0066  
                                       i1l3099 0A88                                         i1l2725 09BE  
                                       i1l2733 09C5                                         i1l2581 0694  
                                       i1l3277 0BA7                                         i1l2573 0266  
                                       i1l2565 0254                                         i1l2549 01FE  
                                       i1l2557 0226                                         i1l2493 00F1  
                                       i1l2485 00A7                                         i1l2477 008E  
                                       i1l2469 0077                                         i1l2397 0BB0  
                                       i1l2735 09C7                                         i1l2727 09BF  
                                       i1l2591 06C1                                         i1l2583 0698  
                                       i1l2575 026C                                         i1l2567 0256  
                                       i1l2559 0233                                         i1l2495 00FE  
                                       i1l2487 00B4                                         i1l2479 0093  
                                       i1l2399 0BD1                                         i1l2663 0CDC  
                                       u203_20 07BE                                         u211_20 0E7E  
                                       i1l2729 09C1                                         i1l2593 06C4  
                                       i1l2585 06A8                                         u203_21 07BD  
                                       i1l2569 0261                                         i1l2497 010B  
                                       i1l2489 00CC                                         i1l2595 06CF  
                                       i1l2587 06B8                                         i1l2579 068F  
                                       i1l2499 0112                                         i1l2597 06D6  
                                       u203_25 07BA                                         i1l2599 06DA  
                                       u204_20 099A                                         u212_20 0E84  
                                       u204_21 0999                                         u212_21 0E83  
                                       i1l2981 0AB7                                         i1l2983 0AC4  
                                       u213_20 0EA9                                         u301_20 0DBC  
                                       u205_20 0A55                                         u221_20 0BE5  
                                       i1l2985 0ACB                                         i1l2993 0B7D  
                                       u213_21 0EA8                                         u301_21 0DBB  
                                       u205_21 0A54                                         i1l2987 0ACF  
                                       i1l2979 0AB2                                         i1l2995 0B8D  
                                       i1l2989 0B76                                         u213_25 0EA5  
                                       u221_25 0BE1                                         i1l2999 0B9F  
                                       u230_20 0DA5                                         u222_20 0D4F  
                                       u150_20 048F                                         u214_20 0F4E  
                                       u302_20 0DC2                                         u230_21 0DA4  
                                       u222_21 0D4E                                         u150_21 048E  
                                       u214_21 0F4D                                         u302_21 0DC1  
                                       u206_25 0A5A                                         u231_20 0DAA  
                                       u223_20 0D65                                         u151_20 0495  
                                       u215_20 0F70                                         u303_20 0DDB  
                                       u207_20 0A65                                         u311_20 000A  
                                       u231_21 0DA9                                         u151_21 0494  
                                       u215_21 0F6F                                         u303_21 0DDA  
                                       u207_21 0A64                                         u311_21 0009  
                                       u223_25 0D61                                         u303_25 0DD7  
                                       u224_20 0D78                                         u160_20 0529  
                                       u152_20 049A                                         u216_20 0FDC  
                                       u208_20 0E5C                                         u304_20 0DEE  
                                       u232_20 0044                                         u312_20 000F  
                                       u224_21 0D77                                         u160_21 0527  
                                       u152_21 0499                                         u216_21 0FDB  
                                       u304_21 0DED                                         u232_21 0043  
                                       u312_21 000E                                         u208_25 0E58  
                                       u304_25 0DEA                                         u240_25 010C  
                                  initMatrix@i 0134                                    initMatrix@j 0135  
                                       u225_20 0D7F                                         u161_20 052A  
                                       u153_20 04B6                                         u209_20 0E76  
                                       u233_20 004A                                         u305_20 0A70  
                                       u313_20 0014                                    initMatrix@k 0133  
                                       u225_21 0D7E                                         u153_21 04B5  
                                       u209_21 0E75                                         u233_21 0049  
                                       u305_21 0A6F                                         u313_21 0013  
                                       u209_25 0E72                                         u241_25 0137  
                                       u170_20 0584                                         u162_20 053A  
                                       u154_20 04BD                                         u250_20 01F1  
                                       u242_20 0189                                         u234_20 004F  
                                       u306_20 0A82                                         u170_21 0583  
                                       u162_21 0539                                         u154_21 04BC  
                                       u250_21 01F0                                         u234_21 004E  
                                       u306_21 0A81                                         u226_25 0D81  
                                       u242_25 0185                                         u306_25 0A7E  
                                       u227_20 0D8F                                         u163_20 0544  
                                       u155_20 04C3                                         u251_20 01F8  
                                       u243_20 01A0                                         u235_20 006C  
                                       u307_20 09EE                                         u227_21 0D8E  
                                       u163_21 0543                                         u155_21 04C2  
                                       u251_21 01F7                                         u235_21 006B  
                                       u307_21 09ED                                         u171_25 0587  
                                       u243_25 019C                                         u228_20 0D96  
                                       u260_20 06B8                                         u180_20 061E  
                                       u172_20 05A8                                         u156_20 04C8  
                                       u252_20 01FE                                         u236_20 0072  
                                       u228_21 0D95                                         u260_21 06B7  
                                       u180_21 061D                                         u172_21 05A7  
                                       u156_21 04C7                                         u252_21 01FD  
                                       u236_21 0071                                         u172_23 05A4  
                                       u164_25 0547                                         u244_25 01AB  
                                       u181_20 0623                                         u173_20 05D7  
                                       u165_20 0558                                         u157_20 04E1  
                                       u253_20 020A                                         u237_20 0077  
                                       u181_21 0622                                         u173_21 05D6  
                                       u165_21 0557                                         u157_21 04E0  
                                       u253_21 0209                                         u237_21 0076  
                                       u229_25 0D98                                         u261_25 06C9  
                                       u245_25 01BE                                         u270_20 072A  
                                       u262_20 06D5                                         u190_20 067A  
                                       u182_20 0629                                         u174_20 05F0  
                                       u166_20 055C                                         u158_20 04E5  
                                       u254_20 0218                                         u246_20 01C8  
                                       u238_20 008E                                         u270_21 0729  
                                       u262_21 06D4                                         u190_21 0679  
                                       u182_21 0628                                         u174_21 05EF  
                                       u166_21 055B                                         u158_21 04E4  
                                       u246_21 01C7                                         u238_21 008D  
                                       u254_25 0214                                         u271_20 072E  
                                       u191_20 067F                                         u183_20 0630  
                                       u175_20 05F5                                         u167_20 0561  
                                       u159_20 051F                                         u255_20 0233  
                                       u239_20 0093                                         u271_21 072D  
                                       u191_21 067E                                         u183_21 062F  
                                       u175_21 05F4                                         u167_21 0560  
                                       u159_21 051E                                         u255_21 0232  
                                       u239_21 0092                                         u263_25 06E3  
                                       u159_25 051B                                         u255_25 022F  
                                       u247_25 01CA                                         u264_20 06EF  
                                       u192_20 068B                                         u184_20 0636  
                                       u168_20 0576                                         u256_20 024B  
                                       u248_20 01D8                                         u264_21 06EE  
                                       u192_21 068A                                         u184_21 0635  
                                       u168_21 0575                                         u256_21 024A  
                                       u248_21 01D7                                         u176_25 05FF  
                                       u256_25 0247                                         u185_20 0642  
                                       u177_20 0609                                         u169_20 057A  
                                       u257_20 0265                                         u249_20 01DD  
                                       u185_21 0641                                         u177_21 0608  
                                       u169_21 0579                                         u257_21 0264  
                                       u249_21 01DC                                         u265_25 06F3  
                                       u266_20 06FD                                         u258_20 0694  
                                       u186_20 0650                                         u178_20 060E  
                                       u266_21 06FC                                         u258_21 0693  
                                       u178_21 060D                                         u186_25 064C  
                                       u267_20 0703                                         u259_20 0698  
                                       u187_20 065F                                         u179_20 0618  
                                       u195_20 0B15                                         u267_21 0702  
                                       u259_21 0697                                         u187_21 065E  
                                       u179_21 0617                                         u195_21 0B14  
                                       u268_20 0707                                         u188_20 0668  
                                       u268_21 0706                                         u188_21 0667  
                                       u196_25 0B1E                                         u269_20 071B  
                                       u293_20 0AC3                                         u189_20 066D  
                                       u293_21 0AC2                                         u189_21 066C  
                                       u269_25 0717                                         u197_25 0B25  
                                       u278_20 09BE                                         u294_20 0ADB  
                                       u198_20 0B33                                         u278_21 09BD  
                                       u294_21 0ADA                                         u198_21 0B32  
                                       u295_20 07D5                                         u199_20 074C  
                                       u295_21 07D4                                         u199_21 074B  
                                       u296_20 07DB                                         u296_21 07DA  
                                       u297_24 07E2                                         u297_25 07E1  
                                       _OSCCON 0099                                         u298_24 07EF  
                                       u298_25 07EE                                      ??i1_txSpi 007A  
                                       _SPBRGH 019C                                         _SPBRGL 019B  
                                       _WDTCON 0097                               __end_of___xxtofl 0738  
                            __end_of_SPI1_Open 0CDC           __end_of_TMR1_DefaultInterruptHandler 0004  
                 _TMR1_DefaultInterruptHandler 0003                                         ___flge 0738  
                                       ___lmul 0B09                                      ??___fladd 0054  
                                    ??___flneg 0074                                      ??___flmul 003A  
                                    ??___flsub 007E                                      ??___fltol 00BB  
                                       _roundf 0E2F                               __end_of_reinicia 0D45  
                              ?_WDT_Initialize 0070                       i1SPI1_ExchangeBlock@data 0074  
     TMR1_SetInterruptHandler@InterruptHandler 0120                        __end_of_TMR1_WriteTimer 09CA  
                                  ?_AtualizaXY 0070                                     ___flge@ff1 0070  
                                   ___flge@ff2 0074                               ?_TMR1_Initialize 0070  
                                 ___xxtofl@arg 002E                                   ___xxtofl@exp 002D  
                            _SYSTEM_Initialize 09CA                                   ___xxtofl@val 0024  
                      __end_of__initialization 0036                                     ___flneg@f1 0070  
                           ?_SYSTEM_Initialize 0070                                     ___fltol@f1 00B7  
                                  i1txSpi@data 0076                                 __pcstackCOMMON 0070  
                                 __pidataBANK1 0961                            ??_SYSTEM_Initialize 0122  
                              i1txSpi@dataSize 0078                                      ?_TMR1_ISR 0070  
                ?_TMR1_DefaultInterruptHandler 0070                              ??_SPI1_Initialize 0120  
                                __end_of_txSpi 0B75                                  __end_of_toint 0810  
                           _spi1_configuration 0810                                 _OPTION_REGbits 0095  
              ??_EUSART_SetOverrunErrorHandler 0122                      __end_of_SYSTEM_Initialize 09DD  
                                      ??_txSpi 012A                                     __pbssBANK1 00C9  
                                   __pbssBANK2 013F                             __end_of_MATRIZ_LED 0485  
                            __end_of__Umul8_16 0A6A                                     __pmaintext 0BEC  
                                      ?___flge 0070                                        ?___lmul 0070  
                                   ??_TMR1_ISR 007E                                     __pintentry 0004  
                                      _BAUDCON 019F                                 ___lmul@product 0078  
                                      _APFCON0 011D                                        _APFCON1 011E  
                                      ?_roundf 0068                                  _matrixPosicao 07C2  
                                    ?___xxtofl 0024                                        _OSCTUNE 0098  
                                      _SSP1ADD 0212                                        _SSP1BUF 0211  
                     ??_EUSART_SetErrorHandler 0122                               ?_TMR1_WriteTimer 0070  
                                      i1_txSpi 0B75                                      ?_reinicia 0070  
                                   _initMatrix 0C29                                        ___fladd 0485  
                                      ___flneg 0992                                        ___flmul 003A  
                                      ___flsub 0A27                                        ___fltol 0D45  
                                      __ptext1 0C29                                        __ptext2 0B3C  
                                      __ptext3 0ADC                                        __ptext4 09CA  
                                      __ptext5 095D                                        __ptext6 0A0C  
                                      __ptext7 0989                                        __ptext8 099D  
                                      __ptext9 09F4                                 ?_matrixPosicao 007D  
               ??_TMR1_DefaultInterruptHandler 0070                                      _T1CONbits 0018  
                        _OSCILLATOR_Initialize 0982                                     ??___xxtofl 0028  
                     ??_PIN_MANAGER_Initialize 0120                      ?_TMR1_SetInterruptHandler 0120  
                                      clrloop0 097D                           end_of_initialization 0036  
                               initMatrix@data 012F          __end_of_EUSART_SetOverrunErrorHandler 097C  
                _EUSART_SetOverrunErrorHandler 0976                              _EUSART_Initialize 0A8D  
                                   ??_reinicia 00C1                             ?_EUSART_Initialize 0070  
                            __end_of_verificaT 0A8D                                      _RCSTAbits 019D  
                           _EUSART_is_rx_ready 0965                                        txSpi@cs 012C  
                                      roundf@e 00A8                                        roundf@u 00AA  
                                      roundf@x 0068                                        roundf@y 00B3  
                                      roundf@z 00A4                                      _SPI1_Open 0C81  
                          ??_EUSART_Initialize 0122                               ??_WDT_Initialize 0120  
                                   _primeiro_T 00E5                            ?_EUSART_is_rx_ready 0070  
                                  ___fladd@grs 005F                                  ___xxtofl@sign 002C  
                                    _TRISBbits 008D                                   ??_AtualizaXY 00C1  
                       SPI1_ExchangeBlock@data 0124                                    ___flmul@grs 0040  
                    __end_of_EUSART_Initialize 0AB2                           ??_EUSART_is_rx_ready 0120  
                              _SPI1_Initialize 099D                                      _TXSTAbits 019E  
                                   main@rxChar 0138                                    ?_initMatrix 0070  
                           _gera_xs_anteriores 00D4                                 __end_of___flge 07C2  
                                   ?_SPI1_Open 0070                                 __end_of___lmul 0B3C  
                   _EUSART_DefaultErrorHandler 0000                                ??_matrixPosicao 0020  
                       ?_OSCILLATOR_Initialize 0070                             __end_of_AtualizaXY 0E2F  
                               __end_of_roundf 1000                            start_initialization 001B  
                                    i1txSpi@cs 007C                   __end_ofi1_SPI1_ExchangeBlock 0ADC  
                                ??_EUSART_Read 0120                 ?_EUSART_SetOverrunErrorHandler 0120  
                   _EUSART_FramingErrorHandler 013D                                       ??___flge 0078  
                                     ??___lmul 0078                         _EUSART_SetErrorHandler 096A  
                                    __Umul8_16 0A47                             _gera_ys_anteriores 00D3  
                                  __pdataBANK1 00E4                                       ??_roundf 006C  
                                    ___fladd@a 0050                                      ___fladd@b 004C  
                                    ___flmul@a 0036                                      ___flmul@b 0032  
                                    ___flsub@a 0060                                      ___flsub@b 0064  
                                    ___latbits 0001                                  __pcstackBANK0 0020  
                                __pcstackBANK1 00A0                                  __pcstackBANK2 0120  
                      __end_of_SPI1_Initialize 09A9                                       ?i1_txSpi 0076  
                          __end_of_EUSART_Read 09B9                                      __pnvBANK1 00E8  
                                    __pnvBANK2 0139                         _PIN_MANAGER_Initialize 09F4  
             __end_of_TMR1_SetInterruptHandler 0992                                       ?___fladd 004C  
                                     ?___flneg 0070                                       ?___flmul 0032  
                                     ?___flsub 0060                                       ?___fltol 00B7  
                                   ?__Umul8_16 0070                                    ??_SPI1_Open 0120  
                 ??_INTERRUPT_InterruptManager 007E                                      _recalcula 00E4  
                   __end_of_SPI1_ExchangeBlock 0B09                                       _LATAbits 010C  
       EUSART_SetErrorHandler@interruptHandler 0120                                       _LATBbits 010D  
                          __end_of_matrix_conf 080C                                      clear_ram0 097C  
                                     _PIE1bits 0091                              _eusartRxLastError 013F  
                                     _PIR1bits 0011                ??_EUSART_SetFramingErrorHandler 0122  
                            matrixPosicao@data 0021                                       _SSP1CON1 0215  
                                     _SSP1CON2 0216                           i1_SPI1_ExchangeBlock 0AB2  
            _EUSART_DefaultOverrunErrorHandler 0000                                       _TMR1_ISR 09DD  
                                     _SSP1STAT 0214                                      _verificaT 0A6A  
                                  _conta_ate_T 00D6                              ??_TMR1_Initialize 0122  
                                  _EUSART_Read 09A9                               ?_SPI1_Initialize 0070  
                            ___lmul@multiplier 0070                      AtualizaXY@guarda_posicaoY 00CF  
                                   roundf@F522 00C9                          matrixPosicao@posicaoX 0025  
                        matrixPosicao@posicaoY 007D                                   ??_initMatrix 012D  
                                   roundf@sign 00B2                          ?i1_SPI1_ExchangeBlock 0070  
                      ??_OSCILLATOR_Initialize 0120                                    ??__Umul8_16 0072  
                          _EUSART_ErrorHandler 0139                                     ?_verificaT 0070  
                     _TMR1_SetInterruptHandler 0989                          _TMR1_InterruptHandler 00E8  
                                     ___xxtofl 068D                                       __ptext10 0982  
                                     __ptext11 0A8D                                       __ptext20 0003  
                                     __ptext12 0976                                       __ptext21 0A6A  
                                     __ptext13 0970                                     _T1GCONbits 0019  
                                     __ptext30 0485                                       __ptext22 0CDC  
                                     __ptext14 096A                                       __ptext31 0992  
                                     __ptext23 0BB0                                       __ptext15 0C81  
                                     __ptext32 0738                                       __ptext24 0B09  
                                     __ptext16 0965                                       __ptext33 07C2  
                                     __ptext25 003A                                       __ptext17 09A9  
                                     __ptext34 0B75                                       __ptext26 0A47  
                                     __ptext35 0AB2                                       __ptext27 0DB6  
                                     __ptext19 09DD                                       __ptext36 068D  
                                     __ptext28 0E2F                                       __ptext37 0D45  
                                     __ptext29 0A27                                       __ptext38 09B9  
                                     _direcaoX 00DD                                       _direcaoY 00DC  
                                    reinicia@a 00C3                                   _SSP1CON1bits 0215  
                                  _matrix_conf 0800                             __end_of_initMatrix 0C81  
                                     _reinicia 0CDC                        ?_EUSART_SetErrorHandler 0120  
                i1SPI1_ExchangeBlock@blockSize 0072  EUSART_SetOverrunErrorHandler@interruptHandler 0120  
                                     _posicaoX 00DF                                       _posicaoY 00DE  
                                     int$flags 007E             __end_of_INTERRUPT_InterruptManager 0019  
                   _INTERRUPT_InterruptManager 0004          __end_of_EUSART_SetFramingErrorHandler 0976  
                _EUSART_SetFramingErrorHandler 0970                              ??_TMR1_WriteTimer 0072  
                                    txSpi@data 0126                    SPI1_ExchangeBlock@blockSize 0122  
                                   _MATRIZ_LED 0275                          __end_of_matrixPosicao 0800  
                                   _INTCONbits 000B                                       intlevel1 0000  
                      ?_PIN_MANAGER_Initialize 0070                 __end_of_EUSART_SetErrorHandler 0970  
                       ??i1_SPI1_ExchangeBlock 0074  EUSART_SetFramingErrorHandler@interruptHandler 0120  
                                  ??_verificaT 00C7                                  __pstringtext1 0275  
                                __pstringtext2 0800                                  __pstringtext3 080C  
                                __pstringtext4 0810                         __Umul8_16@multiplicand 0070  
                               matrixPosicao@i 0026                                  ___fladd@signs 005C  
               __end_of_PIN_MANAGER_Initialize 0A0C                                   ___fladd@aexp 005D  
                                 ___fladd@bexp 005E                           __Umul8_16@multiplier 0078  
                         verificaT@conta_ate_T 00CD                                _TMR1_Initialize 0A0C  
                                  _roundf$1486 00AE                                    _roundf$1487 00A0  
                   __end_of_spi1_configuration 0814                              __Umul8_16@product 0074  
